 StarcraftBuildOrderSearch

 Timestamp is 54c3f932 (Sat Jan 24 19:57:38 2015)

 Preferred load address is 00400000

 Start         Length     Name                   Class
 0001:00000000 0002d7eaH .text                   CODE
 0001:0002d7f0 00001ad6H .text$x                 CODE
 0001:0002f2d0 0000ac7dH .text$yc                CODE
 0001:00039f50 000003baH .text$yd                CODE
 0002:00000000 00000144H .idata$5                DATA
 0002:00000144 00000004H .CRT$XCA                DATA
 0002:00000148 00000004H .CRT$XCAA               DATA
 0002:0000014c 00000c78H .CRT$XCU                DATA
 0002:00000dc4 00000004H .CRT$XCZ                DATA
 0002:00000dc8 00000004H .CRT$XIA                DATA
 0002:00000dcc 00000004H .CRT$XIAA               DATA
 0002:00000dd0 00000004H .CRT$XIC                DATA
 0002:00000dd4 00000004H .CRT$XIY                DATA
 0002:00000dd8 00000004H .CRT$XIZ                DATA
 0002:00000de0 00003738H .rdata                  DATA
 0002:00004518 00000094H .rdata$debug            DATA
 0002:000045ac 00000250H .rdata$r                DATA
 0002:00004800 00000198H .rdata$sxdata           DATA
 0002:00004998 00000004H .rtc$IAA                DATA
 0002:0000499c 00000004H .rtc$IZZ                DATA
 0002:000049a0 00000004H .rtc$TAA                DATA
 0002:000049a4 00000004H .rtc$TZZ                DATA
 0002:000049a8 00001eacH .xdata$x                DATA
 0002:00006854 0000003cH .idata$2                DATA
 0002:00006890 00000014H .idata$3                DATA
 0002:000068a4 00000144H .idata$4                DATA
 0002:000069e8 00000b76H .idata$6                DATA
 0002:0000755e 00000000H .edata                  DATA
 0003:00000000 000005e0H .data                   DATA
 0003:000005e0 00069098H .bss                    DATA

  Address         Publics by Value              Rva+Base       Lib:Object

 0000:00000000       __except_list              00000000     <absolute>
 0000:00000066       ___safe_se_handler_count   00000066     <absolute>
 0000:00009876       __ldused                   00009876     <absolute>
 0000:00009876       __fltused                  00009876     <absolute>
 0000:00000000       ___ImageBase               00400000     <linker-defined>
 0001:00000000       ??1bad_alloc@std@@UAE@XZ   00401000 f i StarcraftData.obj
 0001:00000010       ??_Ebad_alloc@std@@UAEPAXI@Z 00401010 f i  CIL library: CIL module
 0001:00000010       ??_Gbad_alloc@std@@UAEPAXI@Z 00401010 f i StarcraftData.obj
 0001:00000040       ??3@YAXPAX0@Z              00401040 f i StarcraftData.obj
 0001:00000040       ??1BuildingStatus@BuildOrderSearch@@QAE@XZ 00401040 f i test.obj
 0001:00000050       ?what@logic_error@std@@UBEPBDXZ 00401050 f i StarcraftData.obj
 0001:00000060       ??_Elogic_error@std@@UAEPAXI@Z 00401060 f i  CIL library: CIL module
 0001:00000060       ??_Elength_error@std@@UAEPAXI@Z 00401060 f i  CIL library: CIL module
 0001:00000060       ??_Gout_of_range@std@@UAEPAXI@Z 00401060 f i test.obj
 0001:00000060       ??_Eout_of_range@std@@UAEPAXI@Z 00401060 f i  CIL library: CIL module
 0001:00000060       ??_Glength_error@std@@UAEPAXI@Z 00401060 f i StarcraftData.obj
 0001:00000060       ??_Glogic_error@std@@UAEPAXI@Z 00401060 f i StarcraftData.obj
 0001:000000a0       ??0logic_error@std@@QAE@ABV01@@Z 004010a0 f i StarcraftData.obj
 0001:00000110       ??1StarcraftSearchConstraints@BuildOrderSearch@@QAE@XZ 00401110 f i test.obj
 0001:00000110       ?destroy@?$allocator@VMacroAction@BuildOrderSearch@@@std@@QAEXPAVMacroAction@BuildOrderSearch@@@Z 00401110 f i StarcraftData.obj
 0001:00000110       ??1?$vector@IV?$allocator@I@std@@@std@@QAE@XZ 00401110 f i StarcraftData.obj
 0001:00000110       ??1?$vector@VBitSet@BuildOrderSearch@@V?$allocator@VBitSet@BuildOrderSearch@@@std@@@std@@QAE@XZ 00401110 f i StarcraftData.obj
 0001:00000110       ??1?$vector@HV?$allocator@H@std@@@std@@QAE@XZ 00401110 f i test.obj
 0001:00000110       ??1?$vector@U?$pair@HH@std@@V?$allocator@U?$pair@HH@std@@@2@@std@@QAE@XZ 00401110 f i test.obj
 0001:00000110       ??1MacroAction@BuildOrderSearch@@QAE@XZ 00401110 f i StarcraftData.obj
 0001:00000110       ??1?$vector@EV?$allocator@E@std@@@std@@QAE@XZ 00401110 f i StarcraftData.obj
 0001:00000140       ??0StarcraftData@BuildOrderSearch@@QAE@XZ 00401140 f i StarcraftData.obj
 0001:000001d0       ??1StarcraftData@BuildOrderSearch@@QAE@XZ 004011d0 f i StarcraftData.obj
 0001:00000240       ??1StarcraftAction@BuildOrderSearch@@QAE@XZ 00401240 f i StarcraftData.obj
 0001:000002a0       ??1?$DependencyGraph@_N@BuildOrderSearch@@QAE@XZ 004012a0 f i StarcraftData.obj
 0001:00000310       ?getStarcraftDataInstance@BuildOrderSearch@@YAAAVStarcraftData@1@XZ 00401310 f   StarcraftData.obj
 0001:00000380       ??1?$vector@VStarcraftAction@BuildOrderSearch@@V?$allocator@VStarcraftAction@BuildOrderSearch@@@std@@@std@@QAE@XZ 00401380 f i StarcraftData.obj
 0001:00000400       ??1?$vector@VMacroAction@BuildOrderSearch@@V?$allocator@VMacroAction@BuildOrderSearch@@@std@@@std@@QAE@XZ 00401400 f i StarcraftData.obj
 0001:00000450       ??1?$vector@V?$vector@_NV?$allocator@_N@std@@@std@@V?$allocator@V?$vector@_NV?$allocator@_N@std@@@std@@@2@@std@@QAE@XZ 00401450 f i StarcraftData.obj
 0001:000004a0       ?_Buy@?$vector@VBitSet@BuildOrderSearch@@V?$allocator@VBitSet@BuildOrderSearch@@@std@@@std@@IAE_NI@Z 004014a0 f i StarcraftData.obj
 0001:000004a0       ?_Buy@?$vector@U?$pair@HH@std@@V?$allocator@U?$pair@HH@std@@@2@@std@@IAE_NI@Z 004014a0 f i test.obj
 0001:000004d0       ?_Buy@?$vector@V?$vector@_NV?$allocator@_N@std@@@std@@V?$allocator@V?$vector@_NV?$allocator@_N@std@@@std@@@2@@std@@IAE_NI@Z 004014d0 f i StarcraftData.obj
 0001:00000500       ?_Destroy@?$vector@V?$vector@_NV?$allocator@_N@std@@@std@@V?$allocator@V?$vector@_NV?$allocator@_N@std@@@std@@@2@@std@@IAEXPAV?$vector@_NV?$allocator@_N@std@@@2@0@Z 00401500 f i StarcraftData.obj
 0001:00000520       ?_Tidy@?$vector@V?$vector@_NV?$allocator@_N@std@@@std@@V?$allocator@V?$vector@_NV?$allocator@_N@std@@@std@@@2@@std@@IAEXXZ 00401520 f i StarcraftData.obj
 0001:00000560       ??1?$vector@_NV?$allocator@_N@std@@@std@@QAE@XZ 00401560 f i StarcraftData.obj
 0001:00000560       ?destroy@?$allocator@V?$vector@_NV?$allocator@_N@std@@@std@@@std@@QAEXPAV?$vector@_NV?$allocator@_N@std@@@2@@Z 00401560 f i StarcraftData.obj
 0001:000005a0       ??0length_error@std@@QAE@ABV01@@Z 004015a0 f i StarcraftData.obj
 0001:000005c0       ?allocate@?$allocator@VBitSet@BuildOrderSearch@@@std@@QAEPAVBitSet@BuildOrderSearch@@I@Z 004015c0 f i StarcraftData.obj
 0001:000005c0       ?allocate@?$allocator@U?$pair@HH@std@@@std@@QAEPAU?$pair@HH@2@I@Z 004015c0 f i test.obj
 0001:00000620       ?_Destroy@?$vector@VStarcraftAction@BuildOrderSearch@@V?$allocator@VStarcraftAction@BuildOrderSearch@@@std@@@std@@IAEXPAVStarcraftAction@BuildOrderSearch@@0@Z 00401620 f i StarcraftData.obj
 0001:00000640       ?_Xlen@?$vector@VStarcraftAction@BuildOrderSearch@@V?$allocator@VStarcraftAction@BuildOrderSearch@@@std@@@std@@KAXXZ 00401640 f i StarcraftData.obj
 0001:00000640       ?_Xlen@?$vector@VMacroAction@BuildOrderSearch@@V?$allocator@VMacroAction@BuildOrderSearch@@@std@@@std@@KAXXZ 00401640 f i StarcraftData.obj
 0001:00000640       ?_Xlen@?$vector@EV?$allocator@E@std@@@std@@KAXXZ 00401640 f i test.obj
 0001:00000640       ?_Xlen@?$vector@VBitSet@BuildOrderSearch@@V?$allocator@VBitSet@BuildOrderSearch@@@std@@@std@@KAXXZ 00401640 f i StarcraftData.obj
 0001:00000640       ?_Xlen@?$vector@U?$pair@HH@std@@V?$allocator@U?$pair@HH@std@@@2@@std@@KAXXZ 00401640 f i test.obj
 0001:00000640       ?_Xlen@?$vector@V?$vector@_NV?$allocator@_N@std@@@std@@V?$allocator@V?$vector@_NV?$allocator@_N@std@@@std@@@2@@std@@KAXXZ 00401640 f i StarcraftData.obj
 0001:000006d0       ?allocate@?$allocator@VStarcraftAction@BuildOrderSearch@@@std@@QAEPAVStarcraftAction@BuildOrderSearch@@I@Z 004016d0 f i StarcraftData.obj
 0001:00000730       ?_Destroy@?$vector@VMacroAction@BuildOrderSearch@@V?$allocator@VMacroAction@BuildOrderSearch@@@std@@@std@@IAEXPAVMacroAction@BuildOrderSearch@@0@Z 00401730 f i StarcraftData.obj
 0001:00000750       ?allocate@?$allocator@VMacroAction@BuildOrderSearch@@@std@@QAEPAVMacroAction@BuildOrderSearch@@I@Z 00401750 f i StarcraftData.obj
 0001:000007b0       ?allocate@?$allocator@V?$vector@_NV?$allocator@_N@std@@@std@@@std@@QAEPAV?$vector@_NV?$allocator@_N@std@@@2@I@Z 004017b0 f i StarcraftData.obj
 0001:00000810       ??0bad_alloc@std@@QAE@ABV01@@Z 00401810 f i StarcraftData.obj
 0001:00000830       ??$_Destroy_range@V?$allocator@V?$vector@_NV?$allocator@_N@std@@@std@@@std@@@std@@YAXPAV?$vector@_NV?$allocator@_N@std@@@0@0AAV?$allocator@V?$vector@_NV?$allocator@_N@std@@@std@@@0@U_Nonscalar_ptr_iterator_tag@0@@Z 00401830 f i StarcraftData.obj
 0001:00000880       ??$_Destroy_range@V?$allocator@VStarcraftAction@BuildOrderSearch@@@std@@@std@@YAXPAVStarcraftAction@BuildOrderSearch@@0AAV?$allocator@VStarcraftAction@BuildOrderSearch@@@0@U_Nonscalar_ptr_iterator_tag@0@@Z 00401880 f i StarcraftData.obj
 0001:000008f0       ??$_Destroy_range@V?$allocator@VMacroAction@BuildOrderSearch@@@std@@@std@@YAXPAVMacroAction@BuildOrderSearch@@0AAV?$allocator@VMacroAction@BuildOrderSearch@@@0@U_Nonscalar_ptr_iterator_tag@0@@Z 004018f0 f i StarcraftData.obj
 0001:00000930       ??1length_error@std@@UAE@XZ 00401930 f i StarcraftData.obj
 0001:00000930       ??1out_of_range@std@@UAE@XZ 00401930 f i test.obj
 0001:00000950       ??0out_of_range@std@@QAE@ABV01@@Z 00401950 f i test.obj
 0001:00000970       ?countTrailingZeros@BitSet@BuildOrderSearch@@QBEH_K@Z 00401970 f i test.obj
 0001:000009b0       ?numActions@BitSet@BuildOrderSearch@@QBEHXZ 004019b0 f i test.obj
 0001:00000a20       ??0StarcraftAction@BuildOrderSearch@@QAE@VUnitType@BWAPI@@H@Z 00401a20 f i test.obj
 0001:00000c70       ??0StarcraftAction@BuildOrderSearch@@QAE@VUpgradeType@BWAPI@@H@Z 00401c70 f i test.obj
 0001:00000d60       ??0StarcraftAction@BuildOrderSearch@@QAE@VTechType@BWAPI@@H@Z 00401d60 f i test.obj
 0001:00000e50       ?getName@StarcraftAction@BuildOrderSearch@@QBE?AV?$basic_string@DU?$char_traits@D@std@@V?$allocator@D@2@@std@@XZ 00401e50 f i test.obj
 0001:00000e70       ??0ActionsInProgress@BuildOrderSearch@@QAE@XZ 00401e70 f i test.obj
 0001:00000ed0       ?addAction@ActionsInProgress@BuildOrderSearch@@QAEXEH@Z 00401ed0 f i test.obj
 0001:00000f40       ?whenActionsFinished@ActionsInProgress@BuildOrderSearch@@QBEHVBitSet@2@@Z 00401f40 f i test.obj
 0001:00000ff0       ?addActions@StarcraftData@BuildOrderSearch@@AAEXAAVRace@BWAPI@@@Z 00401ff0 f i test.obj
 0001:00002330       ?addPrerequisites@StarcraftData@BuildOrderSearch@@AAEXXZ 00403330 f i test.obj
 0001:00002480       ?calculateSpecialUnits@StarcraftData@BuildOrderSearch@@AAEXXZ 00403480 f i test.obj
 0001:000026e0       ?calculatePrerequisites@StarcraftData@BuildOrderSearch@@AAE?AVBitSet@2@AAVStarcraftAction@2@@Z 004036e0 f i test.obj
 0001:00002ba0       ?calculateDependencyGraph@StarcraftData@BuildOrderSearch@@AAEXXZ 00403ba0 f i test.obj
 0001:00002e80       ?addMacroActions@StarcraftData@BuildOrderSearch@@AAEXXZ 00403e80 f i test.obj
 0001:00003020       ?calculateHashData@StarcraftData@BuildOrderSearch@@AAEXXZ 00404020 f i test.obj
 0001:00003070       ?init@StarcraftData@BuildOrderSearch@@QAEXVRace@BWAPI@@@Z 00404070 f i test.obj
 0001:000030f0       ??AStarcraftData@BuildOrderSearch@@QBEABVStarcraftAction@1@H@Z 004040f0 f i test.obj
 0001:00003120       ?getAction@StarcraftData@BuildOrderSearch@@QBEEAAVStarcraftAction@2@@Z 00404120 f i test.obj
 0001:000031b0       ?getAction@StarcraftData@BuildOrderSearch@@QBEEABVUnitType@BWAPI@@@Z 004041b0 f i test.obj
 0001:000032c0       ?getAction@StarcraftData@BuildOrderSearch@@QBEEABVTechType@BWAPI@@@Z 004042c0 f i test.obj
 0001:000033b0       ?calculateSupplyRequired@StarcraftSearchGoal@BuildOrderSearch@@AAEXXZ 004043b0 f i test.obj
 0001:000034c0       ?printGoal@StarcraftSearchGoal@BuildOrderSearch@@QBEXXZ 004044c0 f i test.obj
 0001:00003730       ??0SearchSaveState@BuildOrderSearch@@QAE@V?$vector@EV?$allocator@E@std@@@std@@H@Z 00404730 f i test.obj
 0001:000037b0       ??0SearchResults@BuildOrderSearch@@QAE@_NH_KNV?$vector@EV?$allocator@E@std@@@std@@@Z 004047b0 f i test.obj
 0001:00003860       ?printResults@SearchResults@BuildOrderSearch@@QAEX_N@Z 00404860 f i test.obj
 0001:000038b0       ?printBuildOrder@SearchResults@BuildOrderSearch@@QAEXXZ 004048b0 f i test.obj
 0001:00003900       ??0BuildingStatus@BuildOrderSearch@@QAE@XZ 00404900 f i test.obj
 0001:00003910       ?queueAction@BuildingData@BuildOrderSearch@@QAEXE@Z 00404910 f i test.obj
 0001:00003bf0       ?fastForwardBuildings@BuildingData@BuildOrderSearch@@QAEXH@Z 00404bf0 f i test.obj
 0001:00003cc0       ?printBuildingInformation@BuildingData@BuildOrderSearch@@QBEXXZ 00404cc0 f i test.obj
 0001:00003e60       ?xsetGameStartData@StarcraftState@BuildOrderSearch@@AAEXXZ 00404e60 f i test.obj
 0001:00003fa0       ?xspecificWhenReady@StarcraftState@BuildOrderSearch@@AAEHE@Z 00404fa0 f i test.obj
 0001:000040b0       ?xspecificDoAction@StarcraftState@BuildOrderSearch@@AAEXEH@Z 004050b0 f i test.obj
 0001:00004350       ?xspecificFastForward@StarcraftState@BuildOrderSearch@@AAEXH@Z 00405350 f i test.obj
 0001:00004420       ?xspecificFinishAction@StarcraftState@BuildOrderSearch@@AAEXE@Z 00405420 f i test.obj
 0001:000045d0       ?fixZergUnitMasks@StarcraftState@BuildOrderSearch@@AAEXXZ 004055d0 f i test.obj
 0001:000046f0       ??0StarcraftState@BuildOrderSearch@@QAE@_N@Z 004056f0 f i test.obj
 0001:00004890       ?doAction@StarcraftState@BuildOrderSearch@@QAEXEH@Z 00405890 f i test.obj
 0001:00004bb0       ?fastForward@StarcraftState@BuildOrderSearch@@QAEXH@Z 00405bb0 f i test.obj
 0001:00004dd0       ?finishNextActionInProgress@StarcraftState@BuildOrderSearch@@QAEXXZ 00405dd0 f i test.obj
 0001:00005090       ?resourcesReady@StarcraftState@BuildOrderSearch@@QAEHE@Z 00406090 f i test.obj
 0001:00005250       ?whenSupplyReady@StarcraftState@BuildOrderSearch@@QBEHE@Z 00406250 f i test.obj
 0001:000054b0       ?whenPrerequisitesReady@StarcraftState@BuildOrderSearch@@QBEHE@Z 004064b0 f i test.obj
 0001:00005610       ?whenBuildingPrereqReady@StarcraftState@BuildOrderSearch@@QBEHE@Z 00406610 f i test.obj
 0001:00005820       ?whenConstructedBuildingReady@StarcraftState@BuildOrderSearch@@QBEHE@Z 00406820 f i test.obj
 0001:000058f0       ?whenMineralsReady@StarcraftState@BuildOrderSearch@@QBEHE@Z 004068f0 f i test.obj
 0001:00005b70       ?whenGasReady@StarcraftState@BuildOrderSearch@@QBEHE@Z 00406b70 f i test.obj
 0001:00005df0       ?calculateUpperBoundHeuristic@StarcraftState@BuildOrderSearch@@QBEHABVStarcraftSearchGoal@2@@Z 00406df0 f i test.obj
 0001:00005f60       ?calculateDependencyHeuristic@StarcraftState@BuildOrderSearch@@QBEHABVStarcraftSearchGoal@2@@Z 00406f60 f i test.obj
 0001:00006020       ?calculateGoalResourceLowerBound@StarcraftState@BuildOrderSearch@@QBE?AU?$pair@HH@std@@ABVStarcraftSearchGoal@2@@Z 00407020 f i test.obj
 0001:00006330       ?calculateDependencyResourcesRemaining@StarcraftState@BuildOrderSearch@@QBEXHAAU?$pair@HH@std@@AAVBitSet@2@@Z 00407330 f i test.obj
 0001:000064d0       ?calculateDependencyTimeRemaining@StarcraftState@BuildOrderSearch@@QBEHE@Z 004074d0 f i test.obj
 0001:00006730       ?resourceReadyLowerBound@StarcraftState@BuildOrderSearch@@QBE?AU?$pair@HH@std@@HH@Z 00407730 f i test.obj
 0001:00006cb0       ?getLegalActions@StarcraftState@BuildOrderSearch@@QBE?AVBitSet@2@ABVStarcraftSearchGoal@2@@Z 00407cb0 f i test.obj
 0001:00006d80       ?isLegal@StarcraftState@BuildOrderSearch@@QBE_NEABVStarcraftSearchGoal@2@@Z 00407d80 f i test.obj
 0001:00007100       ?meetsGoal@StarcraftState@BuildOrderSearch@@QBE_NABVStarcraftSearchGoal@2@@Z 00408100 f i test.obj
 0001:00007240       ?meetsConstraints@StarcraftState@BuildOrderSearch@@QBE_NABVStarcraftSearchConstraints@2@@Z 00408240 f i test.obj
 0001:000072c0       ?setUnitMask@StarcraftState@BuildOrderSearch@@QAEXXZ 004082c0 f i test.obj
 0001:000074b0       ?setProgressMask@StarcraftState@BuildOrderSearch@@QAEXXZ 004084b0 f i test.obj
 0001:00007500       ?addNumUnits@StarcraftState@BuildOrderSearch@@QAEXED@Z 00408500 f i test.obj
 0001:00007540       ?getNumUnits@StarcraftState@BuildOrderSearch@@QBEEH@Z 00408540 f i test.obj
 0001:000075a0       ?getSupplyInProgress@StarcraftState@BuildOrderSearch@@QBEHXZ 004085a0 f i test.obj
 0001:00007670       ?hasEnoughSupplyForGoal@StarcraftState@BuildOrderSearch@@QBE_NABVStarcraftSearchGoal@2@@Z 00408670 f i test.obj
 0001:00007820       ?getFinishTimeMinerals@StarcraftState@BuildOrderSearch@@QBEHXZ 00408820 f i test.obj
 0001:00007870       ?getFinishTimeGas@StarcraftState@BuildOrderSearch@@QBEHXZ 00408870 f i test.obj
 0001:000078c0       ?getArmyValue@StarcraftState@BuildOrderSearch@@QBEHXZ 004088c0 f i test.obj
 0001:00007b30       ?getBuildOrder@StarcraftState@BuildOrderSearch@@QAE?AV?$vector@EV?$allocator@E@std@@@std@@XZ 00408b30 f i test.obj
 0001:00007c10       ?printData@StarcraftState@BuildOrderSearch@@QBEXXZ 00408c10 f i test.obj
 0001:00007e90       ??1BuildingData@BuildOrderSearch@@QAE@XZ 00408e90 f i test.obj
 0001:00007ea0       ??0SearchParameters@BuildOrderSearch@@QAE@XZ 00408ea0 f i test.obj
 0001:00007fa0       ??1StarcraftState@BuildOrderSearch@@QAE@XZ 00408fa0 f i test.obj
 0001:00008000       ??0StarcraftState@BuildOrderSearch@@QAE@ABV01@@Z 00409000 f i test.obj
 0001:00008180       ?getElapsedTimeInMilliSec@Timer@BuildOrderSearch@@QAENXZ 00409180 f i test.obj
 0001:000081c0       ??0StarcraftSearch@BuildOrderSearch@@IAE@XZ 004091c0 f i test.obj
 0001:00008250       ??1StarcraftSearch@BuildOrderSearch@@IAE@XZ 00409250 f i test.obj
 0001:000082d0       ?calculateRecursivePrerequisites@StarcraftSearch@BuildOrderSearch@@IAEXEAAVBitSet@2@@Z 004092d0 f i test.obj
 0001:000083a0       ?getBuildOrder@StarcraftSearch@BuildOrderSearch@@IAE?AV?$vector@EV?$allocator@E@std@@@std@@AAVStarcraftState@2@@Z 004093a0 f i test.obj
 0001:00008480       ??1?$set@V?$basic_string@DU?$char_traits@D@std@@V?$allocator@D@2@@std@@U?$less@V?$basic_string@DU?$char_traits@D@std@@V?$allocator@D@2@@std@@@2@V?$allocator@V?$basic_string@DU?$char_traits@D@std@@V?$allocator@D@2@@std@@@2@@std@@QAE@XZ 00409480 f i test.obj
 0001:000084d0       ??0DFBBStarcraftSearch@BuildOrderSearch@@QAE@VSearchParameters@1@@Z 004094d0 f i test.obj
 0001:00008650       ?search@DFBBStarcraftSearch@BuildOrderSearch@@UAE?AVSearchResults@2@XZ 00409650 f i test.obj
 0001:00008750       ?DFBB@DFBBStarcraftSearch@BuildOrderSearch@@QAEXAAVStarcraftState@2@H@Z 00409750 f i test.obj
 0001:00009240       ?calculateRelevantActions@DFBBStarcraftSearch@BuildOrderSearch@@QAE?AVBitSet@2@XZ 0040a240 f i test.obj
 0001:000093e0       ??1SearchParameters@BuildOrderSearch@@QAE@XZ 0040a3e0 f i test.obj
 0001:00009460       ??0SearchParameters@BuildOrderSearch@@QAE@ABV01@@Z 0040a460 f i test.obj
 0001:000095b0       ??1SearchResults@BuildOrderSearch@@QAE@XZ 0040a5b0 f i test.obj
 0001:000095e0       ??0SearchResults@BuildOrderSearch@@QAE@ABV01@@Z 0040a5e0 f i test.obj
 0001:00009660       ??4StarcraftState@BuildOrderSearch@@QAEAAV01@ABV01@@Z 0040a660 f i test.obj
 0001:00009810       ??4SearchResults@BuildOrderSearch@@QAEAAV01@ABV01@@Z 0040a810 f i test.obj
 0001:00009890       ?doSearch@SmartStarcraftSearch@BuildOrderSearch@@AAE?AVSearchResults@2@XZ 0040a890 f i test.obj
 0001:00009990       ?calculateSearchSettings@SmartStarcraftSearch@BuildOrderSearch@@AAEXXZ 0040a990 f i test.obj
 0001:00009a60       ?calculateRefineriesRequired@SmartStarcraftSearch@BuildOrderSearch@@AAEHXZ 0040aa60 f i test.obj
 0001:00009c40       ?setPrerequisiteGoalMax@SmartStarcraftSearch@BuildOrderSearch@@AAEXXZ 0040ac40 f i test.obj
 0001:0000a160       ?recurseOverStrictDependencies@SmartStarcraftSearch@BuildOrderSearch@@AAEXE@Z 0040b160 f i test.obj
 0001:0000a3a0       ?calculateSupplyProvidersRequired@SmartStarcraftSearch@BuildOrderSearch@@AAEHXZ 0040b3a0 f i test.obj
 0001:0000a7d0       ?setRepetitions@SmartStarcraftSearch@BuildOrderSearch@@AAEXXZ 0040b7d0 f i test.obj
 0001:0000aa20       ??0SmartStarcraftSearch@BuildOrderSearch@@QAE@XZ 0040ba20 f i test.obj
 0001:0000aaf0       ??1SmartStarcraftSearch@BuildOrderSearch@@QAE@XZ 0040baf0 f i test.obj
 0001:0000ab80       ?search@SmartStarcraftSearch@BuildOrderSearch@@QAE?AVSearchResults@2@XZ 0040bb80 f i test.obj
 0001:0000abc0       ??1DFBBStarcraftSearch@BuildOrderSearch@@QAE@XZ 0040bbc0 f i test.obj
 0001:0000ac70       ?testSmartSearch@@YAXXZ    0040bc70 f   test.obj
 0001:0000ae10       _main                      0040be10 f   test.obj
 0001:0000ae30       ??4?$vector@U?$pair@HH@std@@V?$allocator@U?$pair@HH@std@@@2@@std@@QAEAAV01@ABV01@@Z 0040be30 f i test.obj
 0001:0000ae30       ??4?$vector@VBitSet@BuildOrderSearch@@V?$allocator@VBitSet@BuildOrderSearch@@@std@@@std@@QAEAAV01@ABV01@@Z 0040be30 f i test.obj
 0001:0000af20       ??0?$vector@EV?$allocator@E@std@@@std@@QAE@ABV01@@Z 0040bf20 f i test.obj
 0001:0000aff0       ??4?$vector@EV?$allocator@E@std@@@std@@QAEAAV01@ABV01@@Z 0040bff0 f i test.obj
 0001:0000b100       ?push_back@?$vector@VStarcraftAction@BuildOrderSearch@@V?$allocator@VStarcraftAction@BuildOrderSearch@@@std@@@std@@QAEXABVStarcraftAction@BuildOrderSearch@@@Z 0040c100 f i test.obj
 0001:0000b1a0       ??0?$DependencyGraph@_N@BuildOrderSearch@@QAE@H@Z 0040c1a0 f i test.obj
 0001:0000b2e0       ?transitiveReduction@?$DependencyGraph@_N@BuildOrderSearch@@QAEXXZ 0040c2e0 f i test.obj
 0001:0000b780       ??4?$vector@V?$vector@_NV?$allocator@_N@std@@@std@@V?$allocator@V?$vector@_NV?$allocator@_N@std@@@std@@@2@@std@@QAEAAV01@ABV01@@Z 0040c780 f i test.obj
 0001:0000b8f0       ??0?$_Tree@V?$_Tmap_traits@VUnitType@BWAPI@@HU?$less@VUnitType@BWAPI@@@std@@V?$allocator@U?$pair@$$CBVUnitType@BWAPI@@H@std@@@4@$0A@@std@@@std@@QAE@ABV01@@Z 0040c8f0 f i test.obj
 0001:0000b9a0       ??1?$_Tree@V?$_Tmap_traits@VUnitType@BWAPI@@HU?$less@VUnitType@BWAPI@@@std@@V?$allocator@U?$pair@$$CBVUnitType@BWAPI@@H@std@@@4@$0A@@std@@@std@@QAE@XZ 0040c9a0 f i test.obj
 0001:0000b9a0       ??1?$map@VUnitType@BWAPI@@HU?$less@VUnitType@BWAPI@@@std@@V?$allocator@U?$pair@$$CBVUnitType@BWAPI@@H@std@@@4@@std@@QAE@XZ 0040c9a0 f i test.obj
 0001:0000b9f0       ??0?$vector@VBitSet@BuildOrderSearch@@V?$allocator@VBitSet@BuildOrderSearch@@@std@@@std@@QAE@XZ 0040c9f0 f i StarcraftData.obj
 0001:0000b9f0       ??0?$vector@VStarcraftState@BuildOrderSearch@@V?$allocator@VStarcraftState@BuildOrderSearch@@@std@@@std@@QAE@XZ 0040c9f0 f i test.obj
 0001:0000b9f0       ??0?$vector@VMacroAction@BuildOrderSearch@@V?$allocator@VMacroAction@BuildOrderSearch@@@std@@@std@@QAE@XZ 0040c9f0 f i StarcraftData.obj
 0001:0000b9f0       ??0?$vector@VStarcraftSearchConstraint@BuildOrderSearch@@V?$allocator@VStarcraftSearchConstraint@BuildOrderSearch@@@std@@@std@@QAE@XZ 0040c9f0 f i test.obj
 0001:0000b9f0       ??0?$vector@V?$vector@_NV?$allocator@_N@std@@@std@@V?$allocator@V?$vector@_NV?$allocator@_N@std@@@std@@@2@@std@@QAE@XZ 0040c9f0 f i StarcraftData.obj
 0001:0000b9f0       ??0?$vector@VStarcraftAction@BuildOrderSearch@@V?$allocator@VStarcraftAction@BuildOrderSearch@@@std@@@std@@QAE@XZ 0040c9f0 f i StarcraftData.obj
 0001:0000b9f0       ??0?$vector@EV?$allocator@E@std@@@std@@QAE@XZ 0040c9f0 f i test.obj
 0001:0000b9f0       ??0?$vector@U?$pair@HH@std@@V?$allocator@U?$pair@HH@std@@@2@@std@@QAE@XZ 0040c9f0 f i test.obj
 0001:0000ba50       ??0?$vector@VStarcraftSearchConstraint@BuildOrderSearch@@V?$allocator@VStarcraftSearchConstraint@BuildOrderSearch@@@std@@@std@@QAE@ABV01@@Z 0040ca50 f i test.obj
 0001:0000bb50       ??4?$vector@VStarcraftSearchConstraint@BuildOrderSearch@@V?$allocator@VStarcraftSearchConstraint@BuildOrderSearch@@@std@@@std@@QAEAAV01@ABV01@@Z 0040cb50 f i test.obj
 0001:0000bc90       ??0?$vector@U?$pair@HH@std@@V?$allocator@U?$pair@HH@std@@@2@@std@@QAE@ABV01@@Z 0040cc90 f i test.obj
 0001:0000bd80       ?push_back@?$vector@U?$pair@HH@std@@V?$allocator@U?$pair@HH@std@@@2@@std@@QAEXABU?$pair@HH@2@@Z 0040cd80 f i test.obj
 0001:0000bdf0       ??1?$vector@VStarcraftState@BuildOrderSearch@@V?$allocator@VStarcraftState@BuildOrderSearch@@@std@@@std@@QAE@XZ 0040cdf0 f i test.obj
 0001:0000be70       ?push_back@?$vector@VStarcraftState@BuildOrderSearch@@V?$allocator@VStarcraftState@BuildOrderSearch@@@std@@@std@@QAEXABVStarcraftState@BuildOrderSearch@@@Z 0040ce70 f i test.obj
 0001:0000bf10       ??1?$_Tree_val@V?$_Tmap_traits@VUnitType@BWAPI@@HU?$less@VUnitType@BWAPI@@@std@@V?$allocator@U?$pair@$$CBVUnitType@BWAPI@@H@std@@@4@$0A@@std@@@std@@QAE@XZ 0040cf10 f i test.obj
 0001:0000bf20       ??1?$_Container_base_aux_alloc_real@V?$allocator@_N@std@@@std@@IAE@XZ 0040cf20 f i StarcraftData.obj
 0001:0000bf20       ??1?$_Vector_val@VStarcraftAction@BuildOrderSearch@@V?$allocator@VStarcraftAction@BuildOrderSearch@@@std@@@std@@QAE@XZ 0040cf20 f i StarcraftData.obj
 0001:0000bf20       ??1?$_Tree_val@V?$_Tset_traits@U?$pair@V?$basic_string@DU?$char_traits@D@std@@V?$allocator@D@2@@std@@V12@@std@@U?$less@U?$pair@V?$basic_string@DU?$char_traits@D@std@@V?$allocator@D@2@@std@@V12@@std@@@2@V?$allocator@U?$pair@V?$basic_string@DU?$char_traits@D@std@@V?$allocator@D@2@@std@@V12@@std@@@2@$0A@@std@@@std@@QAE@XZ 0040cf20 f i test.obj
 0001:0000bf20       ??1?$_Vector_val@VStarcraftState@BuildOrderSearch@@V?$allocator@VStarcraftState@BuildOrderSearch@@@std@@@std@@QAE@XZ 0040cf20 f i test.obj
 0001:0000bf20       ??1?$_Vector_val@VBitSet@BuildOrderSearch@@V?$allocator@VBitSet@BuildOrderSearch@@@std@@@std@@QAE@XZ 0040cf20 f i StarcraftData.obj
 0001:0000bf20       ??1?$_Vector_val@VMacroAction@BuildOrderSearch@@V?$allocator@VMacroAction@BuildOrderSearch@@@std@@@std@@QAE@XZ 0040cf20 f i StarcraftData.obj
 0001:0000bf20       ??1?$_Vector_val@U?$pair@HH@std@@V?$allocator@U?$pair@HH@std@@@2@@std@@QAE@XZ 0040cf20 f i test.obj
 0001:0000bf20       ??1?$_Vector_val@HV?$allocator@H@std@@@std@@QAE@XZ 0040cf20 f i test.obj
 0001:0000bf20       ??1?$_Tree_val@V?$_Tset_traits@V?$basic_string@DU?$char_traits@D@std@@V?$allocator@D@2@@std@@U?$less@V?$basic_string@DU?$char_traits@D@std@@V?$allocator@D@2@@std@@@2@V?$allocator@V?$basic_string@DU?$char_traits@D@std@@V?$allocator@D@2@@std@@@2@$0A@@std@@@std@@QAE@XZ 0040cf20 f i test.obj
 0001:0000bf20       ??1?$_Vector_val@IV?$allocator@I@std@@@std@@QAE@XZ 0040cf20 f i StarcraftData.obj
 0001:0000bf20       ??1?$_Vector_val@V?$vector@_NV?$allocator@_N@std@@@std@@V?$allocator@V?$vector@_NV?$allocator@_N@std@@@std@@@2@@std@@QAE@XZ 0040cf20 f i StarcraftData.obj
 0001:0000bf20       ??1?$_Vector_val@EV?$allocator@E@std@@@std@@QAE@XZ 0040cf20 f i StarcraftData.obj
 0001:0000bf20       ??1?$_Vector_val@VStarcraftSearchConstraint@BuildOrderSearch@@V?$allocator@VStarcraftSearchConstraint@BuildOrderSearch@@@std@@@std@@QAE@XZ 0040cf20 f i test.obj
 0001:0000bf30       ??0?$vector@VBitSet@BuildOrderSearch@@V?$allocator@VBitSet@BuildOrderSearch@@@std@@@std@@QAE@I@Z 0040cf30 f i test.obj
 0001:0000bfa0       ?clear@?$vector@VBitSet@BuildOrderSearch@@V?$allocator@VBitSet@BuildOrderSearch@@@std@@@std@@QAEXXZ 0040cfa0 f i test.obj
 0001:0000bfa0       ?clear@?$vector@U?$pair@HH@std@@V?$allocator@U?$pair@HH@std@@@2@@std@@QAEXXZ 0040cfa0 f i test.obj
 0001:0000bff0       ?insert@?$vector@EV?$allocator@E@std@@@std@@QAE?AV?$_Vector_iterator@EV?$allocator@E@std@@@2@V?$_Vector_const_iterator@EV?$allocator@E@std@@@2@ABE@Z 0040cff0 f i test.obj
 0001:0000c0a0       ?clear@?$vector@EV?$allocator@E@std@@@std@@QAEXXZ 0040d0a0 f i test.obj
 0001:0000c0f0       ?_Ufill@?$vector@EV?$allocator@E@std@@@std@@IAEPAEPAEIABE@Z 0040d0f0 f i test.obj
 0001:0000c110       ?insert@?$vector@VStarcraftAction@BuildOrderSearch@@V?$allocator@VStarcraftAction@BuildOrderSearch@@@std@@@std@@QAE?AV?$_Vector_iterator@VStarcraftAction@BuildOrderSearch@@V?$allocator@VStarcraftAction@BuildOrderSearch@@@std@@@2@V?$_Vector_const_iterator@VStarcraftAction@BuildOrderSearch@@V?$allocator@VStarcraftAction@BuildOrderSearch@@@std@@@2@ABVStarcraftAction@BuildOrderSearch@@@Z 0040d110 f i test.obj
 0001:0000c1e0       ?_Ufill@?$vector@VStarcraftAction@BuildOrderSearch@@V?$allocator@VStarcraftAction@BuildOrderSearch@@@std@@@std@@IAEPAVStarcraftAction@BuildOrderSearch@@PAV34@IABV34@@Z 0040d1e0 f i test.obj
 0001:0000c210       ?insert@?$vector@VMacroAction@BuildOrderSearch@@V?$allocator@VMacroAction@BuildOrderSearch@@@std@@@std@@QAE?AV?$_Vector_iterator@VMacroAction@BuildOrderSearch@@V?$allocator@VMacroAction@BuildOrderSearch@@@std@@@2@V?$_Vector_const_iterator@VMacroAction@BuildOrderSearch@@V?$allocator@VMacroAction@BuildOrderSearch@@@std@@@2@ABVMacroAction@BuildOrderSearch@@@Z 0040d210 f i test.obj
 0001:0000c2d0       ?_Ufill@?$vector@VMacroAction@BuildOrderSearch@@V?$allocator@VMacroAction@BuildOrderSearch@@@std@@@std@@IAEPAVMacroAction@BuildOrderSearch@@PAV34@IABV34@@Z 0040d2d0 f i test.obj
 0001:0000c300       ?getDependency@?$DependencyGraph@_N@BuildOrderSearch@@AAE?AVBitSet@2@H@Z 0040d300 f i test.obj
 0001:0000c440       ??0?$vector@V?$vector@_NV?$allocator@_N@std@@@std@@V?$allocator@V?$vector@_NV?$allocator@_N@std@@@std@@@2@@std@@QAE@IABV?$vector@_NV?$allocator@_N@std@@@1@@Z 0040d440 f i test.obj
 0001:0000c4b0       ??0?$vector@V?$vector@_NV?$allocator@_N@std@@@std@@V?$allocator@V?$vector@_NV?$allocator@_N@std@@@std@@@2@@std@@QAE@ABV01@@Z 0040d4b0 f i test.obj
 0001:0000c5c0       ?clear@?$vector@V?$vector@_NV?$allocator@_N@std@@@std@@V?$allocator@V?$vector@_NV?$allocator@_N@std@@@std@@@2@@std@@QAEXXZ 0040d5c0 f i test.obj
 0001:0000c610       ?_Copy@?$_Tree@V?$_Tmap_traits@VUnitType@BWAPI@@HU?$less@VUnitType@BWAPI@@@std@@V?$allocator@U?$pair@$$CBVUnitType@BWAPI@@H@std@@@4@$0A@@std@@@std@@IAEXABV12@@Z 0040d610 f i test.obj
 0001:0000c680       ?_Tidy@?$_Tree@V?$_Tmap_traits@VUnitType@BWAPI@@HU?$less@VUnitType@BWAPI@@@std@@V?$allocator@U?$pair@$$CBVUnitType@BWAPI@@H@std@@@4@$0A@@std@@@std@@IAEXXZ 0040d680 f i test.obj
 0001:0000c6c0       ?clear@?$vector@VStarcraftSearchConstraint@BuildOrderSearch@@V?$allocator@VStarcraftSearchConstraint@BuildOrderSearch@@@std@@@std@@QAEXXZ 0040d6c0 f i test.obj
 0001:0000c710       ?_Buy@?$vector@VStarcraftSearchConstraint@BuildOrderSearch@@V?$allocator@VStarcraftSearchConstraint@BuildOrderSearch@@@std@@@std@@IAE_NI@Z 0040d710 f i test.obj
 0001:0000c740       ?_Tidy@?$vector@U?$pair@HH@std@@V?$allocator@U?$pair@HH@std@@@2@@std@@IAEXXZ 0040d740 f i test.obj
 0001:0000c740       ?_Tidy@?$vector@VBitSet@BuildOrderSearch@@V?$allocator@VBitSet@BuildOrderSearch@@@std@@@std@@IAEXXZ 0040d740 f i StarcraftData.obj
 0001:0000c740       ?_Tidy@?$vector@VStarcraftSearchConstraint@BuildOrderSearch@@V?$allocator@VStarcraftSearchConstraint@BuildOrderSearch@@@std@@@std@@IAEXXZ 0040d740 f i test.obj
 0001:0000c770       ?insert@?$vector@U?$pair@HH@std@@V?$allocator@U?$pair@HH@std@@@2@@std@@QAE?AV?$_Vector_iterator@U?$pair@HH@std@@V?$allocator@U?$pair@HH@std@@@2@@2@V?$_Vector_const_iterator@U?$pair@HH@std@@V?$allocator@U?$pair@HH@std@@@2@@2@ABU?$pair@HH@2@@Z 0040d770 f i test.obj
 0001:0000c820       ??0?$_Tree@V?$_Tset_traits@V?$basic_string@DU?$char_traits@D@std@@V?$allocator@D@2@@std@@U?$less@V?$basic_string@DU?$char_traits@D@std@@V?$allocator@D@2@@std@@@2@V?$allocator@V?$basic_string@DU?$char_traits@D@std@@V?$allocator@D@2@@std@@@2@$0A@@std@@@std@@QAE@ABU?$less@V?$basic_string@DU?$char_traits@D@std@@V?$allocator@D@2@@std@@@1@ABV?$allocator@V?$basic_string@DU?$char_traits@D@std@@V?$allocator@D@2@@std@@@1@@Z 0040d820 f i test.obj
 0001:0000c8a0       ?_Tidy@?$_Tree@V?$_Tset_traits@V?$basic_string@DU?$char_traits@D@std@@V?$allocator@D@2@@std@@U?$less@V?$basic_string@DU?$char_traits@D@std@@V?$allocator@D@2@@std@@@2@V?$allocator@V?$basic_string@DU?$char_traits@D@std@@V?$allocator@D@2@@std@@@2@$0A@@std@@@std@@IAEXXZ 0040d8a0 f i test.obj
 0001:0000c8e0       ??0?$_Tree@V?$_Tset_traits@U?$pair@V?$basic_string@DU?$char_traits@D@std@@V?$allocator@D@2@@std@@V12@@std@@U?$less@U?$pair@V?$basic_string@DU?$char_traits@D@std@@V?$allocator@D@2@@std@@V12@@std@@@2@V?$allocator@U?$pair@V?$basic_string@DU?$char_traits@D@std@@V?$allocator@D@2@@std@@V12@@std@@@2@$0A@@std@@@std@@QAE@ABU?$less@U?$pair@V?$basic_string@DU?$char_traits@D@std@@V?$allocator@D@2@@std@@V12@@std@@@1@ABV?$allocator@U?$pair@V?$basic_string@DU?$char_traits@D@std@@V?$allocator@D@2@@std@@V12@@std@@@1@@Z 0040d8e0 f i test.obj
 0001:0000c960       ?_Tidy@?$_Tree@V?$_Tset_traits@U?$pair@V?$basic_string@DU?$char_traits@D@std@@V?$allocator@D@2@@std@@V12@@std@@U?$less@U?$pair@V?$basic_string@DU?$char_traits@D@std@@V?$allocator@D@2@@std@@V12@@std@@@2@V?$allocator@U?$pair@V?$basic_string@DU?$char_traits@D@std@@V?$allocator@D@2@@std@@V12@@std@@@2@$0A@@std@@@std@@IAEXXZ 0040d960 f i test.obj
 0001:0000c9a0       ?insert@?$vector@VStarcraftState@BuildOrderSearch@@V?$allocator@VStarcraftState@BuildOrderSearch@@@std@@@std@@QAE?AV?$_Vector_iterator@VStarcraftState@BuildOrderSearch@@V?$allocator@VStarcraftState@BuildOrderSearch@@@std@@@2@V?$_Vector_const_iterator@VStarcraftState@BuildOrderSearch@@V?$allocator@VStarcraftState@BuildOrderSearch@@@std@@@2@ABVStarcraftState@BuildOrderSearch@@@Z 0040d9a0 f i test.obj
 0001:0000ca70       ?_Ufill@?$vector@VStarcraftState@BuildOrderSearch@@V?$allocator@VStarcraftState@BuildOrderSearch@@@std@@@std@@IAEPAVStarcraftState@BuildOrderSearch@@PAV34@IABV34@@Z 0040da70 f i test.obj
 0001:0000caa0       ??0sentry@?$basic_ostream@DU?$char_traits@D@std@@@std@@QAE@AAV12@@Z 0040daa0 f i test.obj
 0001:0000cb30       ??1sentry@?$basic_ostream@DU?$char_traits@D@std@@@std@@QAE@XZ 0040db30 f i test.obj
 0001:0000cba0       ??0?$vector@_NV?$allocator@_N@std@@@std@@QAE@I_N@Z 0040dba0 f i test.obj
 0001:0000cc20       ?_Construct_n@?$vector@VBitSet@BuildOrderSearch@@V?$allocator@VBitSet@BuildOrderSearch@@@std@@@std@@QAEXIABVBitSet@BuildOrderSearch@@@Z 0040dc20 f i test.obj
 0001:0000ccd0       ?erase@?$vector@VBitSet@BuildOrderSearch@@V?$allocator@VBitSet@BuildOrderSearch@@@std@@@std@@QAE?AV?$_Vector_iterator@VBitSet@BuildOrderSearch@@V?$allocator@VBitSet@BuildOrderSearch@@@std@@@2@V?$_Vector_const_iterator@VBitSet@BuildOrderSearch@@V?$allocator@VBitSet@BuildOrderSearch@@@std@@@2@0@Z 0040dcd0 f i test.obj
 0001:0000ccd0       ?erase@?$vector@U?$pair@HH@std@@V?$allocator@U?$pair@HH@std@@@2@@std@@QAE?AV?$_Vector_iterator@U?$pair@HH@std@@V?$allocator@U?$pair@HH@std@@@2@@2@V?$_Vector_const_iterator@U?$pair@HH@std@@V?$allocator@U?$pair@HH@std@@@2@@2@0@Z 0040dcd0 f i test.obj
 0001:0000cd70       ?erase@?$vector@EV?$allocator@E@std@@@std@@QAE?AV?$_Vector_iterator@EV?$allocator@E@std@@@2@V?$_Vector_const_iterator@EV?$allocator@E@std@@@2@0@Z 0040dd70 f i test.obj
 0001:0000ce00       ?_Insert_n@?$vector@EV?$allocator@E@std@@@std@@IAEXV?$_Vector_const_iterator@EV?$allocator@E@std@@@2@IABE@Z 0040de00 f i test.obj
 0001:0000cfa0       ?allocate@?$allocator@E@std@@QAEPAEI@Z 0040dfa0 f i test.obj
 0001:0000cff0       ?_Insert_n@?$vector@VStarcraftAction@BuildOrderSearch@@V?$allocator@VStarcraftAction@BuildOrderSearch@@@std@@@std@@IAEXV?$_Vector_const_iterator@VStarcraftAction@BuildOrderSearch@@V?$allocator@VStarcraftAction@BuildOrderSearch@@@std@@@2@IABVStarcraftAction@BuildOrderSearch@@@Z 0040dff0 f i test.obj
 0001:0000d3c0       ?_Insert_n@?$vector@VMacroAction@BuildOrderSearch@@V?$allocator@VMacroAction@BuildOrderSearch@@@std@@@std@@IAEXV?$_Vector_const_iterator@VMacroAction@BuildOrderSearch@@V?$allocator@VMacroAction@BuildOrderSearch@@@std@@@2@IABVMacroAction@BuildOrderSearch@@@Z 0040e3c0 f i test.obj
 0001:0000d670       ?_Construct_n@?$vector@V?$vector@_NV?$allocator@_N@std@@@std@@V?$allocator@V?$vector@_NV?$allocator@_N@std@@@std@@@2@@std@@QAEXIABV?$vector@_NV?$allocator@_N@std@@@2@@Z 0040e670 f i test.obj
 0001:0000d730       ?erase@?$vector@V?$vector@_NV?$allocator@_N@std@@@std@@V?$allocator@V?$vector@_NV?$allocator@_N@std@@@std@@@2@@std@@QAE?AV?$_Vector_iterator@V?$vector@_NV?$allocator@_N@std@@@std@@V?$allocator@V?$vector@_NV?$allocator@_N@std@@@std@@@2@@2@V?$_Vector_const_iterator@V?$vector@_NV?$allocator@_N@std@@@std@@V?$allocator@V?$vector@_NV?$allocator@_N@std@@@std@@@2@@2@0@Z 0040e730 f i test.obj
 0001:0000d7d0       ?erase@?$_Tree@V?$_Tmap_traits@VUnitType@BWAPI@@HU?$less@VUnitType@BWAPI@@@std@@V?$allocator@U?$pair@$$CBVUnitType@BWAPI@@H@std@@@4@$0A@@std@@@std@@QAE?AViterator@12@Vconst_iterator@12@0@Z 0040e7d0 f i test.obj
 0001:0000d8b0       ?_Copy@?$_Tree@V?$_Tmap_traits@VUnitType@BWAPI@@HU?$less@VUnitType@BWAPI@@@std@@V?$allocator@U?$pair@$$CBVUnitType@BWAPI@@H@std@@@4@$0A@@std@@@std@@IAEPAU_Node@?$_Tree_nod@V?$_Tmap_traits@VUnitType@BWAPI@@HU?$less@VUnitType@BWAPI@@@std@@V?$allocator@U?$pair@$$CBVUnitType@BWAPI@@H@std@@@4@$0A@@std@@@2@PAU342@0@Z 0040e8b0 f i test.obj
 0001:0000d970       ?_Max@?$_Tree@V?$_Tmap_traits@VUnitType@BWAPI@@HU?$less@VUnitType@BWAPI@@@std@@V?$allocator@U?$pair@$$CBVUnitType@BWAPI@@H@std@@@4@$0A@@std@@@std@@KAPAU_Node@?$_Tree_nod@V?$_Tmap_traits@VUnitType@BWAPI@@HU?$less@VUnitType@BWAPI@@@std@@V?$allocator@U?$pair@$$CBVUnitType@BWAPI@@H@std@@@4@$0A@@std@@@2@PAU342@@Z 0040e970 f i test.obj
 0001:0000d990       ?_Min@?$_Tree@V?$_Tmap_traits@VUnitType@BWAPI@@HU?$less@VUnitType@BWAPI@@@std@@V?$allocator@U?$pair@$$CBVUnitType@BWAPI@@H@std@@@4@$0A@@std@@@std@@KAPAU_Node@?$_Tree_nod@V?$_Tmap_traits@VUnitType@BWAPI@@HU?$less@VUnitType@BWAPI@@@std@@V?$allocator@U?$pair@$$CBVUnitType@BWAPI@@H@std@@@4@$0A@@std@@@2@PAU342@@Z 0040e990 f i test.obj
 0001:0000d9b0       ?_Buynode@?$_Tree@V?$_Tmap_traits@VUnitType@BWAPI@@HU?$less@VUnitType@BWAPI@@@std@@V?$allocator@U?$pair@$$CBVUnitType@BWAPI@@H@std@@@4@$0A@@std@@@std@@IAEPAU_Node@?$_Tree_nod@V?$_Tmap_traits@VUnitType@BWAPI@@HU?$less@VUnitType@BWAPI@@@std@@V?$allocator@U?$pair@$$CBVUnitType@BWAPI@@H@std@@@4@$0A@@std@@@2@XZ 0040e9b0 f i test.obj
 0001:0000d9f0       ?erase@?$vector@VStarcraftSearchConstraint@BuildOrderSearch@@V?$allocator@VStarcraftSearchConstraint@BuildOrderSearch@@@std@@@std@@QAE?AV?$_Vector_iterator@VStarcraftSearchConstraint@BuildOrderSearch@@V?$allocator@VStarcraftSearchConstraint@BuildOrderSearch@@@std@@@2@V?$_Vector_const_iterator@VStarcraftSearchConstraint@BuildOrderSearch@@V?$allocator@VStarcraftSearchConstraint@BuildOrderSearch@@@std@@@2@0@Z 0040e9f0 f i test.obj
 0001:0000dab0       ?allocate@?$allocator@VStarcraftSearchConstraint@BuildOrderSearch@@@std@@QAEPAVStarcraftSearchConstraint@BuildOrderSearch@@I@Z 0040eab0 f i test.obj
 0001:0000db10       ?_Insert_n@?$vector@U?$pair@HH@std@@V?$allocator@U?$pair@HH@std@@@2@@std@@IAEXV?$_Vector_const_iterator@U?$pair@HH@std@@V?$allocator@U?$pair@HH@std@@@2@@2@IABU?$pair@HH@2@@Z 0040eb10 f i test.obj
 0001:0000dd60       ?erase@?$_Tree@V?$_Tset_traits@V?$basic_string@DU?$char_traits@D@std@@V?$allocator@D@2@@std@@U?$less@V?$basic_string@DU?$char_traits@D@std@@V?$allocator@D@2@@std@@@2@V?$allocator@V?$basic_string@DU?$char_traits@D@std@@V?$allocator@D@2@@std@@@2@$0A@@std@@@std@@QAE?AViterator@12@Vconst_iterator@12@0@Z 0040ed60 f i test.obj
 0001:0000dea0       ?_Lrotate@?$_Tree@V?$_Tset_traits@V?$basic_string@DU?$char_traits@D@std@@V?$allocator@D@2@@std@@U?$less@V?$basic_string@DU?$char_traits@D@std@@V?$allocator@D@2@@std@@@2@V?$allocator@V?$basic_string@DU?$char_traits@D@std@@V?$allocator@D@2@@std@@@2@$0A@@std@@@std@@IAEXPAU_Node@?$_Tree_nod@V?$_Tset_traits@V?$basic_string@DU?$char_traits@D@std@@V?$allocator@D@2@@std@@U?$less@V?$basic_string@DU?$char_traits@D@std@@V?$allocator@D@2@@std@@@2@V?$allocator@V?$basic_string@DU?$char_traits@D@std@@V?$allocator@D@2@@std@@@2@$0A@@std@@@2@@Z 0040eea0 f i test.obj
 0001:0000df00       ?_Rrotate@?$_Tree@V?$_Tset_traits@V?$basic_string@DU?$char_traits@D@std@@V?$allocator@D@2@@std@@U?$less@V?$basic_string@DU?$char_traits@D@std@@V?$allocator@D@2@@std@@@2@V?$allocator@V?$basic_string@DU?$char_traits@D@std@@V?$allocator@D@2@@std@@@2@$0A@@std@@@std@@IAEXPAU_Node@?$_Tree_nod@V?$_Tset_traits@V?$basic_string@DU?$char_traits@D@std@@V?$allocator@D@2@@std@@U?$less@V?$basic_string@DU?$char_traits@D@std@@V?$allocator@D@2@@std@@@2@V?$allocator@V?$basic_string@DU?$char_traits@D@std@@V?$allocator@D@2@@std@@@2@$0A@@std@@@2@@Z 0040ef00 f i test.obj
 0001:0000df60       ?erase@?$_Tree@V?$_Tset_traits@U?$pair@V?$basic_string@DU?$char_traits@D@std@@V?$allocator@D@2@@std@@V12@@std@@U?$less@U?$pair@V?$basic_string@DU?$char_traits@D@std@@V?$allocator@D@2@@std@@V12@@std@@@2@V?$allocator@U?$pair@V?$basic_string@DU?$char_traits@D@std@@V?$allocator@D@2@@std@@V12@@std@@@2@$0A@@std@@@std@@QAE?AViterator@12@Vconst_iterator@12@0@Z 0040ef60 f i test.obj
 0001:0000e0a0       ?_Lrotate@?$_Tree@V?$_Tset_traits@U?$pair@V?$basic_string@DU?$char_traits@D@std@@V?$allocator@D@2@@std@@V12@@std@@U?$less@U?$pair@V?$basic_string@DU?$char_traits@D@std@@V?$allocator@D@2@@std@@V12@@std@@@2@V?$allocator@U?$pair@V?$basic_string@DU?$char_traits@D@std@@V?$allocator@D@2@@std@@V12@@std@@@2@$0A@@std@@@std@@IAEXPAU_Node@?$_Tree_nod@V?$_Tset_traits@U?$pair@V?$basic_string@DU?$char_traits@D@std@@V?$allocator@D@2@@std@@V12@@std@@U?$less@U?$pair@V?$basic_string@DU?$char_traits@D@std@@V?$allocator@D@2@@std@@V12@@std@@@2@V?$allocator@U?$pair@V?$basic_string@DU?$char_traits@D@std@@V?$allocator@D@2@@std@@V12@@std@@@2@$0A@@std@@@2@@Z 0040f0a0 f i test.obj
 0001:0000e100       ?_Rrotate@?$_Tree@V?$_Tset_traits@U?$pair@V?$basic_string@DU?$char_traits@D@std@@V?$allocator@D@2@@std@@V12@@std@@U?$less@U?$pair@V?$basic_string@DU?$char_traits@D@std@@V?$allocator@D@2@@std@@V12@@std@@@2@V?$allocator@U?$pair@V?$basic_string@DU?$char_traits@D@std@@V?$allocator@D@2@@std@@V12@@std@@@2@$0A@@std@@@std@@IAEXPAU_Node@?$_Tree_nod@V?$_Tset_traits@U?$pair@V?$basic_string@DU?$char_traits@D@std@@V?$allocator@D@2@@std@@V12@@std@@U?$less@U?$pair@V?$basic_string@DU?$char_traits@D@std@@V?$allocator@D@2@@std@@V12@@std@@@2@V?$allocator@U?$pair@V?$basic_string@DU?$char_traits@D@std@@V?$allocator@D@2@@std@@V12@@std@@@2@$0A@@std@@@2@@Z 0040f100 f i test.obj
 0001:0000e160       ?_Destroy@?$vector@VStarcraftState@BuildOrderSearch@@V?$allocator@VStarcraftState@BuildOrderSearch@@@std@@@std@@IAEXPAVStarcraftState@BuildOrderSearch@@0@Z 0040f160 f i test.obj
 0001:0000e180       ?_Insert_n@?$vector@VStarcraftState@BuildOrderSearch@@V?$allocator@VStarcraftState@BuildOrderSearch@@@std@@@std@@IAEXV?$_Vector_const_iterator@VStarcraftState@BuildOrderSearch@@V?$allocator@VStarcraftState@BuildOrderSearch@@@std@@@2@IABVStarcraftState@BuildOrderSearch@@@Z 0040f180 f i test.obj
 0001:0000e570       ?_Xlen@?$vector@VStarcraftSearchConstraint@BuildOrderSearch@@V?$allocator@VStarcraftSearchConstraint@BuildOrderSearch@@@std@@@std@@KAXXZ 0040f570 f i test.obj
 0001:0000e570       ?_Xlen@?$vector@HV?$allocator@H@std@@@std@@KAXXZ 0040f570 f i test.obj
 0001:0000e570       ?_Xlen@?$vector@VStarcraftState@BuildOrderSearch@@V?$allocator@VStarcraftState@BuildOrderSearch@@@std@@@std@@KAXXZ 0040f570 f i test.obj
 0001:0000e570       ?_Xlen@?$vector@IV?$allocator@I@std@@@std@@KAXXZ 0040f570 f i test.obj
 0001:0000e5f0       ?allocate@?$allocator@VStarcraftState@BuildOrderSearch@@@std@@QAEPAVStarcraftState@BuildOrderSearch@@I@Z 0040f5f0 f i test.obj
 0001:0000e650       ??1_Sentry_base@?$basic_ostream@DU?$char_traits@D@std@@@std@@QAE@XZ 0040f650 f i test.obj
 0001:0000e670       ?_Trim@?$vector@_NV?$allocator@_N@std@@@std@@IAEXI@Z 0040f670 f i test.obj
 0001:0000e760       ??0?$vector@IV?$allocator@I@std@@@std@@QAE@IABI@Z 0040f760 f i test.obj
 0001:0000e7d0       ??0StarcraftAction@BuildOrderSearch@@QAE@ABV01@@Z 0040f7d0 f i test.obj
 0001:0000e8e0       ?erase@?$_Tree@V?$_Tmap_traits@VUnitType@BWAPI@@HU?$less@VUnitType@BWAPI@@@std@@V?$allocator@U?$pair@$$CBVUnitType@BWAPI@@H@std@@@4@$0A@@std@@@std@@QAE?AViterator@12@Vconst_iterator@12@@Z 0040f8e0 f i test.obj
 0001:0000ebd0       ?_Erase@?$_Tree@V?$_Tmap_traits@VUnitType@BWAPI@@HU?$less@VUnitType@BWAPI@@@std@@V?$allocator@U?$pair@$$CBVUnitType@BWAPI@@H@std@@@4@$0A@@std@@@std@@IAEXPAU_Node@?$_Tree_nod@V?$_Tmap_traits@VUnitType@BWAPI@@HU?$less@VUnitType@BWAPI@@@std@@V?$allocator@U?$pair@$$CBVUnitType@BWAPI@@H@std@@@4@$0A@@std@@@2@@Z 0040fbd0 f i test.obj
 0001:0000ec10       ?_Buynode@?$_Tree@V?$_Tmap_traits@VUnitType@BWAPI@@HU?$less@VUnitType@BWAPI@@@std@@V?$allocator@U?$pair@$$CBVUnitType@BWAPI@@H@std@@@4@$0A@@std@@@std@@IAEPAU_Node@?$_Tree_nod@V?$_Tmap_traits@VUnitType@BWAPI@@HU?$less@VUnitType@BWAPI@@@std@@V?$allocator@U?$pair@$$CBVUnitType@BWAPI@@H@std@@@4@$0A@@std@@@2@PAU342@00ABU?$pair@$$CBVUnitType@BWAPI@@H@2@D@Z 0040fc10 f i test.obj
 0001:0000ec50       ?_Inc@const_iterator@?$_Tree@V?$_Tmap_traits@VUnitType@BWAPI@@HU?$less@VUnitType@BWAPI@@@std@@V?$allocator@U?$pair@$$CBVUnitType@BWAPI@@H@std@@@4@$0A@@std@@@std@@QAEXXZ 0040fc50 f i test.obj
 0001:0000ecc0       ?erase@?$_Tree@V?$_Tset_traits@V?$basic_string@DU?$char_traits@D@std@@V?$allocator@D@2@@std@@U?$less@V?$basic_string@DU?$char_traits@D@std@@V?$allocator@D@2@@std@@@2@V?$allocator@V?$basic_string@DU?$char_traits@D@std@@V?$allocator@D@2@@std@@@2@$0A@@std@@@std@@QAE?AViterator@12@Vconst_iterator@12@@Z 0040fcc0 f i test.obj
 0001:0000efd0       ?_Buynode@?$_Tree@V?$_Tset_traits@V?$basic_string@DU?$char_traits@D@std@@V?$allocator@D@2@@std@@U?$less@V?$basic_string@DU?$char_traits@D@std@@V?$allocator@D@2@@std@@@2@V?$allocator@V?$basic_string@DU?$char_traits@D@std@@V?$allocator@D@2@@std@@@2@$0A@@std@@@std@@IAEPAU_Node@?$_Tree_nod@V?$_Tset_traits@V?$basic_string@DU?$char_traits@D@std@@V?$allocator@D@2@@std@@U?$less@V?$basic_string@DU?$char_traits@D@std@@V?$allocator@D@2@@std@@@2@V?$allocator@V?$basic_string@DU?$char_traits@D@std@@V?$allocator@D@2@@std@@@2@$0A@@std@@@2@XZ 0040ffd0 f i test.obj
 0001:0000f010       ?erase@?$_Tree@V?$_Tset_traits@U?$pair@V?$basic_string@DU?$char_traits@D@std@@V?$allocator@D@2@@std@@V12@@std@@U?$less@U?$pair@V?$basic_string@DU?$char_traits@D@std@@V?$allocator@D@2@@std@@V12@@std@@@2@V?$allocator@U?$pair@V?$basic_string@DU?$char_traits@D@std@@V?$allocator@D@2@@std@@V12@@std@@@2@$0A@@std@@@std@@QAE?AViterator@12@Vconst_iterator@12@@Z 00410010 f i test.obj
 0001:0000f330       ?_Buynode@?$_Tree@V?$_Tset_traits@U?$pair@V?$basic_string@DU?$char_traits@D@std@@V?$allocator@D@2@@std@@V12@@std@@U?$less@U?$pair@V?$basic_string@DU?$char_traits@D@std@@V?$allocator@D@2@@std@@V12@@std@@@2@V?$allocator@U?$pair@V?$basic_string@DU?$char_traits@D@std@@V?$allocator@D@2@@std@@V12@@std@@@2@$0A@@std@@@std@@IAEPAU_Node@?$_Tree_nod@V?$_Tset_traits@U?$pair@V?$basic_string@DU?$char_traits@D@std@@V?$allocator@D@2@@std@@V12@@std@@U?$less@U?$pair@V?$basic_string@DU?$char_traits@D@std@@V?$allocator@D@2@@std@@V12@@std@@@2@V?$allocator@U?$pair@V?$basic_string@DU?$char_traits@D@std@@V?$allocator@D@2@@std@@V12@@std@@@2@$0A@@std@@@2@XZ 00410330 f i test.obj
 0001:0000f370       ?_Xlen@?$vector@_NV?$allocator@_N@std@@@std@@IBEXXZ 00410370 f i test.obj
 0001:0000f3f0       ?_Construct_n@?$vector@IV?$allocator@I@std@@@std@@QAEXIABI@Z 004103f0 f i test.obj
 0001:0000f3f0       ?_Construct_n@?$vector@HV?$allocator@H@std@@@std@@QAEXIABH@Z 004103f0 f i test.obj
 0001:0000f450       ?erase@?$vector@IV?$allocator@I@std@@@std@@QAE?AV?$_Vector_iterator@IV?$allocator@I@std@@@2@V?$_Vector_const_iterator@IV?$allocator@I@std@@@2@0@Z 00410450 f i test.obj
 0001:0000f4f0       ?_Lrotate@?$_Tree@V?$_Tmap_traits@VUnitType@BWAPI@@HU?$less@VUnitType@BWAPI@@@std@@V?$allocator@U?$pair@$$CBVUnitType@BWAPI@@H@std@@@4@$0A@@std@@@std@@IAEXPAU_Node@?$_Tree_nod@V?$_Tmap_traits@VUnitType@BWAPI@@HU?$less@VUnitType@BWAPI@@@std@@V?$allocator@U?$pair@$$CBVUnitType@BWAPI@@H@std@@@4@$0A@@std@@@2@@Z 004104f0 f i test.obj
 0001:0000f550       ?_Rrotate@?$_Tree@V?$_Tmap_traits@VUnitType@BWAPI@@HU?$less@VUnitType@BWAPI@@@std@@V?$allocator@U?$pair@$$CBVUnitType@BWAPI@@H@std@@@4@$0A@@std@@@std@@IAEXPAU_Node@?$_Tree_nod@V?$_Tmap_traits@VUnitType@BWAPI@@HU?$less@VUnitType@BWAPI@@@std@@V?$allocator@U?$pair@$$CBVUnitType@BWAPI@@H@std@@@4@$0A@@std@@@2@@Z 00410550 f i test.obj
 0001:0000f5b0       ?_Erase@?$_Tree@V?$_Tset_traits@V?$basic_string@DU?$char_traits@D@std@@V?$allocator@D@2@@std@@U?$less@V?$basic_string@DU?$char_traits@D@std@@V?$allocator@D@2@@std@@@2@V?$allocator@V?$basic_string@DU?$char_traits@D@std@@V?$allocator@D@2@@std@@@2@$0A@@std@@@std@@IAEXPAU_Node@?$_Tree_nod@V?$_Tset_traits@V?$basic_string@DU?$char_traits@D@std@@V?$allocator@D@2@@std@@U?$less@V?$basic_string@DU?$char_traits@D@std@@V?$allocator@D@2@@std@@@2@V?$allocator@V?$basic_string@DU?$char_traits@D@std@@V?$allocator@D@2@@std@@@2@$0A@@std@@@2@@Z 004105b0 f i test.obj
 0001:0000f600       ?_Erase@?$_Tree@V?$_Tset_traits@U?$pair@V?$basic_string@DU?$char_traits@D@std@@V?$allocator@D@2@@std@@V12@@std@@U?$less@U?$pair@V?$basic_string@DU?$char_traits@D@std@@V?$allocator@D@2@@std@@V12@@std@@@2@V?$allocator@U?$pair@V?$basic_string@DU?$char_traits@D@std@@V?$allocator@D@2@@std@@V12@@std@@@2@$0A@@std@@@std@@IAEXPAU_Node@?$_Tree_nod@V?$_Tset_traits@U?$pair@V?$basic_string@DU?$char_traits@D@std@@V?$allocator@D@2@@std@@V12@@std@@U?$less@U?$pair@V?$basic_string@DU?$char_traits@D@std@@V?$allocator@D@2@@std@@V12@@std@@@2@V?$allocator@U?$pair@V?$basic_string@DU?$char_traits@D@std@@V?$allocator@D@2@@std@@V12@@std@@@2@$0A@@std@@@2@@Z 00410600 f i test.obj
 0001:0000f690       ?_Buy@?$vector@IV?$allocator@I@std@@@std@@IAE_NI@Z 00410690 f i test.obj
 0001:0000f6d0       ??Y?$_Vb_const_iterator@IHV?$vector@_NV?$allocator@_N@std@@@std@@@std@@QAEAAV01@H@Z 004106d0 f i test.obj
 0001:0000f7d0       ?_Inc@const_iterator@?$_Tree@V?$_Tset_traits@V?$basic_string@DU?$char_traits@D@std@@V?$allocator@D@2@@std@@U?$less@V?$basic_string@DU?$char_traits@D@std@@V?$allocator@D@2@@std@@@2@V?$allocator@V?$basic_string@DU?$char_traits@D@std@@V?$allocator@D@2@@std@@@2@$0A@@std@@@std@@QAEXXZ 004107d0 f i test.obj
 0001:0000f840       ?_Inc@const_iterator@?$_Tree@V?$_Tset_traits@U?$pair@V?$basic_string@DU?$char_traits@D@std@@V?$allocator@D@2@@std@@V12@@std@@U?$less@U?$pair@V?$basic_string@DU?$char_traits@D@std@@V?$allocator@D@2@@std@@V12@@std@@@2@V?$allocator@U?$pair@V?$basic_string@DU?$char_traits@D@std@@V?$allocator@D@2@@std@@V12@@std@@@2@$0A@@std@@@std@@QAEXXZ 00410840 f i test.obj
 0001:0000f8b0       ?allocate@?$allocator@I@std@@QAEPAII@Z 004108b0 f i test.obj
 0001:0000f8b0       ?allocate@?$allocator@H@std@@QAEPAHI@Z 004108b0 f i test.obj
 0001:0000f910       ??$?6U?$char_traits@D@std@@@std@@YAAAV?$basic_ostream@DU?$char_traits@D@std@@@0@AAV10@PBD@Z 00410910 f i test.obj
 0001:0000fad0       ??$?6U?$char_traits@D@std@@@std@@YAAAV?$basic_ostream@DU?$char_traits@D@std@@@0@AAV10@D@Z 00410ad0 f i test.obj
 0001:0000fc70       ??$unchecked_copy@PAU?$pair@HH@std@@PAU12@@stdext@@YAPAU?$pair@HH@std@@PAU12@00@Z 00410c70 f i test.obj
 0001:0000fc70       ??$unchecked_copy@PAVBitSet@BuildOrderSearch@@PAV12@@stdext@@YAPAVBitSet@BuildOrderSearch@@PAV12@00@Z 00410c70 f i test.obj
 0001:0000fca0       ??$_Ucopy@PAU?$pair@HH@std@@@?$vector@U?$pair@HH@std@@V?$allocator@U?$pair@HH@std@@@2@@std@@IAEPAU?$pair@HH@1@PAU21@00@Z 00410ca0 f i test.obj
 0001:0000fca0       ??$_Ucopy@PAVBitSet@BuildOrderSearch@@@?$vector@VBitSet@BuildOrderSearch@@V?$allocator@VBitSet@BuildOrderSearch@@@std@@@std@@IAEPAVBitSet@BuildOrderSearch@@PAV23@00@Z 00410ca0 f i test.obj
 0001:0000fca0       ??$_Umove@PAU?$pair@HH@std@@@?$vector@U?$pair@HH@std@@V?$allocator@U?$pair@HH@std@@@2@@std@@IAEPAU?$pair@HH@1@PAU21@00@Z 00410ca0 f i test.obj
 0001:0000fcd0       ??$_Ucopy@V?$_Vector_const_iterator@EV?$allocator@E@std@@@std@@@?$vector@EV?$allocator@E@std@@@std@@IAEPAEV?$_Vector_const_iterator@EV?$allocator@E@std@@@1@0PAE@Z 00410cd0 f i test.obj
 0001:0000fd00       ??$_Ucopy@PAE@?$vector@EV?$allocator@E@std@@@std@@IAEPAEPAE00@Z 00410d00 f i test.obj
 0001:0000fd20       ??$unchecked_copy@PAV?$vector@_NV?$allocator@_N@std@@@std@@PAV12@@stdext@@YAPAV?$vector@_NV?$allocator@_N@std@@@std@@PAV12@00@Z 00410d20 f i test.obj
 0001:0000fd50       ??$_Ucopy@PAV?$vector@_NV?$allocator@_N@std@@@std@@@?$vector@V?$vector@_NV?$allocator@_N@std@@@std@@V?$allocator@V?$vector@_NV?$allocator@_N@std@@@std@@@2@@std@@IAEPAV?$vector@_NV?$allocator@_N@std@@@1@PAV21@00@Z 00410d50 f i test.obj
 0001:0000fd80       ??$unchecked_copy@PAVStarcraftSearchConstraint@BuildOrderSearch@@PAV12@@stdext@@YAPAVStarcraftSearchConstraint@BuildOrderSearch@@PAV12@00@Z 00410d80 f i test.obj
 0001:0000fdd0       ??$_Ucopy@PAVStarcraftSearchConstraint@BuildOrderSearch@@@?$vector@VStarcraftSearchConstraint@BuildOrderSearch@@V?$allocator@VStarcraftSearchConstraint@BuildOrderSearch@@@std@@@std@@IAEPAVStarcraftSearchConstraint@BuildOrderSearch@@PAV23@00@Z 00410dd0 f i test.obj
 0001:0000fe00       ??$_Ucopy@V?$_Vector_const_iterator@U?$pair@HH@std@@V?$allocator@U?$pair@HH@std@@@2@@std@@@?$vector@U?$pair@HH@std@@V?$allocator@U?$pair@HH@std@@@2@@std@@IAEPAU?$pair@HH@1@V?$_Vector_const_iterator@U?$pair@HH@std@@V?$allocator@U?$pair@HH@std@@@2@@1@0PAU21@@Z 00410e00 f i test.obj
 0001:0000fe30       ??$_Umove@PAVStarcraftAction@BuildOrderSearch@@@?$vector@VStarcraftAction@BuildOrderSearch@@V?$allocator@VStarcraftAction@BuildOrderSearch@@@std@@@std@@IAEPAVStarcraftAction@BuildOrderSearch@@PAV23@00@Z 00410e30 f i test.obj
 0001:0000fe60       ??$fill@PAVStarcraftAction@BuildOrderSearch@@V12@@std@@YAXPAVStarcraftAction@BuildOrderSearch@@0ABV12@@Z 00410e60 f i test.obj
 0001:0000fe90       ??$_Umove@PAVMacroAction@BuildOrderSearch@@@?$vector@VMacroAction@BuildOrderSearch@@V?$allocator@VMacroAction@BuildOrderSearch@@@std@@@std@@IAEPAVMacroAction@BuildOrderSearch@@PAV23@00@Z 00410e90 f i test.obj
 0001:0000fec0       ??$fill@PAVMacroAction@BuildOrderSearch@@V12@@std@@YAXPAVMacroAction@BuildOrderSearch@@0ABV12@@Z 00410ec0 f i test.obj
 0001:0000fef0       ??$_Unchecked_move_backward@PAVMacroAction@BuildOrderSearch@@PAV12@@stdext@@YAPAVMacroAction@BuildOrderSearch@@PAV12@00@Z 00410ef0 f i test.obj
 0001:0000ff30       ??$_Unchecked_move_backward@PAU?$pair@HH@std@@PAU12@@stdext@@YAPAU?$pair@HH@std@@PAU12@00@Z 00410f30 f i test.obj
 0001:0000ff70       ??$_Umove@PAVStarcraftState@BuildOrderSearch@@@?$vector@VStarcraftState@BuildOrderSearch@@V?$allocator@VStarcraftState@BuildOrderSearch@@@std@@@std@@IAEPAVStarcraftState@BuildOrderSearch@@PAV23@00@Z 00410f70 f i test.obj
 0001:0000ffa0       ??$unchecked_copy@PAIPAI@stdext@@YAPAIPAI00@Z 00410fa0 f i test.obj
 0001:0000ffd0       ??$_Sort@PAVActionInProgress@BuildOrderSearch@@H@std@@YAXPAVActionInProgress@BuildOrderSearch@@0H@Z 00410fd0 f i test.obj
 0001:000100a0       ??$_Copy_opt@PAV?$vector@_NV?$allocator@_N@std@@@std@@PAV12@@std@@YAPAV?$vector@_NV?$allocator@_N@std@@@0@PAV10@00Urandom_access_iterator_tag@0@U_Nonscalar_ptr_iterator_tag@0@U_Range_checked_iterator_tag@0@@Z 004110a0 f i test.obj
 0001:00010110       ??$_Uninit_fill_n@PAVStarcraftAction@BuildOrderSearch@@IV12@V?$allocator@VStarcraftAction@BuildOrderSearch@@@std@@@std@@YAXPAVStarcraftAction@BuildOrderSearch@@IABV12@AAV?$allocator@VStarcraftAction@BuildOrderSearch@@@0@U_Nonscalar_ptr_iterator_tag@0@U_Range_checked_iterator_tag@0@@Z 00411110 f i test.obj
 0001:000101b0       ??$_Uninit_fill_n@PAVMacroAction@BuildOrderSearch@@IV12@V?$allocator@VMacroAction@BuildOrderSearch@@@std@@@std@@YAXPAVMacroAction@BuildOrderSearch@@IABV12@AAV?$allocator@VMacroAction@BuildOrderSearch@@@0@U_Nonscalar_ptr_iterator_tag@0@U_Range_checked_iterator_tag@0@@Z 004111b0 f i test.obj
 0001:00010250       ??$_Uninit_fill_n@PAVStarcraftState@BuildOrderSearch@@IV12@V?$allocator@VStarcraftState@BuildOrderSearch@@@std@@@std@@YAXPAVStarcraftState@BuildOrderSearch@@IABV12@AAV?$allocator@VStarcraftState@BuildOrderSearch@@@0@U_Nonscalar_ptr_iterator_tag@0@U_Range_checked_iterator_tag@0@@Z 00411250 f i test.obj
 0001:000102f0       ??$_Destroy_range@V?$allocator@VStarcraftState@BuildOrderSearch@@@std@@@std@@YAXPAVStarcraftState@BuildOrderSearch@@0AAV?$allocator@VStarcraftState@BuildOrderSearch@@@0@U_Nonscalar_ptr_iterator_tag@0@@Z 004112f0 f i test.obj
 0001:00010360       ??$_Uninit_fill_n@PAVBitSet@BuildOrderSearch@@IV12@V?$allocator@VBitSet@BuildOrderSearch@@@std@@@std@@YAXPAVBitSet@BuildOrderSearch@@IABV12@AAV?$allocator@VBitSet@BuildOrderSearch@@@0@U_Nonscalar_ptr_iterator_tag@0@U_Range_checked_iterator_tag@0@@Z 00411360 f i test.obj
 0001:00010360       ??$_Uninit_fill_n@PAU?$pair@HH@std@@IU12@V?$allocator@U?$pair@HH@std@@@2@@std@@YAXPAU?$pair@HH@0@IABU10@AAV?$allocator@U?$pair@HH@std@@@0@U_Nonscalar_ptr_iterator_tag@0@U_Range_checked_iterator_tag@0@@Z 00411360 f i test.obj
 0001:00010380       ??$_Uninit_fill_n@PAV?$vector@_NV?$allocator@_N@std@@@std@@IV12@V?$allocator@V?$vector@_NV?$allocator@_N@std@@@std@@@2@@std@@YAXPAV?$vector@_NV?$allocator@_N@std@@@0@IABV10@AAV?$allocator@V?$vector@_NV?$allocator@_N@std@@@std@@@0@U_Nonscalar_ptr_iterator_tag@0@U_Range_checked_iterator_tag@0@@Z 00411380 f i test.obj
 0001:00010440       ??4StarcraftAction@BuildOrderSearch@@QAEAAV01@ABV01@@Z 00411440 f i test.obj
 0001:00010510       ??$_Unguarded_partition@PAVActionInProgress@BuildOrderSearch@@@std@@YA?AU?$pair@PAVActionInProgress@BuildOrderSearch@@PAV12@@0@PAVActionInProgress@BuildOrderSearch@@0@Z 00411510 f i test.obj
 0001:00010710       ??$_Uninit_copy@PBU?$pair@HH@std@@PAU12@V?$allocator@U?$pair@HH@std@@@2@@std@@YAPAU?$pair@HH@0@PBU10@0PAU10@AAV?$allocator@U?$pair@HH@std@@@0@U_Nonscalar_ptr_iterator_tag@0@U_Range_checked_iterator_tag@0@@Z 00411710 f i test.obj
 0001:00010710       ??$_Uninit_copy@PAU?$pair@HH@std@@PAU12@V?$allocator@U?$pair@HH@std@@@2@@std@@YAPAU?$pair@HH@0@PAU10@00AAV?$allocator@U?$pair@HH@std@@@0@U_Nonscalar_ptr_iterator_tag@0@U_Range_checked_iterator_tag@0@@Z 00411710 f i test.obj
 0001:00010710       ??$_Uninit_copy@PAVBitSet@BuildOrderSearch@@PAV12@V?$allocator@VBitSet@BuildOrderSearch@@@std@@@std@@YAPAVBitSet@BuildOrderSearch@@PAV12@00AAV?$allocator@VBitSet@BuildOrderSearch@@@0@U_Nonscalar_ptr_iterator_tag@0@U_Range_checked_iterator_tag@0@@Z 00411710 f i test.obj
 0001:00010730       ??$_Uninit_copy@PAVStarcraftSearchConstraint@BuildOrderSearch@@PAV12@V?$allocator@VStarcraftSearchConstraint@BuildOrderSearch@@@std@@@std@@YAPAVStarcraftSearchConstraint@BuildOrderSearch@@PAV12@00AAV?$allocator@VStarcraftSearchConstraint@BuildOrderSearch@@@0@U_Nonscalar_ptr_iterator_tag@0@U_Range_checked_iterator_tag@0@@Z 00411730 f i test.obj
 0001:00010730       ??$_Uninit_copy@PBVStarcraftSearchConstraint@BuildOrderSearch@@PAV12@V?$allocator@VStarcraftSearchConstraint@BuildOrderSearch@@@std@@@std@@YAPAVStarcraftSearchConstraint@BuildOrderSearch@@PBV12@0PAV12@AAV?$allocator@VStarcraftSearchConstraint@BuildOrderSearch@@@0@U_Nonscalar_ptr_iterator_tag@0@U_Range_checked_iterator_tag@0@@Z 00411730 f i test.obj
 0001:00010760       ??$_Uninit_copy@PAV?$vector@_NV?$allocator@_N@std@@@std@@PAV12@V?$allocator@V?$vector@_NV?$allocator@_N@std@@@std@@@2@@std@@YAPAV?$vector@_NV?$allocator@_N@std@@@0@PAV10@00AAV?$allocator@V?$vector@_NV?$allocator@_N@std@@@std@@@0@U_Nonscalar_ptr_iterator_tag@0@U_Range_checked_iterator_tag@0@@Z 00411760 f i test.obj
 0001:00010760       ??$_Uninit_copy@PBV?$vector@_NV?$allocator@_N@std@@@std@@PAV12@V?$allocator@V?$vector@_NV?$allocator@_N@std@@@std@@@2@@std@@YAPAV?$vector@_NV?$allocator@_N@std@@@0@PBV10@0PAV10@AAV?$allocator@V?$vector@_NV?$allocator@_N@std@@@std@@@0@U_Nonscalar_ptr_iterator_tag@0@U_Range_checked_iterator_tag@0@@Z 00411760 f i test.obj
 0001:00010820       ??$_Copy_backward_opt@PAVStarcraftAction@BuildOrderSearch@@PAV12@@std@@YAPAVStarcraftAction@BuildOrderSearch@@PAV12@00Urandom_access_iterator_tag@0@U_Nonscalar_ptr_iterator_tag@0@U_Range_checked_iterator_tag@0@@Z 00411820 f i test.obj
 0001:00010880       ??$_Copy_backward_opt@PAVStarcraftState@BuildOrderSearch@@PAV12@@std@@YAPAVStarcraftState@BuildOrderSearch@@PAV12@00Urandom_access_iterator_tag@0@U_Nonscalar_ptr_iterator_tag@0@U_Range_checked_iterator_tag@0@@Z 00411880 f i test.obj
 0001:000108e0       ??4?$vector@IV?$allocator@I@std@@@std@@QAEAAV01@ABV01@@Z 004118e0 f i test.obj
 0001:000109d0       ??0?$vector@IV?$allocator@I@std@@@std@@QAE@ABV01@@Z 004119d0 f i test.obj
 0001:00010ab0       ?clear@?$vector@IV?$allocator@I@std@@@std@@QAEXXZ 00411ab0 f i test.obj
 0001:00010b00       ??$_Median@PAVActionInProgress@BuildOrderSearch@@@std@@YAXPAVActionInProgress@BuildOrderSearch@@00@Z 00411b00 f i test.obj
 0001:00010b70       ??$_Make_heap@PAVActionInProgress@BuildOrderSearch@@HV12@@std@@YAXPAVActionInProgress@BuildOrderSearch@@0PAH0@Z 00411b70 f i test.obj
 0001:00010bc0       ??$_Sort_heap@PAVActionInProgress@BuildOrderSearch@@@std@@YAXPAVActionInProgress@BuildOrderSearch@@0@Z 00411bc0 f i test.obj
 0001:00010c10       ??$_Insertion_sort1@PAVActionInProgress@BuildOrderSearch@@V12@@std@@YAXPAVActionInProgress@BuildOrderSearch@@00@Z 00411c10 f i test.obj
 0001:00010c90       ??$_Copy_backward_opt@PAVMacroAction@BuildOrderSearch@@PAV12@Uforward_iterator_tag@std@@@std@@YAPAVMacroAction@BuildOrderSearch@@PAV12@00Uforward_iterator_tag@0@U_Nonscalar_ptr_iterator_tag@0@U_Range_checked_iterator_tag@0@@Z 00411c90 f i test.obj
 0001:00010ce0       ??$_Ucopy@PAI@?$vector@IV?$allocator@I@std@@@std@@IAEPAIPAI00@Z 00411ce0 f i test.obj
 0001:00010d10       ??$_Med3@PAVActionInProgress@BuildOrderSearch@@@std@@YAXPAVActionInProgress@BuildOrderSearch@@00@Z 00411d10 f i test.obj
 0001:00010d80       ??$_Adjust_heap@PAVActionInProgress@BuildOrderSearch@@HV12@@std@@YAXPAVActionInProgress@BuildOrderSearch@@HHV12@@Z 00411d80 f i test.obj
 0001:00010e10       ??$_Uninit_copy@PAVStarcraftAction@BuildOrderSearch@@PAV12@V?$allocator@VStarcraftAction@BuildOrderSearch@@@std@@@std@@YAPAVStarcraftAction@BuildOrderSearch@@PAV12@00AAV?$allocator@VStarcraftAction@BuildOrderSearch@@@0@U_Nonscalar_ptr_iterator_tag@0@U_Range_checked_iterator_tag@0@@Z 00411e10 f i test.obj
 0001:00010eb0       ??$_Uninit_copy@PAVMacroAction@BuildOrderSearch@@PAV12@V?$allocator@VMacroAction@BuildOrderSearch@@@std@@@std@@YAPAVMacroAction@BuildOrderSearch@@PAV12@00AAV?$allocator@VMacroAction@BuildOrderSearch@@@0@U_Nonscalar_ptr_iterator_tag@0@U_Range_checked_iterator_tag@0@@Z 00411eb0 f i test.obj
 0001:00010f50       ??$_Uninit_copy@PAVStarcraftState@BuildOrderSearch@@PAV12@V?$allocator@VStarcraftState@BuildOrderSearch@@@std@@@std@@YAPAVStarcraftState@BuildOrderSearch@@PAV12@00AAV?$allocator@VStarcraftState@BuildOrderSearch@@@0@U_Nonscalar_ptr_iterator_tag@0@U_Range_checked_iterator_tag@0@@Z 00411f50 f i test.obj
 0001:00010ff0       ??0RaceInternal@BWAPI@@QAE@XZ 00411ff0 f i BWAPI:Race.obj
 0001:00011060       ??0Race@BWAPI@@QAE@XZ      00412060 f   BWAPI:Race.obj
 0001:00011070       ?getWorker@Race@BWAPI@@QBE?AVUnitType@2@XZ 00412070 f   BWAPI:Race.obj
 0001:00011090       ?getCenter@Race@BWAPI@@QBE?AVUnitType@2@XZ 00412090 f   BWAPI:Race.obj
 0001:000110b0       ?getRefinery@Race@BWAPI@@QBE?AVUnitType@2@XZ 004120b0 f   BWAPI:Race.obj
 0001:000110d0       ?getSupplyProvider@Race@BWAPI@@QBE?AVUnitType@2@XZ 004120d0 f   BWAPI:Race.obj
 0001:000110f0       ?_Insert@?$_Tree@V?$_Tmap_traits@V?$basic_string@DU?$char_traits@D@std@@V?$allocator@D@2@@std@@VGameType@BWAPI@@U?$less@V?$basic_string@DU?$char_traits@D@std@@V?$allocator@D@2@@std@@@2@V?$allocator@U?$pair@$$CBV?$basic_string@DU?$char_traits@D@std@@V?$allocator@D@2@@std@@VGameType@BWAPI@@@std@@@2@$0A@@std@@@std@@IAE?AViterator@12@_NPAU_Node@?$_Tree_nod@V?$_Tmap_traits@V?$basic_string@DU?$char_traits@D@std@@V?$allocator@D@2@@std@@VGameType@BWAPI@@U?$less@V?$basic_string@DU?$char_traits@D@std@@V?$allocator@D@2@@std@@@2@V?$allocator@U?$pair@$$CBV?$basic_string@DU?$char_traits@D@std@@V?$allocator@D@2@@std@@VGameType@BWAPI@@@std@@@2@$0A@@std@@@2@ABU?$pair@$$CBV?$basic_string@DU?$char_traits@D@std@@V?$allocator@D@2@@std@@VGameType@BWAPI@@@2@@Z 004120f0 f i BWAPI:GameType.obj
 0001:000110f0       ?_Insert@?$_Tree@V?$_Tmap_traits@V?$basic_string@DU?$char_traits@D@std@@V?$allocator@D@2@@std@@VBulletType@BWAPI@@U?$less@V?$basic_string@DU?$char_traits@D@std@@V?$allocator@D@2@@std@@@2@V?$allocator@U?$pair@$$CBV?$basic_string@DU?$char_traits@D@std@@V?$allocator@D@2@@std@@VBulletType@BWAPI@@@std@@@2@$0A@@std@@@std@@IAE?AViterator@12@_NPAU_Node@?$_Tree_nod@V?$_Tmap_traits@V?$basic_string@DU?$char_traits@D@std@@V?$allocator@D@2@@std@@VBulletType@BWAPI@@U?$less@V?$basic_string@DU?$char_traits@D@std@@V?$allocator@D@2@@std@@@2@V?$allocator@U?$pair@$$CBV?$basic_string@DU?$char_traits@D@std@@V?$allocator@D@2@@std@@VBulletType@BWAPI@@@std@@@2@$0A@@std@@@2@ABU?$pair@$$CBV?$basic_string@DU?$char_traits@D@std@@V?$allocator@D@2@@std@@VBulletType@BWAPI@@@2@@Z 004120f0 f i BWAPI:BulletType.obj
 0001:000110f0       ?_Insert@?$_Tree@V?$_Tmap_traits@V?$basic_string@DU?$char_traits@D@std@@V?$allocator@D@2@@std@@VRace@BWAPI@@U?$less@V?$basic_string@DU?$char_traits@D@std@@V?$allocator@D@2@@std@@@2@V?$allocator@U?$pair@$$CBV?$basic_string@DU?$char_traits@D@std@@V?$allocator@D@2@@std@@VRace@BWAPI@@@std@@@2@$0A@@std@@@std@@IAE?AViterator@12@_NPAU_Node@?$_Tree_nod@V?$_Tmap_traits@V?$basic_string@DU?$char_traits@D@std@@V?$allocator@D@2@@std@@VRace@BWAPI@@U?$less@V?$basic_string@DU?$char_traits@D@std@@V?$allocator@D@2@@std@@@2@V?$allocator@U?$pair@$$CBV?$basic_string@DU?$char_traits@D@std@@V?$allocator@D@2@@std@@VRace@BWAPI@@@std@@@2@$0A@@std@@@2@ABU?$pair@$$CBV?$basic_string@DU?$char_traits@D@std@@V?$allocator@D@2@@std@@VRace@BWAPI@@@2@@Z 004120f0 f i BWAPI:Race.obj
 0001:000110f0       ?_Insert@?$_Tree@V?$_Tmap_traits@V?$basic_string@DU?$char_traits@D@std@@V?$allocator@D@2@@std@@VDamageType@BWAPI@@U?$less@V?$basic_string@DU?$char_traits@D@std@@V?$allocator@D@2@@std@@@2@V?$allocator@U?$pair@$$CBV?$basic_string@DU?$char_traits@D@std@@V?$allocator@D@2@@std@@VDamageType@BWAPI@@@std@@@2@$0A@@std@@@std@@IAE?AViterator@12@_NPAU_Node@?$_Tree_nod@V?$_Tmap_traits@V?$basic_string@DU?$char_traits@D@std@@V?$allocator@D@2@@std@@VDamageType@BWAPI@@U?$less@V?$basic_string@DU?$char_traits@D@std@@V?$allocator@D@2@@std@@@2@V?$allocator@U?$pair@$$CBV?$basic_string@DU?$char_traits@D@std@@V?$allocator@D@2@@std@@VDamageType@BWAPI@@@std@@@2@$0A@@std@@@2@ABU?$pair@$$CBV?$basic_string@DU?$char_traits@D@std@@V?$allocator@D@2@@std@@VDamageType@BWAPI@@@2@@Z 004120f0 f i BWAPI:DamageType.obj
 0001:000110f0       ?_Insert@?$_Tree@V?$_Tmap_traits@V?$basic_string@DU?$char_traits@D@std@@V?$allocator@D@2@@std@@VUnitSizeType@BWAPI@@U?$less@V?$basic_string@DU?$char_traits@D@std@@V?$allocator@D@2@@std@@@2@V?$allocator@U?$pair@$$CBV?$basic_string@DU?$char_traits@D@std@@V?$allocator@D@2@@std@@VUnitSizeType@BWAPI@@@std@@@2@$0A@@std@@@std@@IAE?AViterator@12@_NPAU_Node@?$_Tree_nod@V?$_Tmap_traits@V?$basic_string@DU?$char_traits@D@std@@V?$allocator@D@2@@std@@VUnitSizeType@BWAPI@@U?$less@V?$basic_string@DU?$char_traits@D@std@@V?$allocator@D@2@@std@@@2@V?$allocator@U?$pair@$$CBV?$basic_string@DU?$char_traits@D@std@@V?$allocator@D@2@@std@@VUnitSizeType@BWAPI@@@std@@@2@$0A@@std@@@2@ABU?$pair@$$CBV?$basic_string@DU?$char_traits@D@std@@V?$allocator@D@2@@std@@VUnitSizeType@BWAPI@@@2@@Z 004120f0 f i BWAPI:UnitSizeType.obj
 0001:000110f0       ?_Insert@?$_Tree@V?$_Tmap_traits@V?$basic_string@DU?$char_traits@D@std@@V?$allocator@D@2@@std@@VUpgradeType@BWAPI@@U?$less@V?$basic_string@DU?$char_traits@D@std@@V?$allocator@D@2@@std@@@2@V?$allocator@U?$pair@$$CBV?$basic_string@DU?$char_traits@D@std@@V?$allocator@D@2@@std@@VUpgradeType@BWAPI@@@std@@@2@$0A@@std@@@std@@IAE?AViterator@12@_NPAU_Node@?$_Tree_nod@V?$_Tmap_traits@V?$basic_string@DU?$char_traits@D@std@@V?$allocator@D@2@@std@@VUpgradeType@BWAPI@@U?$less@V?$basic_string@DU?$char_traits@D@std@@V?$allocator@D@2@@std@@@2@V?$allocator@U?$pair@$$CBV?$basic_string@DU?$char_traits@D@std@@V?$allocator@D@2@@std@@VUpgradeType@BWAPI@@@std@@@2@$0A@@std@@@2@ABU?$pair@$$CBV?$basic_string@DU?$char_traits@D@std@@V?$allocator@D@2@@std@@VUpgradeType@BWAPI@@@2@@Z 004120f0 f i BWAPI:UpgradeType.obj
 0001:000110f0       ?_Insert@?$_Tree@V?$_Tmap_traits@V?$basic_string@DU?$char_traits@D@std@@V?$allocator@D@2@@std@@VTechType@BWAPI@@U?$less@V?$basic_string@DU?$char_traits@D@std@@V?$allocator@D@2@@std@@@2@V?$allocator@U?$pair@$$CBV?$basic_string@DU?$char_traits@D@std@@V?$allocator@D@2@@std@@VTechType@BWAPI@@@std@@@2@$0A@@std@@@std@@IAE?AViterator@12@_NPAU_Node@?$_Tree_nod@V?$_Tmap_traits@V?$basic_string@DU?$char_traits@D@std@@V?$allocator@D@2@@std@@VTechType@BWAPI@@U?$less@V?$basic_string@DU?$char_traits@D@std@@V?$allocator@D@2@@std@@@2@V?$allocator@U?$pair@$$CBV?$basic_string@DU?$char_traits@D@std@@V?$allocator@D@2@@std@@VTechType@BWAPI@@@std@@@2@$0A@@std@@@2@ABU?$pair@$$CBV?$basic_string@DU?$char_traits@D@std@@V?$allocator@D@2@@std@@VTechType@BWAPI@@@2@@Z 004120f0 f i BWAPI:TechType.obj
 0001:000110f0       ?_Insert@?$_Tree@V?$_Tmap_traits@V?$basic_string@DU?$char_traits@D@std@@V?$allocator@D@2@@std@@VError@BWAPI@@U?$less@V?$basic_string@DU?$char_traits@D@std@@V?$allocator@D@2@@std@@@2@V?$allocator@U?$pair@$$CBV?$basic_string@DU?$char_traits@D@std@@V?$allocator@D@2@@std@@VError@BWAPI@@@std@@@2@$0A@@std@@@std@@IAE?AViterator@12@_NPAU_Node@?$_Tree_nod@V?$_Tmap_traits@V?$basic_string@DU?$char_traits@D@std@@V?$allocator@D@2@@std@@VError@BWAPI@@U?$less@V?$basic_string@DU?$char_traits@D@std@@V?$allocator@D@2@@std@@@2@V?$allocator@U?$pair@$$CBV?$basic_string@DU?$char_traits@D@std@@V?$allocator@D@2@@std@@VError@BWAPI@@@std@@@2@$0A@@std@@@2@ABU?$pair@$$CBV?$basic_string@DU?$char_traits@D@std@@V?$allocator@D@2@@std@@VError@BWAPI@@@2@@Z 004120f0 f i BWAPI:Error.obj
 0001:000110f0       ?_Insert@?$_Tree@V?$_Tmap_traits@V?$basic_string@DU?$char_traits@D@std@@V?$allocator@D@2@@std@@VPlayerType@BWAPI@@U?$less@V?$basic_string@DU?$char_traits@D@std@@V?$allocator@D@2@@std@@@2@V?$allocator@U?$pair@$$CBV?$basic_string@DU?$char_traits@D@std@@V?$allocator@D@2@@std@@VPlayerType@BWAPI@@@std@@@2@$0A@@std@@@std@@IAE?AViterator@12@_NPAU_Node@?$_Tree_nod@V?$_Tmap_traits@V?$basic_string@DU?$char_traits@D@std@@V?$allocator@D@2@@std@@VPlayerType@BWAPI@@U?$less@V?$basic_string@DU?$char_traits@D@std@@V?$allocator@D@2@@std@@@2@V?$allocator@U?$pair@$$CBV?$basic_string@DU?$char_traits@D@std@@V?$allocator@D@2@@std@@VPlayerType@BWAPI@@@std@@@2@$0A@@std@@@2@ABU?$pair@$$CBV?$basic_string@DU?$char_traits@D@std@@V?$allocator@D@2@@std@@VPlayerType@BWAPI@@@2@@Z 004120f0 f i BWAPI:PlayerType.obj
 0001:000110f0       ?_Insert@?$_Tree@V?$_Tmap_traits@V?$basic_string@DU?$char_traits@D@std@@V?$allocator@D@2@@std@@VUnitCommandType@BWAPI@@U?$less@V?$basic_string@DU?$char_traits@D@std@@V?$allocator@D@2@@std@@@2@V?$allocator@U?$pair@$$CBV?$basic_string@DU?$char_traits@D@std@@V?$allocator@D@2@@std@@VUnitCommandType@BWAPI@@@std@@@2@$0A@@std@@@std@@IAE?AViterator@12@_NPAU_Node@?$_Tree_nod@V?$_Tmap_traits@V?$basic_string@DU?$char_traits@D@std@@V?$allocator@D@2@@std@@VUnitCommandType@BWAPI@@U?$less@V?$basic_string@DU?$char_traits@D@std@@V?$allocator@D@2@@std@@@2@V?$allocator@U?$pair@$$CBV?$basic_string@DU?$char_traits@D@std@@V?$allocator@D@2@@std@@VUnitCommandType@BWAPI@@@std@@@2@$0A@@std@@@2@ABU?$pair@$$CBV?$basic_string@DU?$char_traits@D@std@@V?$allocator@D@2@@std@@VUnitCommandType@BWAPI@@@2@@Z 004120f0 f i BWAPI:UnitCommandType.obj
 0001:000110f0       ?_Insert@?$_Tree@V?$_Tmap_traits@V?$basic_string@DU?$char_traits@D@std@@V?$allocator@D@2@@std@@VUnitType@BWAPI@@U?$less@V?$basic_string@DU?$char_traits@D@std@@V?$allocator@D@2@@std@@@2@V?$allocator@U?$pair@$$CBV?$basic_string@DU?$char_traits@D@std@@V?$allocator@D@2@@std@@VUnitType@BWAPI@@@std@@@2@$0A@@std@@@std@@IAE?AViterator@12@_NPAU_Node@?$_Tree_nod@V?$_Tmap_traits@V?$basic_string@DU?$char_traits@D@std@@V?$allocator@D@2@@std@@VUnitType@BWAPI@@U?$less@V?$basic_string@DU?$char_traits@D@std@@V?$allocator@D@2@@std@@@2@V?$allocator@U?$pair@$$CBV?$basic_string@DU?$char_traits@D@std@@V?$allocator@D@2@@std@@VUnitType@BWAPI@@@std@@@2@$0A@@std@@@2@ABU?$pair@$$CBV?$basic_string@DU?$char_traits@D@std@@V?$allocator@D@2@@std@@VUnitType@BWAPI@@@2@@Z 004120f0 f i BWAPI:UnitType.obj
 0001:000110f0       ?_Insert@?$_Tree@V?$_Tmap_traits@V?$basic_string@DU?$char_traits@D@std@@V?$allocator@D@2@@std@@VExplosionType@BWAPI@@U?$less@V?$basic_string@DU?$char_traits@D@std@@V?$allocator@D@2@@std@@@2@V?$allocator@U?$pair@$$CBV?$basic_string@DU?$char_traits@D@std@@V?$allocator@D@2@@std@@VExplosionType@BWAPI@@@std@@@2@$0A@@std@@@std@@IAE?AViterator@12@_NPAU_Node@?$_Tree_nod@V?$_Tmap_traits@V?$basic_string@DU?$char_traits@D@std@@V?$allocator@D@2@@std@@VExplosionType@BWAPI@@U?$less@V?$basic_string@DU?$char_traits@D@std@@V?$allocator@D@2@@std@@@2@V?$allocator@U?$pair@$$CBV?$basic_string@DU?$char_traits@D@std@@V?$allocator@D@2@@std@@VExplosionType@BWAPI@@@std@@@2@$0A@@std@@@2@ABU?$pair@$$CBV?$basic_string@DU?$char_traits@D@std@@V?$allocator@D@2@@std@@VExplosionType@BWAPI@@@2@@Z 004120f0 f i BWAPI:ExplosionType.obj
 0001:000110f0       ?_Insert@?$_Tree@V?$_Tmap_traits@V?$basic_string@DU?$char_traits@D@std@@V?$allocator@D@2@@std@@VWeaponType@BWAPI@@U?$less@V?$basic_string@DU?$char_traits@D@std@@V?$allocator@D@2@@std@@@2@V?$allocator@U?$pair@$$CBV?$basic_string@DU?$char_traits@D@std@@V?$allocator@D@2@@std@@VWeaponType@BWAPI@@@std@@@2@$0A@@std@@@std@@IAE?AViterator@12@_NPAU_Node@?$_Tree_nod@V?$_Tmap_traits@V?$basic_string@DU?$char_traits@D@std@@V?$allocator@D@2@@std@@VWeaponType@BWAPI@@U?$less@V?$basic_string@DU?$char_traits@D@std@@V?$allocator@D@2@@std@@@2@V?$allocator@U?$pair@$$CBV?$basic_string@DU?$char_traits@D@std@@V?$allocator@D@2@@std@@VWeaponType@BWAPI@@@std@@@2@$0A@@std@@@2@ABU?$pair@$$CBV?$basic_string@DU?$char_traits@D@std@@V?$allocator@D@2@@std@@VWeaponType@BWAPI@@@2@@Z 004120f0 f i BWAPI:WeaponType.obj
 0001:000110f0       ?_Insert@?$_Tree@V?$_Tmap_traits@V?$basic_string@DU?$char_traits@D@std@@V?$allocator@D@2@@std@@VOrder@BWAPI@@U?$less@V?$basic_string@DU?$char_traits@D@std@@V?$allocator@D@2@@std@@@2@V?$allocator@U?$pair@$$CBV?$basic_string@DU?$char_traits@D@std@@V?$allocator@D@2@@std@@VOrder@BWAPI@@@std@@@2@$0A@@std@@@std@@IAE?AViterator@12@_NPAU_Node@?$_Tree_nod@V?$_Tmap_traits@V?$basic_string@DU?$char_traits@D@std@@V?$allocator@D@2@@std@@VOrder@BWAPI@@U?$less@V?$basic_string@DU?$char_traits@D@std@@V?$allocator@D@2@@std@@@2@V?$allocator@U?$pair@$$CBV?$basic_string@DU?$char_traits@D@std@@V?$allocator@D@2@@std@@VOrder@BWAPI@@@std@@@2@$0A@@std@@@2@ABU?$pair@$$CBV?$basic_string@DU?$char_traits@D@std@@V?$allocator@D@2@@std@@VOrder@BWAPI@@@2@@Z 004120f0 f i BWAPI:Order.obj
 0001:000112f0       ?insert@?$_Tree@V?$_Tmap_traits@V?$basic_string@DU?$char_traits@D@std@@V?$allocator@D@2@@std@@VExplosionType@BWAPI@@U?$less@V?$basic_string@DU?$char_traits@D@std@@V?$allocator@D@2@@std@@@2@V?$allocator@U?$pair@$$CBV?$basic_string@DU?$char_traits@D@std@@V?$allocator@D@2@@std@@VExplosionType@BWAPI@@@std@@@2@$0A@@std@@@std@@QAE?AU?$pair@Viterator@?$_Tree@V?$_Tmap_traits@V?$basic_string@DU?$char_traits@D@std@@V?$allocator@D@2@@std@@VExplosionType@BWAPI@@U?$less@V?$basic_string@DU?$char_traits@D@std@@V?$allocator@D@2@@std@@@2@V?$allocator@U?$pair@$$CBV?$basic_string@DU?$char_traits@D@std@@V?$allocator@D@2@@std@@VExplosionType@BWAPI@@@std@@@2@$0A@@std@@@std@@_N@2@ABU?$pair@$$CBV?$basic_string@DU?$char_traits@D@std@@V?$allocator@D@2@@std@@VExplosionType@BWAPI@@@2@@Z 004122f0 f i BWAPI:ExplosionType.obj
 0001:000112f0       ?insert@?$_Tree@V?$_Tmap_traits@V?$basic_string@DU?$char_traits@D@std@@V?$allocator@D@2@@std@@VUnitSizeType@BWAPI@@U?$less@V?$basic_string@DU?$char_traits@D@std@@V?$allocator@D@2@@std@@@2@V?$allocator@U?$pair@$$CBV?$basic_string@DU?$char_traits@D@std@@V?$allocator@D@2@@std@@VUnitSizeType@BWAPI@@@std@@@2@$0A@@std@@@std@@QAE?AU?$pair@Viterator@?$_Tree@V?$_Tmap_traits@V?$basic_string@DU?$char_traits@D@std@@V?$allocator@D@2@@std@@VUnitSizeType@BWAPI@@U?$less@V?$basic_string@DU?$char_traits@D@std@@V?$allocator@D@2@@std@@@2@V?$allocator@U?$pair@$$CBV?$basic_string@DU?$char_traits@D@std@@V?$allocator@D@2@@std@@VUnitSizeType@BWAPI@@@std@@@2@$0A@@std@@@std@@_N@2@ABU?$pair@$$CBV?$basic_string@DU?$char_traits@D@std@@V?$allocator@D@2@@std@@VUnitSizeType@BWAPI@@@2@@Z 004122f0 f i BWAPI:UnitSizeType.obj
 0001:000112f0       ?insert@?$_Tree@V?$_Tmap_traits@V?$basic_string@DU?$char_traits@D@std@@V?$allocator@D@2@@std@@VDamageType@BWAPI@@U?$less@V?$basic_string@DU?$char_traits@D@std@@V?$allocator@D@2@@std@@@2@V?$allocator@U?$pair@$$CBV?$basic_string@DU?$char_traits@D@std@@V?$allocator@D@2@@std@@VDamageType@BWAPI@@@std@@@2@$0A@@std@@@std@@QAE?AU?$pair@Viterator@?$_Tree@V?$_Tmap_traits@V?$basic_string@DU?$char_traits@D@std@@V?$allocator@D@2@@std@@VDamageType@BWAPI@@U?$less@V?$basic_string@DU?$char_traits@D@std@@V?$allocator@D@2@@std@@@2@V?$allocator@U?$pair@$$CBV?$basic_string@DU?$char_traits@D@std@@V?$allocator@D@2@@std@@VDamageType@BWAPI@@@std@@@2@$0A@@std@@@std@@_N@2@ABU?$pair@$$CBV?$basic_string@DU?$char_traits@D@std@@V?$allocator@D@2@@std@@VDamageType@BWAPI@@@2@@Z 004122f0 f i BWAPI:DamageType.obj
 0001:000112f0       ?insert@?$_Tree@V?$_Tmap_traits@V?$basic_string@DU?$char_traits@D@std@@V?$allocator@D@2@@std@@VUpgradeType@BWAPI@@U?$less@V?$basic_string@DU?$char_traits@D@std@@V?$allocator@D@2@@std@@@2@V?$allocator@U?$pair@$$CBV?$basic_string@DU?$char_traits@D@std@@V?$allocator@D@2@@std@@VUpgradeType@BWAPI@@@std@@@2@$0A@@std@@@std@@QAE?AU?$pair@Viterator@?$_Tree@V?$_Tmap_traits@V?$basic_string@DU?$char_traits@D@std@@V?$allocator@D@2@@std@@VUpgradeType@BWAPI@@U?$less@V?$basic_string@DU?$char_traits@D@std@@V?$allocator@D@2@@std@@@2@V?$allocator@U?$pair@$$CBV?$basic_string@DU?$char_traits@D@std@@V?$allocator@D@2@@std@@VUpgradeType@BWAPI@@@std@@@2@$0A@@std@@@std@@_N@2@ABU?$pair@$$CBV?$basic_string@DU?$char_traits@D@std@@V?$allocator@D@2@@std@@VUpgradeType@BWAPI@@@2@@Z 004122f0 f i BWAPI:UpgradeType.obj
 0001:000112f0       ?insert@?$_Tree@V?$_Tmap_traits@V?$basic_string@DU?$char_traits@D@std@@V?$allocator@D@2@@std@@VWeaponType@BWAPI@@U?$less@V?$basic_string@DU?$char_traits@D@std@@V?$allocator@D@2@@std@@@2@V?$allocator@U?$pair@$$CBV?$basic_string@DU?$char_traits@D@std@@V?$allocator@D@2@@std@@VWeaponType@BWAPI@@@std@@@2@$0A@@std@@@std@@QAE?AU?$pair@Viterator@?$_Tree@V?$_Tmap_traits@V?$basic_string@DU?$char_traits@D@std@@V?$allocator@D@2@@std@@VWeaponType@BWAPI@@U?$less@V?$basic_string@DU?$char_traits@D@std@@V?$allocator@D@2@@std@@@2@V?$allocator@U?$pair@$$CBV?$basic_string@DU?$char_traits@D@std@@V?$allocator@D@2@@std@@VWeaponType@BWAPI@@@std@@@2@$0A@@std@@@std@@_N@2@ABU?$pair@$$CBV?$basic_string@DU?$char_traits@D@std@@V?$allocator@D@2@@std@@VWeaponType@BWAPI@@@2@@Z 004122f0 f i BWAPI:WeaponType.obj
 0001:000112f0       ?insert@?$_Tree@V?$_Tmap_traits@V?$basic_string@DU?$char_traits@D@std@@V?$allocator@D@2@@std@@VBulletType@BWAPI@@U?$less@V?$basic_string@DU?$char_traits@D@std@@V?$allocator@D@2@@std@@@2@V?$allocator@U?$pair@$$CBV?$basic_string@DU?$char_traits@D@std@@V?$allocator@D@2@@std@@VBulletType@BWAPI@@@std@@@2@$0A@@std@@@std@@QAE?AU?$pair@Viterator@?$_Tree@V?$_Tmap_traits@V?$basic_string@DU?$char_traits@D@std@@V?$allocator@D@2@@std@@VBulletType@BWAPI@@U?$less@V?$basic_string@DU?$char_traits@D@std@@V?$allocator@D@2@@std@@@2@V?$allocator@U?$pair@$$CBV?$basic_string@DU?$char_traits@D@std@@V?$allocator@D@2@@std@@VBulletType@BWAPI@@@std@@@2@$0A@@std@@@std@@_N@2@ABU?$pair@$$CBV?$basic_string@DU?$char_traits@D@std@@V?$allocator@D@2@@std@@VBulletType@BWAPI@@@2@@Z 004122f0 f i BWAPI:BulletType.obj
 0001:000112f0       ?insert@?$_Tree@V?$_Tmap_traits@V?$basic_string@DU?$char_traits@D@std@@V?$allocator@D@2@@std@@VError@BWAPI@@U?$less@V?$basic_string@DU?$char_traits@D@std@@V?$allocator@D@2@@std@@@2@V?$allocator@U?$pair@$$CBV?$basic_string@DU?$char_traits@D@std@@V?$allocator@D@2@@std@@VError@BWAPI@@@std@@@2@$0A@@std@@@std@@QAE?AU?$pair@Viterator@?$_Tree@V?$_Tmap_traits@V?$basic_string@DU?$char_traits@D@std@@V?$allocator@D@2@@std@@VError@BWAPI@@U?$less@V?$basic_string@DU?$char_traits@D@std@@V?$allocator@D@2@@std@@@2@V?$allocator@U?$pair@$$CBV?$basic_string@DU?$char_traits@D@std@@V?$allocator@D@2@@std@@VError@BWAPI@@@std@@@2@$0A@@std@@@std@@_N@2@ABU?$pair@$$CBV?$basic_string@DU?$char_traits@D@std@@V?$allocator@D@2@@std@@VError@BWAPI@@@2@@Z 004122f0 f i BWAPI:Error.obj
 0001:000112f0       ?insert@?$_Tree@V?$_Tmap_traits@V?$basic_string@DU?$char_traits@D@std@@V?$allocator@D@2@@std@@VRace@BWAPI@@U?$less@V?$basic_string@DU?$char_traits@D@std@@V?$allocator@D@2@@std@@@2@V?$allocator@U?$pair@$$CBV?$basic_string@DU?$char_traits@D@std@@V?$allocator@D@2@@std@@VRace@BWAPI@@@std@@@2@$0A@@std@@@std@@QAE?AU?$pair@Viterator@?$_Tree@V?$_Tmap_traits@V?$basic_string@DU?$char_traits@D@std@@V?$allocator@D@2@@std@@VRace@BWAPI@@U?$less@V?$basic_string@DU?$char_traits@D@std@@V?$allocator@D@2@@std@@@2@V?$allocator@U?$pair@$$CBV?$basic_string@DU?$char_traits@D@std@@V?$allocator@D@2@@std@@VRace@BWAPI@@@std@@@2@$0A@@std@@@std@@_N@2@ABU?$pair@$$CBV?$basic_string@DU?$char_traits@D@std@@V?$allocator@D@2@@std@@VRace@BWAPI@@@2@@Z 004122f0 f i BWAPI:Race.obj
 0001:000112f0       ?insert@?$_Tree@V?$_Tmap_traits@V?$basic_string@DU?$char_traits@D@std@@V?$allocator@D@2@@std@@VUnitType@BWAPI@@U?$less@V?$basic_string@DU?$char_traits@D@std@@V?$allocator@D@2@@std@@@2@V?$allocator@U?$pair@$$CBV?$basic_string@DU?$char_traits@D@std@@V?$allocator@D@2@@std@@VUnitType@BWAPI@@@std@@@2@$0A@@std@@@std@@QAE?AU?$pair@Viterator@?$_Tree@V?$_Tmap_traits@V?$basic_string@DU?$char_traits@D@std@@V?$allocator@D@2@@std@@VUnitType@BWAPI@@U?$less@V?$basic_string@DU?$char_traits@D@std@@V?$allocator@D@2@@std@@@2@V?$allocator@U?$pair@$$CBV?$basic_string@DU?$char_traits@D@std@@V?$allocator@D@2@@std@@VUnitType@BWAPI@@@std@@@2@$0A@@std@@@std@@_N@2@ABU?$pair@$$CBV?$basic_string@DU?$char_traits@D@std@@V?$allocator@D@2@@std@@VUnitType@BWAPI@@@2@@Z 004122f0 f i BWAPI:UnitType.obj
 0001:000112f0       ?insert@?$_Tree@V?$_Tmap_traits@V?$basic_string@DU?$char_traits@D@std@@V?$allocator@D@2@@std@@VUnitCommandType@BWAPI@@U?$less@V?$basic_string@DU?$char_traits@D@std@@V?$allocator@D@2@@std@@@2@V?$allocator@U?$pair@$$CBV?$basic_string@DU?$char_traits@D@std@@V?$allocator@D@2@@std@@VUnitCommandType@BWAPI@@@std@@@2@$0A@@std@@@std@@QAE?AU?$pair@Viterator@?$_Tree@V?$_Tmap_traits@V?$basic_string@DU?$char_traits@D@std@@V?$allocator@D@2@@std@@VUnitCommandType@BWAPI@@U?$less@V?$basic_string@DU?$char_traits@D@std@@V?$allocator@D@2@@std@@@2@V?$allocator@U?$pair@$$CBV?$basic_string@DU?$char_traits@D@std@@V?$allocator@D@2@@std@@VUnitCommandType@BWAPI@@@std@@@2@$0A@@std@@@std@@_N@2@ABU?$pair@$$CBV?$basic_string@DU?$char_traits@D@std@@V?$allocator@D@2@@std@@VUnitCommandType@BWAPI@@@2@@Z 004122f0 f i BWAPI:UnitCommandType.obj
 0001:000112f0       ?insert@?$_Tree@V?$_Tmap_traits@V?$basic_string@DU?$char_traits@D@std@@V?$allocator@D@2@@std@@VTechType@BWAPI@@U?$less@V?$basic_string@DU?$char_traits@D@std@@V?$allocator@D@2@@std@@@2@V?$allocator@U?$pair@$$CBV?$basic_string@DU?$char_traits@D@std@@V?$allocator@D@2@@std@@VTechType@BWAPI@@@std@@@2@$0A@@std@@@std@@QAE?AU?$pair@Viterator@?$_Tree@V?$_Tmap_traits@V?$basic_string@DU?$char_traits@D@std@@V?$allocator@D@2@@std@@VTechType@BWAPI@@U?$less@V?$basic_string@DU?$char_traits@D@std@@V?$allocator@D@2@@std@@@2@V?$allocator@U?$pair@$$CBV?$basic_string@DU?$char_traits@D@std@@V?$allocator@D@2@@std@@VTechType@BWAPI@@@std@@@2@$0A@@std@@@std@@_N@2@ABU?$pair@$$CBV?$basic_string@DU?$char_traits@D@std@@V?$allocator@D@2@@std@@VTechType@BWAPI@@@2@@Z 004122f0 f i BWAPI:TechType.obj
 0001:000112f0       ?insert@?$_Tree@V?$_Tmap_traits@V?$basic_string@DU?$char_traits@D@std@@V?$allocator@D@2@@std@@VPlayerType@BWAPI@@U?$less@V?$basic_string@DU?$char_traits@D@std@@V?$allocator@D@2@@std@@@2@V?$allocator@U?$pair@$$CBV?$basic_string@DU?$char_traits@D@std@@V?$allocator@D@2@@std@@VPlayerType@BWAPI@@@std@@@2@$0A@@std@@@std@@QAE?AU?$pair@Viterator@?$_Tree@V?$_Tmap_traits@V?$basic_string@DU?$char_traits@D@std@@V?$allocator@D@2@@std@@VPlayerType@BWAPI@@U?$less@V?$basic_string@DU?$char_traits@D@std@@V?$allocator@D@2@@std@@@2@V?$allocator@U?$pair@$$CBV?$basic_string@DU?$char_traits@D@std@@V?$allocator@D@2@@std@@VPlayerType@BWAPI@@@std@@@2@$0A@@std@@@std@@_N@2@ABU?$pair@$$CBV?$basic_string@DU?$char_traits@D@std@@V?$allocator@D@2@@std@@VPlayerType@BWAPI@@@2@@Z 004122f0 f i BWAPI:PlayerType.obj
 0001:000112f0       ?insert@?$_Tree@V?$_Tmap_traits@V?$basic_string@DU?$char_traits@D@std@@V?$allocator@D@2@@std@@VGameType@BWAPI@@U?$less@V?$basic_string@DU?$char_traits@D@std@@V?$allocator@D@2@@std@@@2@V?$allocator@U?$pair@$$CBV?$basic_string@DU?$char_traits@D@std@@V?$allocator@D@2@@std@@VGameType@BWAPI@@@std@@@2@$0A@@std@@@std@@QAE?AU?$pair@Viterator@?$_Tree@V?$_Tmap_traits@V?$basic_string@DU?$char_traits@D@std@@V?$allocator@D@2@@std@@VGameType@BWAPI@@U?$less@V?$basic_string@DU?$char_traits@D@std@@V?$allocator@D@2@@std@@@2@V?$allocator@U?$pair@$$CBV?$basic_string@DU?$char_traits@D@std@@V?$allocator@D@2@@std@@VGameType@BWAPI@@@std@@@2@$0A@@std@@@std@@_N@2@ABU?$pair@$$CBV?$basic_string@DU?$char_traits@D@std@@V?$allocator@D@2@@std@@VGameType@BWAPI@@@2@@Z 004122f0 f i BWAPI:GameType.obj
 0001:000112f0       ?insert@?$_Tree@V?$_Tmap_traits@V?$basic_string@DU?$char_traits@D@std@@V?$allocator@D@2@@std@@VOrder@BWAPI@@U?$less@V?$basic_string@DU?$char_traits@D@std@@V?$allocator@D@2@@std@@@2@V?$allocator@U?$pair@$$CBV?$basic_string@DU?$char_traits@D@std@@V?$allocator@D@2@@std@@VOrder@BWAPI@@@std@@@2@$0A@@std@@@std@@QAE?AU?$pair@Viterator@?$_Tree@V?$_Tmap_traits@V?$basic_string@DU?$char_traits@D@std@@V?$allocator@D@2@@std@@VOrder@BWAPI@@U?$less@V?$basic_string@DU?$char_traits@D@std@@V?$allocator@D@2@@std@@@2@V?$allocator@U?$pair@$$CBV?$basic_string@DU?$char_traits@D@std@@V?$allocator@D@2@@std@@VOrder@BWAPI@@@std@@@2@$0A@@std@@@std@@_N@2@ABU?$pair@$$CBV?$basic_string@DU?$char_traits@D@std@@V?$allocator@D@2@@std@@VOrder@BWAPI@@@2@@Z 004122f0 f i BWAPI:Order.obj
 0001:000113e0       ?init@Races@BWAPI@@YAXXZ   004123e0 f   BWAPI:Race.obj
 0001:00011870       ??0UnitType@BWAPI@@QAE@XZ  00412870 f   BWAPI:UnitType.obj
 0001:00011880       ?getName@UnitType@BWAPI@@QBEABV?$basic_string@DU?$char_traits@D@std@@V?$allocator@D@2@@std@@XZ 00412880 f   BWAPI:UnitType.obj
 0001:000118a0       ?getRace@UnitType@BWAPI@@QBE?AVRace@2@XZ 004128a0 f   BWAPI:UnitType.obj
 0001:000118c0       ?whatBuilds@UnitType@BWAPI@@QBE?BU?$pair@VUnitType@BWAPI@@H@std@@XZ 004128c0 f   BWAPI:UnitType.obj
 0001:000118f0       ?requiredUnits@UnitType@BWAPI@@QBEABV?$map@VUnitType@BWAPI@@HU?$less@VUnitType@BWAPI@@@std@@V?$allocator@U?$pair@$$CBVUnitType@BWAPI@@H@std@@@4@@std@@XZ 004128f0 f   BWAPI:UnitType.obj
 0001:00011910       ?requiredTech@UnitType@BWAPI@@QBE?AVTechType@2@XZ 00412910 f   BWAPI:UnitType.obj
 0001:00011930       ?mineralPrice@UnitType@BWAPI@@QBEHXZ 00412930 f   BWAPI:UnitType.obj
 0001:00011950       ?gasPrice@UnitType@BWAPI@@QBEHXZ 00412950 f   BWAPI:UnitType.obj
 0001:00011970       ?buildTime@UnitType@BWAPI@@QBEHXZ 00412970 f   BWAPI:UnitType.obj
 0001:00011990       ?supplyRequired@UnitType@BWAPI@@QBEHXZ 00412990 f   BWAPI:UnitType.obj
 0001:000119b0       ?supplyProvided@UnitType@BWAPI@@QBEHXZ 004129b0 f   BWAPI:UnitType.obj
 0001:000119d0       ?canProduce@UnitType@BWAPI@@QBE_NXZ 004129d0 f   BWAPI:UnitType.obj
 0001:000119f0       ?canAttack@UnitType@BWAPI@@QBE_NXZ 004129f0 f   BWAPI:UnitType.obj
 0001:00011a10       ?isResourceDepot@UnitType@BWAPI@@QBE_NXZ 00412a10 f   BWAPI:UnitType.obj
 0001:00011a30       ?isRefinery@UnitType@BWAPI@@QBE_NXZ 00412a30 f   BWAPI:UnitType.obj
 0001:00011a50       ?isWorker@UnitType@BWAPI@@QBE_NXZ 00412a50 f   BWAPI:UnitType.obj
 0001:00011a70       ?isBuilding@UnitType@BWAPI@@QBE_NXZ 00412a70 f   BWAPI:UnitType.obj
 0001:00011a90       ?_Min@?$_Tree@V?$_Tmap_traits@V?$basic_string@DU?$char_traits@D@std@@V?$allocator@D@2@@std@@VExplosionType@BWAPI@@U?$less@V?$basic_string@DU?$char_traits@D@std@@V?$allocator@D@2@@std@@@2@V?$allocator@U?$pair@$$CBV?$basic_string@DU?$char_traits@D@std@@V?$allocator@D@2@@std@@VExplosionType@BWAPI@@@std@@@2@$0A@@std@@@std@@KAPAU_Node@?$_Tree_nod@V?$_Tmap_traits@V?$basic_string@DU?$char_traits@D@std@@V?$allocator@D@2@@std@@VExplosionType@BWAPI@@U?$less@V?$basic_string@DU?$char_traits@D@std@@V?$allocator@D@2@@std@@@2@V?$allocator@U?$pair@$$CBV?$basic_string@DU?$char_traits@D@std@@V?$allocator@D@2@@std@@VExplosionType@BWAPI@@@std@@@2@$0A@@std@@@2@PAU342@@Z 00412a90 f i BWAPI:ExplosionType.obj
 0001:00011a90       ?_Min@?$_Tree@V?$_Tmap_traits@V?$basic_string@DU?$char_traits@D@std@@V?$allocator@D@2@@std@@VRace@BWAPI@@U?$less@V?$basic_string@DU?$char_traits@D@std@@V?$allocator@D@2@@std@@@2@V?$allocator@U?$pair@$$CBV?$basic_string@DU?$char_traits@D@std@@V?$allocator@D@2@@std@@VRace@BWAPI@@@std@@@2@$0A@@std@@@std@@KAPAU_Node@?$_Tree_nod@V?$_Tmap_traits@V?$basic_string@DU?$char_traits@D@std@@V?$allocator@D@2@@std@@VRace@BWAPI@@U?$less@V?$basic_string@DU?$char_traits@D@std@@V?$allocator@D@2@@std@@@2@V?$allocator@U?$pair@$$CBV?$basic_string@DU?$char_traits@D@std@@V?$allocator@D@2@@std@@VRace@BWAPI@@@std@@@2@$0A@@std@@@2@PAU342@@Z 00412a90 f i BWAPI:Race.obj
 0001:00011a90       ?_Min@?$_Tree@V?$_Tmap_traits@V?$basic_string@DU?$char_traits@D@std@@V?$allocator@D@2@@std@@VUpgradeType@BWAPI@@U?$less@V?$basic_string@DU?$char_traits@D@std@@V?$allocator@D@2@@std@@@2@V?$allocator@U?$pair@$$CBV?$basic_string@DU?$char_traits@D@std@@V?$allocator@D@2@@std@@VUpgradeType@BWAPI@@@std@@@2@$0A@@std@@@std@@KAPAU_Node@?$_Tree_nod@V?$_Tmap_traits@V?$basic_string@DU?$char_traits@D@std@@V?$allocator@D@2@@std@@VUpgradeType@BWAPI@@U?$less@V?$basic_string@DU?$char_traits@D@std@@V?$allocator@D@2@@std@@@2@V?$allocator@U?$pair@$$CBV?$basic_string@DU?$char_traits@D@std@@V?$allocator@D@2@@std@@VUpgradeType@BWAPI@@@std@@@2@$0A@@std@@@2@PAU342@@Z 00412a90 f i BWAPI:UpgradeType.obj
 0001:00011a90       ?_Min@?$_Tree@V?$_Tmap_traits@V?$basic_string@DU?$char_traits@D@std@@V?$allocator@D@2@@std@@VError@BWAPI@@U?$less@V?$basic_string@DU?$char_traits@D@std@@V?$allocator@D@2@@std@@@2@V?$allocator@U?$pair@$$CBV?$basic_string@DU?$char_traits@D@std@@V?$allocator@D@2@@std@@VError@BWAPI@@@std@@@2@$0A@@std@@@std@@KAPAU_Node@?$_Tree_nod@V?$_Tmap_traits@V?$basic_string@DU?$char_traits@D@std@@V?$allocator@D@2@@std@@VError@BWAPI@@U?$less@V?$basic_string@DU?$char_traits@D@std@@V?$allocator@D@2@@std@@@2@V?$allocator@U?$pair@$$CBV?$basic_string@DU?$char_traits@D@std@@V?$allocator@D@2@@std@@VError@BWAPI@@@std@@@2@$0A@@std@@@2@PAU342@@Z 00412a90 f i BWAPI:Error.obj
 0001:00011a90       ?_Min@?$_Tree@V?$_Tmap_traits@V?$basic_string@DU?$char_traits@D@std@@V?$allocator@D@2@@std@@VWeaponType@BWAPI@@U?$less@V?$basic_string@DU?$char_traits@D@std@@V?$allocator@D@2@@std@@@2@V?$allocator@U?$pair@$$CBV?$basic_string@DU?$char_traits@D@std@@V?$allocator@D@2@@std@@VWeaponType@BWAPI@@@std@@@2@$0A@@std@@@std@@KAPAU_Node@?$_Tree_nod@V?$_Tmap_traits@V?$basic_string@DU?$char_traits@D@std@@V?$allocator@D@2@@std@@VWeaponType@BWAPI@@U?$less@V?$basic_string@DU?$char_traits@D@std@@V?$allocator@D@2@@std@@@2@V?$allocator@U?$pair@$$CBV?$basic_string@DU?$char_traits@D@std@@V?$allocator@D@2@@std@@VWeaponType@BWAPI@@@std@@@2@$0A@@std@@@2@PAU342@@Z 00412a90 f i BWAPI:WeaponType.obj
 0001:00011a90       ?_Min@?$_Tree@V?$_Tmap_traits@V?$basic_string@DU?$char_traits@D@std@@V?$allocator@D@2@@std@@VDamageType@BWAPI@@U?$less@V?$basic_string@DU?$char_traits@D@std@@V?$allocator@D@2@@std@@@2@V?$allocator@U?$pair@$$CBV?$basic_string@DU?$char_traits@D@std@@V?$allocator@D@2@@std@@VDamageType@BWAPI@@@std@@@2@$0A@@std@@@std@@KAPAU_Node@?$_Tree_nod@V?$_Tmap_traits@V?$basic_string@DU?$char_traits@D@std@@V?$allocator@D@2@@std@@VDamageType@BWAPI@@U?$less@V?$basic_string@DU?$char_traits@D@std@@V?$allocator@D@2@@std@@@2@V?$allocator@U?$pair@$$CBV?$basic_string@DU?$char_traits@D@std@@V?$allocator@D@2@@std@@VDamageType@BWAPI@@@std@@@2@$0A@@std@@@2@PAU342@@Z 00412a90 f i BWAPI:DamageType.obj
 0001:00011a90       ?_Min@?$_Tree@V?$_Tmap_traits@V?$basic_string@DU?$char_traits@D@std@@V?$allocator@D@2@@std@@VOrder@BWAPI@@U?$less@V?$basic_string@DU?$char_traits@D@std@@V?$allocator@D@2@@std@@@2@V?$allocator@U?$pair@$$CBV?$basic_string@DU?$char_traits@D@std@@V?$allocator@D@2@@std@@VOrder@BWAPI@@@std@@@2@$0A@@std@@@std@@KAPAU_Node@?$_Tree_nod@V?$_Tmap_traits@V?$basic_string@DU?$char_traits@D@std@@V?$allocator@D@2@@std@@VOrder@BWAPI@@U?$less@V?$basic_string@DU?$char_traits@D@std@@V?$allocator@D@2@@std@@@2@V?$allocator@U?$pair@$$CBV?$basic_string@DU?$char_traits@D@std@@V?$allocator@D@2@@std@@VOrder@BWAPI@@@std@@@2@$0A@@std@@@2@PAU342@@Z 00412a90 f i BWAPI:Order.obj
 0001:00011a90       ?_Min@?$_Tree@V?$_Tmap_traits@V?$basic_string@DU?$char_traits@D@std@@V?$allocator@D@2@@std@@VUnitType@BWAPI@@U?$less@V?$basic_string@DU?$char_traits@D@std@@V?$allocator@D@2@@std@@@2@V?$allocator@U?$pair@$$CBV?$basic_string@DU?$char_traits@D@std@@V?$allocator@D@2@@std@@VUnitType@BWAPI@@@std@@@2@$0A@@std@@@std@@KAPAU_Node@?$_Tree_nod@V?$_Tmap_traits@V?$basic_string@DU?$char_traits@D@std@@V?$allocator@D@2@@std@@VUnitType@BWAPI@@U?$less@V?$basic_string@DU?$char_traits@D@std@@V?$allocator@D@2@@std@@@2@V?$allocator@U?$pair@$$CBV?$basic_string@DU?$char_traits@D@std@@V?$allocator@D@2@@std@@VUnitType@BWAPI@@@std@@@2@$0A@@std@@@2@PAU342@@Z 00412a90 f i BWAPI:UnitType.obj
 0001:00011a90       ?_Min@?$_Tree@V?$_Tmap_traits@V?$basic_string@DU?$char_traits@D@std@@V?$allocator@D@2@@std@@VGameType@BWAPI@@U?$less@V?$basic_string@DU?$char_traits@D@std@@V?$allocator@D@2@@std@@@2@V?$allocator@U?$pair@$$CBV?$basic_string@DU?$char_traits@D@std@@V?$allocator@D@2@@std@@VGameType@BWAPI@@@std@@@2@$0A@@std@@@std@@KAPAU_Node@?$_Tree_nod@V?$_Tmap_traits@V?$basic_string@DU?$char_traits@D@std@@V?$allocator@D@2@@std@@VGameType@BWAPI@@U?$less@V?$basic_string@DU?$char_traits@D@std@@V?$allocator@D@2@@std@@@2@V?$allocator@U?$pair@$$CBV?$basic_string@DU?$char_traits@D@std@@V?$allocator@D@2@@std@@VGameType@BWAPI@@@std@@@2@$0A@@std@@@2@PAU342@@Z 00412a90 f i BWAPI:GameType.obj
 0001:00011a90       ?_Min@?$_Tree@V?$_Tmap_traits@V?$basic_string@DU?$char_traits@D@std@@V?$allocator@D@2@@std@@VPlayerType@BWAPI@@U?$less@V?$basic_string@DU?$char_traits@D@std@@V?$allocator@D@2@@std@@@2@V?$allocator@U?$pair@$$CBV?$basic_string@DU?$char_traits@D@std@@V?$allocator@D@2@@std@@VPlayerType@BWAPI@@@std@@@2@$0A@@std@@@std@@KAPAU_Node@?$_Tree_nod@V?$_Tmap_traits@V?$basic_string@DU?$char_traits@D@std@@V?$allocator@D@2@@std@@VPlayerType@BWAPI@@U?$less@V?$basic_string@DU?$char_traits@D@std@@V?$allocator@D@2@@std@@@2@V?$allocator@U?$pair@$$CBV?$basic_string@DU?$char_traits@D@std@@V?$allocator@D@2@@std@@VPlayerType@BWAPI@@@std@@@2@$0A@@std@@@2@PAU342@@Z 00412a90 f i BWAPI:PlayerType.obj
 0001:00011a90       ?_Min@?$_Tree@V?$_Tmap_traits@V?$basic_string@DU?$char_traits@D@std@@V?$allocator@D@2@@std@@VTechType@BWAPI@@U?$less@V?$basic_string@DU?$char_traits@D@std@@V?$allocator@D@2@@std@@@2@V?$allocator@U?$pair@$$CBV?$basic_string@DU?$char_traits@D@std@@V?$allocator@D@2@@std@@VTechType@BWAPI@@@std@@@2@$0A@@std@@@std@@KAPAU_Node@?$_Tree_nod@V?$_Tmap_traits@V?$basic_string@DU?$char_traits@D@std@@V?$allocator@D@2@@std@@VTechType@BWAPI@@U?$less@V?$basic_string@DU?$char_traits@D@std@@V?$allocator@D@2@@std@@@2@V?$allocator@U?$pair@$$CBV?$basic_string@DU?$char_traits@D@std@@V?$allocator@D@2@@std@@VTechType@BWAPI@@@std@@@2@$0A@@std@@@2@PAU342@@Z 00412a90 f i BWAPI:TechType.obj
 0001:00011a90       ?_Min@?$_Tree@V?$_Tmap_traits@V?$basic_string@DU?$char_traits@D@std@@V?$allocator@D@2@@std@@VUnitCommandType@BWAPI@@U?$less@V?$basic_string@DU?$char_traits@D@std@@V?$allocator@D@2@@std@@@2@V?$allocator@U?$pair@$$CBV?$basic_string@DU?$char_traits@D@std@@V?$allocator@D@2@@std@@VUnitCommandType@BWAPI@@@std@@@2@$0A@@std@@@std@@KAPAU_Node@?$_Tree_nod@V?$_Tmap_traits@V?$basic_string@DU?$char_traits@D@std@@V?$allocator@D@2@@std@@VUnitCommandType@BWAPI@@U?$less@V?$basic_string@DU?$char_traits@D@std@@V?$allocator@D@2@@std@@@2@V?$allocator@U?$pair@$$CBV?$basic_string@DU?$char_traits@D@std@@V?$allocator@D@2@@std@@VUnitCommandType@BWAPI@@@std@@@2@$0A@@std@@@2@PAU342@@Z 00412a90 f i BWAPI:UnitCommandType.obj
 0001:00011a90       ?_Min@?$_Tree@V?$_Tmap_traits@V?$basic_string@DU?$char_traits@D@std@@V?$allocator@D@2@@std@@VBulletType@BWAPI@@U?$less@V?$basic_string@DU?$char_traits@D@std@@V?$allocator@D@2@@std@@@2@V?$allocator@U?$pair@$$CBV?$basic_string@DU?$char_traits@D@std@@V?$allocator@D@2@@std@@VBulletType@BWAPI@@@std@@@2@$0A@@std@@@std@@KAPAU_Node@?$_Tree_nod@V?$_Tmap_traits@V?$basic_string@DU?$char_traits@D@std@@V?$allocator@D@2@@std@@VBulletType@BWAPI@@U?$less@V?$basic_string@DU?$char_traits@D@std@@V?$allocator@D@2@@std@@@2@V?$allocator@U?$pair@$$CBV?$basic_string@DU?$char_traits@D@std@@V?$allocator@D@2@@std@@VBulletType@BWAPI@@@std@@@2@$0A@@std@@@2@PAU342@@Z 00412a90 f i BWAPI:BulletType.obj
 0001:00011a90       ?_Min@?$_Tree@V?$_Tmap_traits@V?$basic_string@DU?$char_traits@D@std@@V?$allocator@D@2@@std@@VUnitSizeType@BWAPI@@U?$less@V?$basic_string@DU?$char_traits@D@std@@V?$allocator@D@2@@std@@@2@V?$allocator@U?$pair@$$CBV?$basic_string@DU?$char_traits@D@std@@V?$allocator@D@2@@std@@VUnitSizeType@BWAPI@@@std@@@2@$0A@@std@@@std@@KAPAU_Node@?$_Tree_nod@V?$_Tmap_traits@V?$basic_string@DU?$char_traits@D@std@@V?$allocator@D@2@@std@@VUnitSizeType@BWAPI@@U?$less@V?$basic_string@DU?$char_traits@D@std@@V?$allocator@D@2@@std@@@2@V?$allocator@U?$pair@$$CBV?$basic_string@DU?$char_traits@D@std@@V?$allocator@D@2@@std@@VUnitSizeType@BWAPI@@@std@@@2@$0A@@std@@@2@PAU342@@Z 00412a90 f i BWAPI:UnitSizeType.obj
 0001:00011ab0       ?_Lbound@?$_Tree@V?$_Tset_traits@VTechType@BWAPI@@U?$less@VTechType@BWAPI@@@std@@V?$allocator@VTechType@BWAPI@@@4@$0A@@std@@@std@@IBEPAU_Node@?$_Tree_nod@V?$_Tset_traits@VTechType@BWAPI@@U?$less@VTechType@BWAPI@@@std@@V?$allocator@VTechType@BWAPI@@@4@$0A@@std@@@2@ABVTechType@BWAPI@@@Z 00412ab0 f i BWAPI:UnitType.obj
 0001:00011b00       ?_Dec@const_iterator@?$_Tree@V?$_Tmap_traits@VUnitType@BWAPI@@HU?$less@VUnitType@BWAPI@@@std@@V?$allocator@U?$pair@$$CBVUnitType@BWAPI@@H@std@@@4@$0A@@std@@@std@@QAEXXZ 00412b00 f i BWAPI:UnitType.obj
 0001:00011b90       ?_Buynode@?$_Tree@V?$_Tset_traits@VUnitSizeType@BWAPI@@U?$less@VUnitSizeType@BWAPI@@@std@@V?$allocator@VUnitSizeType@BWAPI@@@4@$0A@@std@@@std@@IAEPAU_Node@?$_Tree_nod@V?$_Tset_traits@VUnitSizeType@BWAPI@@U?$less@VUnitSizeType@BWAPI@@@std@@V?$allocator@VUnitSizeType@BWAPI@@@4@$0A@@std@@@2@XZ 00412b90 f i BWAPI:UnitSizeType.obj
 0001:00011b90       ?_Buynode@?$_Tree@V?$_Tset_traits@VRace@BWAPI@@U?$less@VRace@BWAPI@@@std@@V?$allocator@VRace@BWAPI@@@4@$0A@@std@@@std@@IAEPAU_Node@?$_Tree_nod@V?$_Tset_traits@VRace@BWAPI@@U?$less@VRace@BWAPI@@@std@@V?$allocator@VRace@BWAPI@@@4@$0A@@std@@@2@XZ 00412b90 f i BWAPI:Race.obj
 0001:00011b90       ?_Buynode@?$_Tree@V?$_Tset_traits@VGameType@BWAPI@@U?$less@VGameType@BWAPI@@@std@@V?$allocator@VGameType@BWAPI@@@4@$0A@@std@@@std@@IAEPAU_Node@?$_Tree_nod@V?$_Tset_traits@VGameType@BWAPI@@U?$less@VGameType@BWAPI@@@std@@V?$allocator@VGameType@BWAPI@@@4@$0A@@std@@@2@XZ 00412b90 f i BWAPI:GameType.obj
 0001:00011b90       ?_Buynode@?$_Tree@V?$_Tset_traits@VTechType@BWAPI@@U?$less@VTechType@BWAPI@@@std@@V?$allocator@VTechType@BWAPI@@@4@$0A@@std@@@std@@IAEPAU_Node@?$_Tree_nod@V?$_Tset_traits@VTechType@BWAPI@@U?$less@VTechType@BWAPI@@@std@@V?$allocator@VTechType@BWAPI@@@4@$0A@@std@@@2@XZ 00412b90 f i BWAPI:UnitType.obj
 0001:00011b90       ?_Buynode@?$_Tree@V?$_Tset_traits@VOrder@BWAPI@@U?$less@VOrder@BWAPI@@@std@@V?$allocator@VOrder@BWAPI@@@4@$0A@@std@@@std@@IAEPAU_Node@?$_Tree_nod@V?$_Tset_traits@VOrder@BWAPI@@U?$less@VOrder@BWAPI@@@std@@V?$allocator@VOrder@BWAPI@@@4@$0A@@std@@@2@XZ 00412b90 f i BWAPI:Order.obj
 0001:00011b90       ?_Buynode@?$_Tree@V?$_Tset_traits@VUpgradeType@BWAPI@@U?$less@VUpgradeType@BWAPI@@@std@@V?$allocator@VUpgradeType@BWAPI@@@4@$0A@@std@@@std@@IAEPAU_Node@?$_Tree_nod@V?$_Tset_traits@VUpgradeType@BWAPI@@U?$less@VUpgradeType@BWAPI@@@std@@V?$allocator@VUpgradeType@BWAPI@@@4@$0A@@std@@@2@XZ 00412b90 f i BWAPI:UnitType.obj
 0001:00011b90       ?_Buynode@?$_Tree@V?$_Tset_traits@VUnitCommandType@BWAPI@@U?$less@VUnitCommandType@BWAPI@@@std@@V?$allocator@VUnitCommandType@BWAPI@@@4@$0A@@std@@@std@@IAEPAU_Node@?$_Tree_nod@V?$_Tset_traits@VUnitCommandType@BWAPI@@U?$less@VUnitCommandType@BWAPI@@@std@@V?$allocator@VUnitCommandType@BWAPI@@@4@$0A@@std@@@2@XZ 00412b90 f i BWAPI:UnitCommandType.obj
 0001:00011b90       ?_Buynode@?$_Tree@V?$_Tset_traits@VBulletType@BWAPI@@U?$less@VBulletType@BWAPI@@@std@@V?$allocator@VBulletType@BWAPI@@@4@$0A@@std@@@std@@IAEPAU_Node@?$_Tree_nod@V?$_Tset_traits@VBulletType@BWAPI@@U?$less@VBulletType@BWAPI@@@std@@V?$allocator@VBulletType@BWAPI@@@4@$0A@@std@@@2@XZ 00412b90 f i BWAPI:BulletType.obj
 0001:00011b90       ?_Buynode@?$_Tree@V?$_Tset_traits@VError@BWAPI@@U?$less@VError@BWAPI@@@std@@V?$allocator@VError@BWAPI@@@4@$0A@@std@@@std@@IAEPAU_Node@?$_Tree_nod@V?$_Tset_traits@VError@BWAPI@@U?$less@VError@BWAPI@@@std@@V?$allocator@VError@BWAPI@@@4@$0A@@std@@@2@XZ 00412b90 f i BWAPI:Error.obj
 0001:00011b90       ?_Buynode@?$_Tree@V?$_Tset_traits@VExplosionType@BWAPI@@U?$less@VExplosionType@BWAPI@@@std@@V?$allocator@VExplosionType@BWAPI@@@4@$0A@@std@@@std@@IAEPAU_Node@?$_Tree_nod@V?$_Tset_traits@VExplosionType@BWAPI@@U?$less@VExplosionType@BWAPI@@@std@@V?$allocator@VExplosionType@BWAPI@@@4@$0A@@std@@@2@XZ 00412b90 f i BWAPI:ExplosionType.obj
 0001:00011b90       ?_Buynode@?$_Tree@V?$_Tset_traits@VUnitType@BWAPI@@U?$less@VUnitType@BWAPI@@@std@@V?$allocator@VUnitType@BWAPI@@@4@$0A@@std@@@std@@IAEPAU_Node@?$_Tree_nod@V?$_Tset_traits@VUnitType@BWAPI@@U?$less@VUnitType@BWAPI@@@std@@V?$allocator@VUnitType@BWAPI@@@4@$0A@@std@@@2@XZ 00412b90 f i BWAPI:UnitType.obj
 0001:00011b90       ?_Buynode@?$_Tree@V?$_Tset_traits@VPlayerType@BWAPI@@U?$less@VPlayerType@BWAPI@@@std@@V?$allocator@VPlayerType@BWAPI@@@4@$0A@@std@@@std@@IAEPAU_Node@?$_Tree_nod@V?$_Tset_traits@VPlayerType@BWAPI@@U?$less@VPlayerType@BWAPI@@@std@@V?$allocator@VPlayerType@BWAPI@@@4@$0A@@std@@@2@XZ 00412b90 f i BWAPI:PlayerType.obj
 0001:00011b90       ?_Buynode@?$_Tree@V?$_Tset_traits@VWeaponType@BWAPI@@U?$less@VWeaponType@BWAPI@@@std@@V?$allocator@VWeaponType@BWAPI@@@4@$0A@@std@@@std@@IAEPAU_Node@?$_Tree_nod@V?$_Tset_traits@VWeaponType@BWAPI@@U?$less@VWeaponType@BWAPI@@@std@@V?$allocator@VWeaponType@BWAPI@@@4@$0A@@std@@@2@XZ 00412b90 f i BWAPI:WeaponType.obj
 0001:00011b90       ?_Buynode@?$_Tree@V?$_Tset_traits@VDamageType@BWAPI@@U?$less@VDamageType@BWAPI@@@std@@V?$allocator@VDamageType@BWAPI@@@4@$0A@@std@@@std@@IAEPAU_Node@?$_Tree_nod@V?$_Tset_traits@VDamageType@BWAPI@@U?$less@VDamageType@BWAPI@@@std@@V?$allocator@VDamageType@BWAPI@@@4@$0A@@std@@@2@XZ 00412b90 f i BWAPI:DamageType.obj
 0001:00011bd0       ?_Insert@?$_Tree@V?$_Tmap_traits@VUnitType@BWAPI@@HU?$less@VUnitType@BWAPI@@@std@@V?$allocator@U?$pair@$$CBVUnitType@BWAPI@@H@std@@@4@$0A@@std@@@std@@IAE?AViterator@12@_NPAU_Node@?$_Tree_nod@V?$_Tmap_traits@VUnitType@BWAPI@@HU?$less@VUnitType@BWAPI@@@std@@V?$allocator@U?$pair@$$CBVUnitType@BWAPI@@H@std@@@4@$0A@@std@@@2@ABU?$pair@$$CBVUnitType@BWAPI@@H@2@@Z 00412bd0 f i BWAPI:UnitType.obj
 0001:00011dd0       ?insert@?$_Tree@V?$_Tmap_traits@VUnitType@BWAPI@@HU?$less@VUnitType@BWAPI@@@std@@V?$allocator@U?$pair@$$CBVUnitType@BWAPI@@H@std@@@4@$0A@@std@@@std@@QAE?AU?$pair@Viterator@?$_Tree@V?$_Tmap_traits@VUnitType@BWAPI@@HU?$less@VUnitType@BWAPI@@@std@@V?$allocator@U?$pair@$$CBVUnitType@BWAPI@@H@std@@@4@$0A@@std@@@std@@_N@2@ABU?$pair@$$CBVUnitType@BWAPI@@H@2@@Z 00412dd0 f i BWAPI:UnitType.obj
 0001:00011ef0       ?find@?$_Tree@V?$_Tset_traits@VTechType@BWAPI@@U?$less@VTechType@BWAPI@@@std@@V?$allocator@VTechType@BWAPI@@@4@$0A@@std@@@std@@QAE?AViterator@12@ABVTechType@BWAPI@@@Z 00412ef0 f i BWAPI:UnitType.obj
 0001:00011f80       ?set@UnitTypeInternal@BWAPI@@QAEXPBDVRace@2@_NVUnitType@2@H33VTechType@2@4444VUpgradeType@2@HHHHHHHHHHHHHVUnitSizeType@2@HHHHHHHHVWeaponType@2@H7HNHHH22222222222222222222222@Z 00412f80 f i BWAPI:UnitType.obj
 0001:000124e0       ?init@UnitTypes@BWAPI@@YAXXZ 004134e0 f   BWAPI:UnitType.obj
 0001:0001e6b0       ??1UnitTypeInternal@BWAPI@@QAE@XZ 0041f6b0 f i BWAPI:UnitType.obj
 0001:0001e720       ??1?$set@VUnitType@BWAPI@@U?$less@VUnitType@BWAPI@@@std@@V?$allocator@VUnitType@BWAPI@@@4@@std@@QAE@XZ 0041f720 f i BWAPI:UnitType.obj
 0001:0001e720       ??1?$set@VTechType@BWAPI@@U?$less@VTechType@BWAPI@@@std@@V?$allocator@VTechType@BWAPI@@@4@@std@@QAE@XZ 0041f720 f i BWAPI:UnitType.obj
 0001:0001e720       ??1?$set@VUpgradeType@BWAPI@@U?$less@VUpgradeType@BWAPI@@@std@@V?$allocator@VUpgradeType@BWAPI@@@4@@std@@QAE@XZ 0041f720 f i BWAPI:UnitType.obj
 0001:0001e730       ??0?$_Tree@V?$_Tmap_traits@VUnitType@BWAPI@@HU?$less@VUnitType@BWAPI@@@std@@V?$allocator@U?$pair@$$CBVUnitType@BWAPI@@H@std@@@4@$0A@@std@@@std@@QAE@ABU?$less@VUnitType@BWAPI@@@1@ABV?$allocator@U?$pair@$$CBVUnitType@BWAPI@@H@std@@@1@@Z 0041f730 f i BWAPI:UnitType.obj
 0001:0001e7b0       ??0UnitTypeInternal@BWAPI@@QAE@XZ 0041f7b0 f i BWAPI:UnitType.obj
 0001:0001e890       ??0UpgradeType@BWAPI@@QAE@XZ 0041f890 f   BWAPI:UpgradeType.obj
 0001:0001e8a0       ?getName@UpgradeType@BWAPI@@QBEABV?$basic_string@DU?$char_traits@D@std@@V?$allocator@D@2@@std@@XZ 0041f8a0 f   BWAPI:UpgradeType.obj
 0001:0001e8b0       ?whatUpgrades@UpgradeType@BWAPI@@QBE?AVUnitType@2@XZ 0041f8b0 f   BWAPI:UpgradeType.obj
 0001:0001e8d0       ?whatUses@UpgradeType@BWAPI@@QBEABV?$set@VUnitType@BWAPI@@U?$less@VUnitType@BWAPI@@@std@@V?$allocator@VUnitType@BWAPI@@@4@@std@@XZ 0041f8d0 f   BWAPI:UpgradeType.obj
 0001:0001e8e0       ?allUpgradeTypes@UpgradeTypes@BWAPI@@YAABV?$set@VUpgradeType@BWAPI@@U?$less@VUpgradeType@BWAPI@@@std@@V?$allocator@VUpgradeType@BWAPI@@@4@@std@@XZ 0041f8e0 f   BWAPI:UpgradeType.obj
 0001:0001e8f0       ?mineralPrice@UpgradeType@BWAPI@@QBEHH@Z 0041f8f0 f   BWAPI:UpgradeType.obj
 0001:0001e930       ?gasPrice@UpgradeType@BWAPI@@QBEHH@Z 0041f930 f   BWAPI:UpgradeType.obj
 0001:0001e970       ?upgradeTime@UpgradeType@BWAPI@@QBEHH@Z 0041f970 f   BWAPI:UpgradeType.obj
 0001:0001e9b0       ?_Dec@const_iterator@?$_Tree@V?$_Tmap_traits@V?$basic_string@DU?$char_traits@D@std@@V?$allocator@D@2@@std@@VUnitSizeType@BWAPI@@U?$less@V?$basic_string@DU?$char_traits@D@std@@V?$allocator@D@2@@std@@@2@V?$allocator@U?$pair@$$CBV?$basic_string@DU?$char_traits@D@std@@V?$allocator@D@2@@std@@VUnitSizeType@BWAPI@@@std@@@2@$0A@@std@@@std@@QAEXXZ 0041f9b0 f i BWAPI:UnitSizeType.obj
 0001:0001e9b0       ?_Dec@const_iterator@?$_Tree@V?$_Tmap_traits@V?$basic_string@DU?$char_traits@D@std@@V?$allocator@D@2@@std@@VOrder@BWAPI@@U?$less@V?$basic_string@DU?$char_traits@D@std@@V?$allocator@D@2@@std@@@2@V?$allocator@U?$pair@$$CBV?$basic_string@DU?$char_traits@D@std@@V?$allocator@D@2@@std@@VOrder@BWAPI@@@std@@@2@$0A@@std@@@std@@QAEXXZ 0041f9b0 f i BWAPI:Order.obj
 0001:0001e9b0       ?_Dec@const_iterator@?$_Tree@V?$_Tmap_traits@V?$basic_string@DU?$char_traits@D@std@@V?$allocator@D@2@@std@@VTechType@BWAPI@@U?$less@V?$basic_string@DU?$char_traits@D@std@@V?$allocator@D@2@@std@@@2@V?$allocator@U?$pair@$$CBV?$basic_string@DU?$char_traits@D@std@@V?$allocator@D@2@@std@@VTechType@BWAPI@@@std@@@2@$0A@@std@@@std@@QAEXXZ 0041f9b0 f i BWAPI:TechType.obj
 0001:0001e9b0       ?_Dec@const_iterator@?$_Tree@V?$_Tmap_traits@V?$basic_string@DU?$char_traits@D@std@@V?$allocator@D@2@@std@@VDamageType@BWAPI@@U?$less@V?$basic_string@DU?$char_traits@D@std@@V?$allocator@D@2@@std@@@2@V?$allocator@U?$pair@$$CBV?$basic_string@DU?$char_traits@D@std@@V?$allocator@D@2@@std@@VDamageType@BWAPI@@@std@@@2@$0A@@std@@@std@@QAEXXZ 0041f9b0 f i BWAPI:DamageType.obj
 0001:0001e9b0       ?_Dec@const_iterator@?$_Tree@V?$_Tmap_traits@V?$basic_string@DU?$char_traits@D@std@@V?$allocator@D@2@@std@@VPlayerType@BWAPI@@U?$less@V?$basic_string@DU?$char_traits@D@std@@V?$allocator@D@2@@std@@@2@V?$allocator@U?$pair@$$CBV?$basic_string@DU?$char_traits@D@std@@V?$allocator@D@2@@std@@VPlayerType@BWAPI@@@std@@@2@$0A@@std@@@std@@QAEXXZ 0041f9b0 f i BWAPI:PlayerType.obj
 0001:0001e9b0       ?_Dec@const_iterator@?$_Tree@V?$_Tmap_traits@V?$basic_string@DU?$char_traits@D@std@@V?$allocator@D@2@@std@@VExplosionType@BWAPI@@U?$less@V?$basic_string@DU?$char_traits@D@std@@V?$allocator@D@2@@std@@@2@V?$allocator@U?$pair@$$CBV?$basic_string@DU?$char_traits@D@std@@V?$allocator@D@2@@std@@VExplosionType@BWAPI@@@std@@@2@$0A@@std@@@std@@QAEXXZ 0041f9b0 f i BWAPI:ExplosionType.obj
 0001:0001e9b0       ?_Dec@const_iterator@?$_Tree@V?$_Tmap_traits@V?$basic_string@DU?$char_traits@D@std@@V?$allocator@D@2@@std@@VUnitType@BWAPI@@U?$less@V?$basic_string@DU?$char_traits@D@std@@V?$allocator@D@2@@std@@@2@V?$allocator@U?$pair@$$CBV?$basic_string@DU?$char_traits@D@std@@V?$allocator@D@2@@std@@VUnitType@BWAPI@@@std@@@2@$0A@@std@@@std@@QAEXXZ 0041f9b0 f i BWAPI:UnitType.obj
 0001:0001e9b0       ?_Dec@const_iterator@?$_Tree@V?$_Tmap_traits@V?$basic_string@DU?$char_traits@D@std@@V?$allocator@D@2@@std@@VWeaponType@BWAPI@@U?$less@V?$basic_string@DU?$char_traits@D@std@@V?$allocator@D@2@@std@@@2@V?$allocator@U?$pair@$$CBV?$basic_string@DU?$char_traits@D@std@@V?$allocator@D@2@@std@@VWeaponType@BWAPI@@@std@@@2@$0A@@std@@@std@@QAEXXZ 0041f9b0 f i BWAPI:WeaponType.obj
 0001:0001e9b0       ?_Dec@const_iterator@?$_Tree@V?$_Tmap_traits@V?$basic_string@DU?$char_traits@D@std@@V?$allocator@D@2@@std@@VUnitCommandType@BWAPI@@U?$less@V?$basic_string@DU?$char_traits@D@std@@V?$allocator@D@2@@std@@@2@V?$allocator@U?$pair@$$CBV?$basic_string@DU?$char_traits@D@std@@V?$allocator@D@2@@std@@VUnitCommandType@BWAPI@@@std@@@2@$0A@@std@@@std@@QAEXXZ 0041f9b0 f i BWAPI:UnitCommandType.obj
 0001:0001e9b0       ?_Dec@const_iterator@?$_Tree@V?$_Tmap_traits@V?$basic_string@DU?$char_traits@D@std@@V?$allocator@D@2@@std@@VUpgradeType@BWAPI@@U?$less@V?$basic_string@DU?$char_traits@D@std@@V?$allocator@D@2@@std@@@2@V?$allocator@U?$pair@$$CBV?$basic_string@DU?$char_traits@D@std@@V?$allocator@D@2@@std@@VUpgradeType@BWAPI@@@std@@@2@$0A@@std@@@std@@QAEXXZ 0041f9b0 f i BWAPI:UpgradeType.obj
 0001:0001e9b0       ?_Dec@const_iterator@?$_Tree@V?$_Tmap_traits@V?$basic_string@DU?$char_traits@D@std@@V?$allocator@D@2@@std@@VRace@BWAPI@@U?$less@V?$basic_string@DU?$char_traits@D@std@@V?$allocator@D@2@@std@@@2@V?$allocator@U?$pair@$$CBV?$basic_string@DU?$char_traits@D@std@@V?$allocator@D@2@@std@@VRace@BWAPI@@@std@@@2@$0A@@std@@@std@@QAEXXZ 0041f9b0 f i BWAPI:Race.obj
 0001:0001e9b0       ?_Dec@const_iterator@?$_Tree@V?$_Tmap_traits@V?$basic_string@DU?$char_traits@D@std@@V?$allocator@D@2@@std@@VGameType@BWAPI@@U?$less@V?$basic_string@DU?$char_traits@D@std@@V?$allocator@D@2@@std@@@2@V?$allocator@U?$pair@$$CBV?$basic_string@DU?$char_traits@D@std@@V?$allocator@D@2@@std@@VGameType@BWAPI@@@std@@@2@$0A@@std@@@std@@QAEXXZ 0041f9b0 f i BWAPI:GameType.obj
 0001:0001e9b0       ?_Dec@const_iterator@?$_Tree@V?$_Tmap_traits@V?$basic_string@DU?$char_traits@D@std@@V?$allocator@D@2@@std@@VError@BWAPI@@U?$less@V?$basic_string@DU?$char_traits@D@std@@V?$allocator@D@2@@std@@@2@V?$allocator@U?$pair@$$CBV?$basic_string@DU?$char_traits@D@std@@V?$allocator@D@2@@std@@VError@BWAPI@@@std@@@2@$0A@@std@@@std@@QAEXXZ 0041f9b0 f i BWAPI:Error.obj
 0001:0001e9b0       ?_Dec@const_iterator@?$_Tree@V?$_Tmap_traits@V?$basic_string@DU?$char_traits@D@std@@V?$allocator@D@2@@std@@VBulletType@BWAPI@@U?$less@V?$basic_string@DU?$char_traits@D@std@@V?$allocator@D@2@@std@@@2@V?$allocator@U?$pair@$$CBV?$basic_string@DU?$char_traits@D@std@@V?$allocator@D@2@@std@@VBulletType@BWAPI@@@std@@@2@$0A@@std@@@std@@QAEXXZ 0041f9b0 f i BWAPI:BulletType.obj
 0001:0001ea40       ?set@UpgradeTypeInternal@BWAPI@@QAEXPBDHHHHHHVUnitType@2@VRace@2@1H111@Z 0041fa40 f i BWAPI:UpgradeType.obj
 0001:0001eaf0       ?init@UpgradeTypes@BWAPI@@YAXXZ 0041faf0 f   BWAPI:UpgradeType.obj
 0001:00020f20       ??1UpgradeTypeInternal@BWAPI@@QAE@XZ 00421f20 f i BWAPI:UpgradeType.obj
 0001:00020f70       ??0UpgradeTypeInternal@BWAPI@@QAE@XZ 00421f70 f i BWAPI:UpgradeType.obj
 0001:00021000       ??0TechType@BWAPI@@QAE@XZ  00422000 f   BWAPI:TechType.obj
 0001:00021010       ?getName@TechType@BWAPI@@QBEABV?$basic_string@DU?$char_traits@D@std@@V?$allocator@D@2@@std@@XZ 00422010 f   BWAPI:TechType.obj
 0001:00021020       ?mineralPrice@TechType@BWAPI@@QBEHXZ 00422020 f   BWAPI:TechType.obj
 0001:00021030       ?gasPrice@TechType@BWAPI@@QBEHXZ 00422030 f   BWAPI:TechType.obj
 0001:00021040       ?researchTime@TechType@BWAPI@@QBEHXZ 00422040 f   BWAPI:TechType.obj
 0001:00021050       ?whatResearches@TechType@BWAPI@@QBE?AVUnitType@2@XZ 00422050 f   BWAPI:TechType.obj
 0001:00021070       ?set@TechTypeInternal@BWAPI@@QAEXPBDHHHHVUnitType@2@VRace@2@VWeaponType@2@_N4VOrder@2@111111@Z 00422070 f i BWAPI:TechType.obj
 0001:000211e0       ?init@TechTypes@BWAPI@@YAXXZ 004221e0 f   BWAPI:TechType.obj
 0001:000223b0       ??1TechTypeInternal@BWAPI@@QAE@XZ 004233b0 f i BWAPI:TechType.obj
 0001:00022400       ??0?$_Tree@V?$_Tmap_traits@V?$basic_string@DU?$char_traits@D@std@@V?$allocator@D@2@@std@@VTechType@BWAPI@@U?$less@V?$basic_string@DU?$char_traits@D@std@@V?$allocator@D@2@@std@@@2@V?$allocator@U?$pair@$$CBV?$basic_string@DU?$char_traits@D@std@@V?$allocator@D@2@@std@@VTechType@BWAPI@@@std@@@2@$0A@@std@@@std@@QAE@ABU?$less@V?$basic_string@DU?$char_traits@D@std@@V?$allocator@D@2@@std@@@1@ABV?$allocator@U?$pair@$$CBV?$basic_string@DU?$char_traits@D@std@@V?$allocator@D@2@@std@@VTechType@BWAPI@@@std@@@1@@Z 00423400 f i BWAPI:TechType.obj
 0001:00022400       ??0?$_Tree@V?$_Tmap_traits@V?$basic_string@DU?$char_traits@D@std@@V?$allocator@D@2@@std@@VRace@BWAPI@@U?$less@V?$basic_string@DU?$char_traits@D@std@@V?$allocator@D@2@@std@@@2@V?$allocator@U?$pair@$$CBV?$basic_string@DU?$char_traits@D@std@@V?$allocator@D@2@@std@@VRace@BWAPI@@@std@@@2@$0A@@std@@@std@@QAE@ABU?$less@V?$basic_string@DU?$char_traits@D@std@@V?$allocator@D@2@@std@@@1@ABV?$allocator@U?$pair@$$CBV?$basic_string@DU?$char_traits@D@std@@V?$allocator@D@2@@std@@VRace@BWAPI@@@std@@@1@@Z 00423400 f i BWAPI:Race.obj
 0001:00022400       ??0?$_Tree@V?$_Tmap_traits@V?$basic_string@DU?$char_traits@D@std@@V?$allocator@D@2@@std@@VExplosionType@BWAPI@@U?$less@V?$basic_string@DU?$char_traits@D@std@@V?$allocator@D@2@@std@@@2@V?$allocator@U?$pair@$$CBV?$basic_string@DU?$char_traits@D@std@@V?$allocator@D@2@@std@@VExplosionType@BWAPI@@@std@@@2@$0A@@std@@@std@@QAE@ABU?$less@V?$basic_string@DU?$char_traits@D@std@@V?$allocator@D@2@@std@@@1@ABV?$allocator@U?$pair@$$CBV?$basic_string@DU?$char_traits@D@std@@V?$allocator@D@2@@std@@VExplosionType@BWAPI@@@std@@@1@@Z 00423400 f i BWAPI:ExplosionType.obj
 0001:00022400       ??0?$_Tree@V?$_Tmap_traits@V?$basic_string@DU?$char_traits@D@std@@V?$allocator@D@2@@std@@VUnitCommandType@BWAPI@@U?$less@V?$basic_string@DU?$char_traits@D@std@@V?$allocator@D@2@@std@@@2@V?$allocator@U?$pair@$$CBV?$basic_string@DU?$char_traits@D@std@@V?$allocator@D@2@@std@@VUnitCommandType@BWAPI@@@std@@@2@$0A@@std@@@std@@QAE@ABU?$less@V?$basic_string@DU?$char_traits@D@std@@V?$allocator@D@2@@std@@@1@ABV?$allocator@U?$pair@$$CBV?$basic_string@DU?$char_traits@D@std@@V?$allocator@D@2@@std@@VUnitCommandType@BWAPI@@@std@@@1@@Z 00423400 f i BWAPI:UnitCommandType.obj
 0001:00022400       ??0?$_Tree@V?$_Tmap_traits@V?$basic_string@DU?$char_traits@D@std@@V?$allocator@D@2@@std@@VUnitSizeType@BWAPI@@U?$less@V?$basic_string@DU?$char_traits@D@std@@V?$allocator@D@2@@std@@@2@V?$allocator@U?$pair@$$CBV?$basic_string@DU?$char_traits@D@std@@V?$allocator@D@2@@std@@VUnitSizeType@BWAPI@@@std@@@2@$0A@@std@@@std@@QAE@ABU?$less@V?$basic_string@DU?$char_traits@D@std@@V?$allocator@D@2@@std@@@1@ABV?$allocator@U?$pair@$$CBV?$basic_string@DU?$char_traits@D@std@@V?$allocator@D@2@@std@@VUnitSizeType@BWAPI@@@std@@@1@@Z 00423400 f i BWAPI:UnitSizeType.obj
 0001:00022400       ??0?$_Tree@V?$_Tmap_traits@V?$basic_string@DU?$char_traits@D@std@@V?$allocator@D@2@@std@@VPlayerType@BWAPI@@U?$less@V?$basic_string@DU?$char_traits@D@std@@V?$allocator@D@2@@std@@@2@V?$allocator@U?$pair@$$CBV?$basic_string@DU?$char_traits@D@std@@V?$allocator@D@2@@std@@VPlayerType@BWAPI@@@std@@@2@$0A@@std@@@std@@QAE@ABU?$less@V?$basic_string@DU?$char_traits@D@std@@V?$allocator@D@2@@std@@@1@ABV?$allocator@U?$pair@$$CBV?$basic_string@DU?$char_traits@D@std@@V?$allocator@D@2@@std@@VPlayerType@BWAPI@@@std@@@1@@Z 00423400 f i BWAPI:PlayerType.obj
 0001:00022400       ??0?$_Tree@V?$_Tmap_traits@V?$basic_string@DU?$char_traits@D@std@@V?$allocator@D@2@@std@@VDamageType@BWAPI@@U?$less@V?$basic_string@DU?$char_traits@D@std@@V?$allocator@D@2@@std@@@2@V?$allocator@U?$pair@$$CBV?$basic_string@DU?$char_traits@D@std@@V?$allocator@D@2@@std@@VDamageType@BWAPI@@@std@@@2@$0A@@std@@@std@@QAE@ABU?$less@V?$basic_string@DU?$char_traits@D@std@@V?$allocator@D@2@@std@@@1@ABV?$allocator@U?$pair@$$CBV?$basic_string@DU?$char_traits@D@std@@V?$allocator@D@2@@std@@VDamageType@BWAPI@@@std@@@1@@Z 00423400 f i BWAPI:DamageType.obj
 0001:00022400       ??0?$_Tree@V?$_Tmap_traits@V?$basic_string@DU?$char_traits@D@std@@V?$allocator@D@2@@std@@VUpgradeType@BWAPI@@U?$less@V?$basic_string@DU?$char_traits@D@std@@V?$allocator@D@2@@std@@@2@V?$allocator@U?$pair@$$CBV?$basic_string@DU?$char_traits@D@std@@V?$allocator@D@2@@std@@VUpgradeType@BWAPI@@@std@@@2@$0A@@std@@@std@@QAE@ABU?$less@V?$basic_string@DU?$char_traits@D@std@@V?$allocator@D@2@@std@@@1@ABV?$allocator@U?$pair@$$CBV?$basic_string@DU?$char_traits@D@std@@V?$allocator@D@2@@std@@VUpgradeType@BWAPI@@@std@@@1@@Z 00423400 f i BWAPI:UpgradeType.obj
 0001:00022400       ??0?$_Tree@V?$_Tmap_traits@V?$basic_string@DU?$char_traits@D@std@@V?$allocator@D@2@@std@@VBulletType@BWAPI@@U?$less@V?$basic_string@DU?$char_traits@D@std@@V?$allocator@D@2@@std@@@2@V?$allocator@U?$pair@$$CBV?$basic_string@DU?$char_traits@D@std@@V?$allocator@D@2@@std@@VBulletType@BWAPI@@@std@@@2@$0A@@std@@@std@@QAE@ABU?$less@V?$basic_string@DU?$char_traits@D@std@@V?$allocator@D@2@@std@@@1@ABV?$allocator@U?$pair@$$CBV?$basic_string@DU?$char_traits@D@std@@V?$allocator@D@2@@std@@VBulletType@BWAPI@@@std@@@1@@Z 00423400 f i BWAPI:BulletType.obj
 0001:00022400       ??0?$_Tree@V?$_Tmap_traits@V?$basic_string@DU?$char_traits@D@std@@V?$allocator@D@2@@std@@VGameType@BWAPI@@U?$less@V?$basic_string@DU?$char_traits@D@std@@V?$allocator@D@2@@std@@@2@V?$allocator@U?$pair@$$CBV?$basic_string@DU?$char_traits@D@std@@V?$allocator@D@2@@std@@VGameType@BWAPI@@@std@@@2@$0A@@std@@@std@@QAE@ABU?$less@V?$basic_string@DU?$char_traits@D@std@@V?$allocator@D@2@@std@@@1@ABV?$allocator@U?$pair@$$CBV?$basic_string@DU?$char_traits@D@std@@V?$allocator@D@2@@std@@VGameType@BWAPI@@@std@@@1@@Z 00423400 f i BWAPI:GameType.obj
 0001:00022400       ??0?$_Tree@V?$_Tmap_traits@V?$basic_string@DU?$char_traits@D@std@@V?$allocator@D@2@@std@@VUnitType@BWAPI@@U?$less@V?$basic_string@DU?$char_traits@D@std@@V?$allocator@D@2@@std@@@2@V?$allocator@U?$pair@$$CBV?$basic_string@DU?$char_traits@D@std@@V?$allocator@D@2@@std@@VUnitType@BWAPI@@@std@@@2@$0A@@std@@@std@@QAE@ABU?$less@V?$basic_string@DU?$char_traits@D@std@@V?$allocator@D@2@@std@@@1@ABV?$allocator@U?$pair@$$CBV?$basic_string@DU?$char_traits@D@std@@V?$allocator@D@2@@std@@VUnitType@BWAPI@@@std@@@1@@Z 00423400 f i BWAPI:UnitType.obj
 0001:00022400       ??0?$_Tree@V?$_Tmap_traits@V?$basic_string@DU?$char_traits@D@std@@V?$allocator@D@2@@std@@VWeaponType@BWAPI@@U?$less@V?$basic_string@DU?$char_traits@D@std@@V?$allocator@D@2@@std@@@2@V?$allocator@U?$pair@$$CBV?$basic_string@DU?$char_traits@D@std@@V?$allocator@D@2@@std@@VWeaponType@BWAPI@@@std@@@2@$0A@@std@@@std@@QAE@ABU?$less@V?$basic_string@DU?$char_traits@D@std@@V?$allocator@D@2@@std@@@1@ABV?$allocator@U?$pair@$$CBV?$basic_string@DU?$char_traits@D@std@@V?$allocator@D@2@@std@@VWeaponType@BWAPI@@@std@@@1@@Z 00423400 f i BWAPI:WeaponType.obj
 0001:00022400       ??0?$_Tree@V?$_Tmap_traits@V?$basic_string@DU?$char_traits@D@std@@V?$allocator@D@2@@std@@VOrder@BWAPI@@U?$less@V?$basic_string@DU?$char_traits@D@std@@V?$allocator@D@2@@std@@@2@V?$allocator@U?$pair@$$CBV?$basic_string@DU?$char_traits@D@std@@V?$allocator@D@2@@std@@VOrder@BWAPI@@@std@@@2@$0A@@std@@@std@@QAE@ABU?$less@V?$basic_string@DU?$char_traits@D@std@@V?$allocator@D@2@@std@@@1@ABV?$allocator@U?$pair@$$CBV?$basic_string@DU?$char_traits@D@std@@V?$allocator@D@2@@std@@VOrder@BWAPI@@@std@@@1@@Z 00423400 f i BWAPI:Order.obj
 0001:00022400       ??0?$_Tree@V?$_Tmap_traits@V?$basic_string@DU?$char_traits@D@std@@V?$allocator@D@2@@std@@VError@BWAPI@@U?$less@V?$basic_string@DU?$char_traits@D@std@@V?$allocator@D@2@@std@@@2@V?$allocator@U?$pair@$$CBV?$basic_string@DU?$char_traits@D@std@@V?$allocator@D@2@@std@@VError@BWAPI@@@std@@@2@$0A@@std@@@std@@QAE@ABU?$less@V?$basic_string@DU?$char_traits@D@std@@V?$allocator@D@2@@std@@@1@ABV?$allocator@U?$pair@$$CBV?$basic_string@DU?$char_traits@D@std@@V?$allocator@D@2@@std@@VError@BWAPI@@@std@@@1@@Z 00423400 f i BWAPI:Error.obj
 0001:00022480       ??0TechTypeInternal@BWAPI@@QAE@XZ 00423480 f i BWAPI:TechType.obj
 0001:00022500       ?BWAPI_init@BWAPI@@YAXXZ   00423500 f   BWAPI:BWAPI.obj
 0001:00022550       ??0Type@BWAPI@@QAE@H@Z     00423550 f   BWAPI:Type.obj
 0001:00022560       ?getID@Type@BWAPI@@QBEHXZ  00423560 f   BWAPI:Type.obj
 0001:00022560       ??BType@BWAPI@@QBEHXZ      00423560 f   BWAPI:Type.obj
 0001:00022570       ?fixName@BWAPI@@YAXPAV?$basic_string@DU?$char_traits@D@std@@V?$allocator@D@2@@std@@@Z 00423570 f   BWAPI:Common.obj
 0001:00022630       ??0WeaponTypeInternal@BWAPI@@QAE@XZ 00423630 f i BWAPI:WeaponType.obj
 0001:000226a0       ?set@WeaponTypeInternal@BWAPI@@QAEXPBDVTechType@2@HHHHVUpgradeType@2@VDamageType@2@VExplosionType@2@HHHHH_N55555555VUnitType@2@@Z 004236a0 f i BWAPI:WeaponType.obj
 0001:00022770       ??1?$pair@V?$basic_string@DU?$char_traits@D@std@@V?$allocator@D@2@@std@@VError@BWAPI@@@std@@QAE@XZ 00423770 f i BWAPI:Error.obj
 0001:00022770       ??1?$pair@V?$basic_string@DU?$char_traits@D@std@@V?$allocator@D@2@@std@@VTechType@BWAPI@@@std@@QAE@XZ 00423770 f i BWAPI:TechType.obj
 0001:00022770       ??1RaceInternal@BWAPI@@QAE@XZ 00423770 f i BWAPI:Race.obj
 0001:00022770       ??1?$pair@$$CBV?$basic_string@DU?$char_traits@D@std@@V?$allocator@D@2@@std@@VUpgradeType@BWAPI@@@std@@QAE@XZ 00423770 f i BWAPI:UpgradeType.obj
 0001:00022770       ??1?$pair@$$CBV?$basic_string@DU?$char_traits@D@std@@V?$allocator@D@2@@std@@VWeaponType@BWAPI@@@std@@QAE@XZ 00423770 f i BWAPI:WeaponType.obj
 0001:00022770       ??1?$pair@$$CBV?$basic_string@DU?$char_traits@D@std@@V?$allocator@D@2@@std@@VOrder@BWAPI@@@std@@QAE@XZ 00423770 f i BWAPI:Order.obj
 0001:00022770       ??1?$pair@$$CBV?$basic_string@DU?$char_traits@D@std@@V?$allocator@D@2@@std@@VError@BWAPI@@@std@@QAE@XZ 00423770 f i BWAPI:Error.obj
 0001:00022770       ??1?$pair@V?$basic_string@DU?$char_traits@D@std@@V?$allocator@D@2@@std@@VBulletType@BWAPI@@@std@@QAE@XZ 00423770 f i BWAPI:BulletType.obj
 0001:00022770       ??1?$pair@V?$basic_string@DU?$char_traits@D@std@@V?$allocator@D@2@@std@@VUpgradeType@BWAPI@@@std@@QAE@XZ 00423770 f i BWAPI:UpgradeType.obj
 0001:00022770       ??1?$pair@V?$basic_string@DU?$char_traits@D@std@@V?$allocator@D@2@@std@@VWeaponType@BWAPI@@@std@@QAE@XZ 00423770 f i BWAPI:WeaponType.obj
 0001:00022770       ??1?$pair@$$CBV?$basic_string@DU?$char_traits@D@std@@V?$allocator@D@2@@std@@VGameType@BWAPI@@@std@@QAE@XZ 00423770 f i BWAPI:GameType.obj
 0001:00022770       ??1?$pair@V?$basic_string@DU?$char_traits@D@std@@V?$allocator@D@2@@std@@VUnitType@BWAPI@@@std@@QAE@XZ 00423770 f i BWAPI:UnitType.obj
 0001:00022770       ??1?$pair@V?$basic_string@DU?$char_traits@D@std@@V?$allocator@D@2@@std@@VOrder@BWAPI@@@std@@QAE@XZ 00423770 f i BWAPI:Order.obj
 0001:00022770       ??1?$pair@$$CBV?$basic_string@DU?$char_traits@D@std@@V?$allocator@D@2@@std@@VPlayerType@BWAPI@@@std@@QAE@XZ 00423770 f i BWAPI:PlayerType.obj
 0001:00022770       ??1?$pair@V?$basic_string@DU?$char_traits@D@std@@V?$allocator@D@2@@std@@VUnitCommandType@BWAPI@@@std@@QAE@XZ 00423770 f i BWAPI:UnitCommandType.obj
 0001:00022770       ??1WeaponTypeInternal@BWAPI@@QAE@XZ 00423770 f i BWAPI:WeaponType.obj
 0001:00022770       ??1?$pair@V?$basic_string@DU?$char_traits@D@std@@V?$allocator@D@2@@std@@VExplosionType@BWAPI@@@std@@QAE@XZ 00423770 f i BWAPI:ExplosionType.obj
 0001:00022770       ??1?$pair@$$CBV?$basic_string@DU?$char_traits@D@std@@V?$allocator@D@2@@std@@VUnitType@BWAPI@@@std@@QAE@XZ 00423770 f i BWAPI:UnitType.obj
 0001:00022770       ??1?$pair@$$CBV?$basic_string@DU?$char_traits@D@std@@V?$allocator@D@2@@std@@VBulletType@BWAPI@@@std@@QAE@XZ 00423770 f i BWAPI:BulletType.obj
 0001:00022770       ??1?$pair@V?$basic_string@DU?$char_traits@D@std@@V?$allocator@D@2@@std@@VGameType@BWAPI@@@std@@QAE@XZ 00423770 f i BWAPI:GameType.obj
 0001:00022770       ??1?$pair@$$CBV?$basic_string@DU?$char_traits@D@std@@V?$allocator@D@2@@std@@VUnitSizeType@BWAPI@@@std@@QAE@XZ 00423770 f i BWAPI:UnitSizeType.obj
 0001:00022770       ??1?$pair@V?$basic_string@DU?$char_traits@D@std@@V?$allocator@D@2@@std@@VUnitSizeType@BWAPI@@@std@@QAE@XZ 00423770 f i BWAPI:UnitSizeType.obj
 0001:00022770       ??1?$pair@$$CBV?$basic_string@DU?$char_traits@D@std@@V?$allocator@D@2@@std@@VRace@BWAPI@@@std@@QAE@XZ 00423770 f i BWAPI:Race.obj
 0001:00022770       ??1?$pair@V?$basic_string@DU?$char_traits@D@std@@V?$allocator@D@2@@std@@VRace@BWAPI@@@std@@QAE@XZ 00423770 f i BWAPI:Race.obj
 0001:00022770       ??1?$pair@V?$basic_string@DU?$char_traits@D@std@@V?$allocator@D@2@@std@@VPlayerType@BWAPI@@@std@@QAE@XZ 00423770 f i BWAPI:PlayerType.obj
 0001:00022770       ??1?$pair@V?$basic_string@DU?$char_traits@D@std@@V?$allocator@D@2@@std@@VDamageType@BWAPI@@@std@@QAE@XZ 00423770 f i BWAPI:DamageType.obj
 0001:00022770       ??1?$pair@$$CBV?$basic_string@DU?$char_traits@D@std@@V?$allocator@D@2@@std@@VExplosionType@BWAPI@@@std@@QAE@XZ 00423770 f i BWAPI:ExplosionType.obj
 0001:00022770       ??1?$pair@$$CBV?$basic_string@DU?$char_traits@D@std@@V?$allocator@D@2@@std@@VUnitCommandType@BWAPI@@@std@@QAE@XZ 00423770 f i BWAPI:UnitCommandType.obj
 0001:00022770       ??1?$pair@$$CBV?$basic_string@DU?$char_traits@D@std@@V?$allocator@D@2@@std@@VTechType@BWAPI@@@std@@QAE@XZ 00423770 f i BWAPI:TechType.obj
 0001:00022770       ??1?$pair@$$CBV?$basic_string@DU?$char_traits@D@std@@V?$allocator@D@2@@std@@VDamageType@BWAPI@@@std@@QAE@XZ 00423770 f i BWAPI:DamageType.obj
 0001:00022780       ??0WeaponType@BWAPI@@QAE@XZ 00423780 f   BWAPI:WeaponType.obj
 0001:000227d0       ?init@WeaponTypes@BWAPI@@YAXXZ 004237d0 f   BWAPI:WeaponType.obj
 0001:00026270       ??0UnitSizeType@BWAPI@@QAE@XZ 00427270 f   BWAPI:UnitSizeType.obj
 0001:00026280       ?_Max@?$_Tree@V?$_Tset_traits@VBulletType@BWAPI@@U?$less@VBulletType@BWAPI@@@std@@V?$allocator@VBulletType@BWAPI@@@4@$0A@@std@@@std@@KAPAU_Node@?$_Tree_nod@V?$_Tset_traits@VBulletType@BWAPI@@U?$less@VBulletType@BWAPI@@@std@@V?$allocator@VBulletType@BWAPI@@@4@$0A@@std@@@2@PAU342@@Z 00427280 f i BWAPI:BulletType.obj
 0001:00026280       ?_Max@?$_Tree@V?$_Tset_traits@VUnitSizeType@BWAPI@@U?$less@VUnitSizeType@BWAPI@@@std@@V?$allocator@VUnitSizeType@BWAPI@@@4@$0A@@std@@@std@@KAPAU_Node@?$_Tree_nod@V?$_Tset_traits@VUnitSizeType@BWAPI@@U?$less@VUnitSizeType@BWAPI@@@std@@V?$allocator@VUnitSizeType@BWAPI@@@4@$0A@@std@@@2@PAU342@@Z 00427280 f i BWAPI:UnitSizeType.obj
 0001:00026280       ?_Max@?$_Tree@V?$_Tset_traits@VUnitType@BWAPI@@U?$less@VUnitType@BWAPI@@@std@@V?$allocator@VUnitType@BWAPI@@@4@$0A@@std@@@std@@KAPAU_Node@?$_Tree_nod@V?$_Tset_traits@VUnitType@BWAPI@@U?$less@VUnitType@BWAPI@@@std@@V?$allocator@VUnitType@BWAPI@@@4@$0A@@std@@@2@PAU342@@Z 00427280 f i BWAPI:UnitType.obj
 0001:00026280       ?_Max@?$_Tree@V?$_Tset_traits@VGameType@BWAPI@@U?$less@VGameType@BWAPI@@@std@@V?$allocator@VGameType@BWAPI@@@4@$0A@@std@@@std@@KAPAU_Node@?$_Tree_nod@V?$_Tset_traits@VGameType@BWAPI@@U?$less@VGameType@BWAPI@@@std@@V?$allocator@VGameType@BWAPI@@@4@$0A@@std@@@2@PAU342@@Z 00427280 f i BWAPI:GameType.obj
 0001:00026280       ?_Max@?$_Tree@V?$_Tset_traits@VError@BWAPI@@U?$less@VError@BWAPI@@@std@@V?$allocator@VError@BWAPI@@@4@$0A@@std@@@std@@KAPAU_Node@?$_Tree_nod@V?$_Tset_traits@VError@BWAPI@@U?$less@VError@BWAPI@@@std@@V?$allocator@VError@BWAPI@@@4@$0A@@std@@@2@PAU342@@Z 00427280 f i BWAPI:Error.obj
 0001:00026280       ?_Max@?$_Tree@V?$_Tset_traits@VOrder@BWAPI@@U?$less@VOrder@BWAPI@@@std@@V?$allocator@VOrder@BWAPI@@@4@$0A@@std@@@std@@KAPAU_Node@?$_Tree_nod@V?$_Tset_traits@VOrder@BWAPI@@U?$less@VOrder@BWAPI@@@std@@V?$allocator@VOrder@BWAPI@@@4@$0A@@std@@@2@PAU342@@Z 00427280 f i BWAPI:Order.obj
 0001:00026280       ?_Max@?$_Tree@V?$_Tset_traits@VUnitCommandType@BWAPI@@U?$less@VUnitCommandType@BWAPI@@@std@@V?$allocator@VUnitCommandType@BWAPI@@@4@$0A@@std@@@std@@KAPAU_Node@?$_Tree_nod@V?$_Tset_traits@VUnitCommandType@BWAPI@@U?$less@VUnitCommandType@BWAPI@@@std@@V?$allocator@VUnitCommandType@BWAPI@@@4@$0A@@std@@@2@PAU342@@Z 00427280 f i BWAPI:UnitCommandType.obj
 0001:00026280       ?_Max@?$_Tree@V?$_Tset_traits@VRace@BWAPI@@U?$less@VRace@BWAPI@@@std@@V?$allocator@VRace@BWAPI@@@4@$0A@@std@@@std@@KAPAU_Node@?$_Tree_nod@V?$_Tset_traits@VRace@BWAPI@@U?$less@VRace@BWAPI@@@std@@V?$allocator@VRace@BWAPI@@@4@$0A@@std@@@2@PAU342@@Z 00427280 f i BWAPI:Race.obj
 0001:00026280       ?_Max@?$_Tree@V?$_Tset_traits@VUpgradeType@BWAPI@@U?$less@VUpgradeType@BWAPI@@@std@@V?$allocator@VUpgradeType@BWAPI@@@4@$0A@@std@@@std@@KAPAU_Node@?$_Tree_nod@V?$_Tset_traits@VUpgradeType@BWAPI@@U?$less@VUpgradeType@BWAPI@@@std@@V?$allocator@VUpgradeType@BWAPI@@@4@$0A@@std@@@2@PAU342@@Z 00427280 f i BWAPI:UnitType.obj
 0001:00026280       ?_Max@?$_Tree@V?$_Tset_traits@VTechType@BWAPI@@U?$less@VTechType@BWAPI@@@std@@V?$allocator@VTechType@BWAPI@@@4@$0A@@std@@@std@@KAPAU_Node@?$_Tree_nod@V?$_Tset_traits@VTechType@BWAPI@@U?$less@VTechType@BWAPI@@@std@@V?$allocator@VTechType@BWAPI@@@4@$0A@@std@@@2@PAU342@@Z 00427280 f i BWAPI:UnitType.obj
 0001:00026280       ?_Max@?$_Tree@V?$_Tset_traits@VDamageType@BWAPI@@U?$less@VDamageType@BWAPI@@@std@@V?$allocator@VDamageType@BWAPI@@@4@$0A@@std@@@std@@KAPAU_Node@?$_Tree_nod@V?$_Tset_traits@VDamageType@BWAPI@@U?$less@VDamageType@BWAPI@@@std@@V?$allocator@VDamageType@BWAPI@@@4@$0A@@std@@@2@PAU342@@Z 00427280 f i BWAPI:DamageType.obj
 0001:00026280       ?_Max@?$_Tree@V?$_Tset_traits@VWeaponType@BWAPI@@U?$less@VWeaponType@BWAPI@@@std@@V?$allocator@VWeaponType@BWAPI@@@4@$0A@@std@@@std@@KAPAU_Node@?$_Tree_nod@V?$_Tset_traits@VWeaponType@BWAPI@@U?$less@VWeaponType@BWAPI@@@std@@V?$allocator@VWeaponType@BWAPI@@@4@$0A@@std@@@2@PAU342@@Z 00427280 f i BWAPI:WeaponType.obj
 0001:00026280       ?_Max@?$_Tree@V?$_Tset_traits@VPlayerType@BWAPI@@U?$less@VPlayerType@BWAPI@@@std@@V?$allocator@VPlayerType@BWAPI@@@4@$0A@@std@@@std@@KAPAU_Node@?$_Tree_nod@V?$_Tset_traits@VPlayerType@BWAPI@@U?$less@VPlayerType@BWAPI@@@std@@V?$allocator@VPlayerType@BWAPI@@@4@$0A@@std@@@2@PAU342@@Z 00427280 f i BWAPI:PlayerType.obj
 0001:00026280       ?_Max@?$_Tree@V?$_Tset_traits@VExplosionType@BWAPI@@U?$less@VExplosionType@BWAPI@@@std@@V?$allocator@VExplosionType@BWAPI@@@4@$0A@@std@@@std@@KAPAU_Node@?$_Tree_nod@V?$_Tset_traits@VExplosionType@BWAPI@@U?$less@VExplosionType@BWAPI@@@std@@V?$allocator@VExplosionType@BWAPI@@@4@$0A@@std@@@2@PAU342@@Z 00427280 f i BWAPI:ExplosionType.obj
 0001:000262a0       ?_Inc@const_iterator@?$_Tree@V?$_Tmap_traits@V?$basic_string@DU?$char_traits@D@std@@V?$allocator@D@2@@std@@VDamageType@BWAPI@@U?$less@V?$basic_string@DU?$char_traits@D@std@@V?$allocator@D@2@@std@@@2@V?$allocator@U?$pair@$$CBV?$basic_string@DU?$char_traits@D@std@@V?$allocator@D@2@@std@@VDamageType@BWAPI@@@std@@@2@$0A@@std@@@std@@QAEXXZ 004272a0 f i BWAPI:DamageType.obj
 0001:000262a0       ?_Inc@const_iterator@?$_Tree@V?$_Tmap_traits@V?$basic_string@DU?$char_traits@D@std@@V?$allocator@D@2@@std@@VWeaponType@BWAPI@@U?$less@V?$basic_string@DU?$char_traits@D@std@@V?$allocator@D@2@@std@@@2@V?$allocator@U?$pair@$$CBV?$basic_string@DU?$char_traits@D@std@@V?$allocator@D@2@@std@@VWeaponType@BWAPI@@@std@@@2@$0A@@std@@@std@@QAEXXZ 004272a0 f i BWAPI:WeaponType.obj
 0001:000262a0       ?_Inc@const_iterator@?$_Tree@V?$_Tmap_traits@V?$basic_string@DU?$char_traits@D@std@@V?$allocator@D@2@@std@@VUnitCommandType@BWAPI@@U?$less@V?$basic_string@DU?$char_traits@D@std@@V?$allocator@D@2@@std@@@2@V?$allocator@U?$pair@$$CBV?$basic_string@DU?$char_traits@D@std@@V?$allocator@D@2@@std@@VUnitCommandType@BWAPI@@@std@@@2@$0A@@std@@@std@@QAEXXZ 004272a0 f i BWAPI:UnitCommandType.obj
 0001:000262a0       ?_Inc@const_iterator@?$_Tree@V?$_Tmap_traits@V?$basic_string@DU?$char_traits@D@std@@V?$allocator@D@2@@std@@VUnitSizeType@BWAPI@@U?$less@V?$basic_string@DU?$char_traits@D@std@@V?$allocator@D@2@@std@@@2@V?$allocator@U?$pair@$$CBV?$basic_string@DU?$char_traits@D@std@@V?$allocator@D@2@@std@@VUnitSizeType@BWAPI@@@std@@@2@$0A@@std@@@std@@QAEXXZ 004272a0 f i BWAPI:UnitSizeType.obj
 0001:000262a0       ?_Inc@const_iterator@?$_Tree@V?$_Tmap_traits@V?$basic_string@DU?$char_traits@D@std@@V?$allocator@D@2@@std@@VBulletType@BWAPI@@U?$less@V?$basic_string@DU?$char_traits@D@std@@V?$allocator@D@2@@std@@@2@V?$allocator@U?$pair@$$CBV?$basic_string@DU?$char_traits@D@std@@V?$allocator@D@2@@std@@VBulletType@BWAPI@@@std@@@2@$0A@@std@@@std@@QAEXXZ 004272a0 f i BWAPI:BulletType.obj
 0001:000262a0       ?_Inc@const_iterator@?$_Tree@V?$_Tmap_traits@V?$basic_string@DU?$char_traits@D@std@@V?$allocator@D@2@@std@@VError@BWAPI@@U?$less@V?$basic_string@DU?$char_traits@D@std@@V?$allocator@D@2@@std@@@2@V?$allocator@U?$pair@$$CBV?$basic_string@DU?$char_traits@D@std@@V?$allocator@D@2@@std@@VError@BWAPI@@@std@@@2@$0A@@std@@@std@@QAEXXZ 004272a0 f i BWAPI:Error.obj
 0001:000262a0       ?_Inc@const_iterator@?$_Tree@V?$_Tmap_traits@V?$basic_string@DU?$char_traits@D@std@@V?$allocator@D@2@@std@@VRace@BWAPI@@U?$less@V?$basic_string@DU?$char_traits@D@std@@V?$allocator@D@2@@std@@@2@V?$allocator@U?$pair@$$CBV?$basic_string@DU?$char_traits@D@std@@V?$allocator@D@2@@std@@VRace@BWAPI@@@std@@@2@$0A@@std@@@std@@QAEXXZ 004272a0 f i BWAPI:Race.obj
 0001:000262a0       ?_Inc@const_iterator@?$_Tree@V?$_Tmap_traits@V?$basic_string@DU?$char_traits@D@std@@V?$allocator@D@2@@std@@VPlayerType@BWAPI@@U?$less@V?$basic_string@DU?$char_traits@D@std@@V?$allocator@D@2@@std@@@2@V?$allocator@U?$pair@$$CBV?$basic_string@DU?$char_traits@D@std@@V?$allocator@D@2@@std@@VPlayerType@BWAPI@@@std@@@2@$0A@@std@@@std@@QAEXXZ 004272a0 f i BWAPI:PlayerType.obj
 0001:000262a0       ?_Inc@const_iterator@?$_Tree@V?$_Tmap_traits@V?$basic_string@DU?$char_traits@D@std@@V?$allocator@D@2@@std@@VExplosionType@BWAPI@@U?$less@V?$basic_string@DU?$char_traits@D@std@@V?$allocator@D@2@@std@@@2@V?$allocator@U?$pair@$$CBV?$basic_string@DU?$char_traits@D@std@@V?$allocator@D@2@@std@@VExplosionType@BWAPI@@@std@@@2@$0A@@std@@@std@@QAEXXZ 004272a0 f i BWAPI:ExplosionType.obj
 0001:000262a0       ?_Inc@const_iterator@?$_Tree@V?$_Tmap_traits@V?$basic_string@DU?$char_traits@D@std@@V?$allocator@D@2@@std@@VGameType@BWAPI@@U?$less@V?$basic_string@DU?$char_traits@D@std@@V?$allocator@D@2@@std@@@2@V?$allocator@U?$pair@$$CBV?$basic_string@DU?$char_traits@D@std@@V?$allocator@D@2@@std@@VGameType@BWAPI@@@std@@@2@$0A@@std@@@std@@QAEXXZ 004272a0 f i BWAPI:GameType.obj
 0001:000262a0       ?_Inc@const_iterator@?$_Tree@V?$_Tmap_traits@V?$basic_string@DU?$char_traits@D@std@@V?$allocator@D@2@@std@@VUpgradeType@BWAPI@@U?$less@V?$basic_string@DU?$char_traits@D@std@@V?$allocator@D@2@@std@@@2@V?$allocator@U?$pair@$$CBV?$basic_string@DU?$char_traits@D@std@@V?$allocator@D@2@@std@@VUpgradeType@BWAPI@@@std@@@2@$0A@@std@@@std@@QAEXXZ 004272a0 f i BWAPI:UpgradeType.obj
 0001:000262a0       ?_Inc@const_iterator@?$_Tree@V?$_Tmap_traits@V?$basic_string@DU?$char_traits@D@std@@V?$allocator@D@2@@std@@VTechType@BWAPI@@U?$less@V?$basic_string@DU?$char_traits@D@std@@V?$allocator@D@2@@std@@@2@V?$allocator@U?$pair@$$CBV?$basic_string@DU?$char_traits@D@std@@V?$allocator@D@2@@std@@VTechType@BWAPI@@@std@@@2@$0A@@std@@@std@@QAEXXZ 004272a0 f i BWAPI:TechType.obj
 0001:000262a0       ?_Inc@const_iterator@?$_Tree@V?$_Tmap_traits@V?$basic_string@DU?$char_traits@D@std@@V?$allocator@D@2@@std@@VUnitType@BWAPI@@U?$less@V?$basic_string@DU?$char_traits@D@std@@V?$allocator@D@2@@std@@@2@V?$allocator@U?$pair@$$CBV?$basic_string@DU?$char_traits@D@std@@V?$allocator@D@2@@std@@VUnitType@BWAPI@@@std@@@2@$0A@@std@@@std@@QAEXXZ 004272a0 f i BWAPI:UnitType.obj
 0001:000262a0       ?_Inc@const_iterator@?$_Tree@V?$_Tmap_traits@V?$basic_string@DU?$char_traits@D@std@@V?$allocator@D@2@@std@@VOrder@BWAPI@@U?$less@V?$basic_string@DU?$char_traits@D@std@@V?$allocator@D@2@@std@@@2@V?$allocator@U?$pair@$$CBV?$basic_string@DU?$char_traits@D@std@@V?$allocator@D@2@@std@@VOrder@BWAPI@@@std@@@2@$0A@@std@@@std@@QAEXXZ 004272a0 f i BWAPI:Order.obj
 0001:00026310       ?init@UnitSizeTypes@BWAPI@@YAXXZ 00427310 f   BWAPI:UnitSizeType.obj
 0001:000265f0       ??0Order@BWAPI@@QAE@XZ     004275f0 f   BWAPI:Order.obj
 0001:00026600       ?_Min@?$_Tree@V?$_Tset_traits@VExplosionType@BWAPI@@U?$less@VExplosionType@BWAPI@@@std@@V?$allocator@VExplosionType@BWAPI@@@4@$0A@@std@@@std@@KAPAU_Node@?$_Tree_nod@V?$_Tset_traits@VExplosionType@BWAPI@@U?$less@VExplosionType@BWAPI@@@std@@V?$allocator@VExplosionType@BWAPI@@@4@$0A@@std@@@2@PAU342@@Z 00427600 f i BWAPI:ExplosionType.obj
 0001:00026600       ?_Min@?$_Tree@V?$_Tset_traits@VRace@BWAPI@@U?$less@VRace@BWAPI@@@std@@V?$allocator@VRace@BWAPI@@@4@$0A@@std@@@std@@KAPAU_Node@?$_Tree_nod@V?$_Tset_traits@VRace@BWAPI@@U?$less@VRace@BWAPI@@@std@@V?$allocator@VRace@BWAPI@@@4@$0A@@std@@@2@PAU342@@Z 00427600 f i BWAPI:Race.obj
 0001:00026600       ?_Min@?$_Tree@V?$_Tset_traits@VUnitType@BWAPI@@U?$less@VUnitType@BWAPI@@@std@@V?$allocator@VUnitType@BWAPI@@@4@$0A@@std@@@std@@KAPAU_Node@?$_Tree_nod@V?$_Tset_traits@VUnitType@BWAPI@@U?$less@VUnitType@BWAPI@@@std@@V?$allocator@VUnitType@BWAPI@@@4@$0A@@std@@@2@PAU342@@Z 00427600 f i BWAPI:UnitType.obj
 0001:00026600       ?_Min@?$_Tree@V?$_Tset_traits@VGameType@BWAPI@@U?$less@VGameType@BWAPI@@@std@@V?$allocator@VGameType@BWAPI@@@4@$0A@@std@@@std@@KAPAU_Node@?$_Tree_nod@V?$_Tset_traits@VGameType@BWAPI@@U?$less@VGameType@BWAPI@@@std@@V?$allocator@VGameType@BWAPI@@@4@$0A@@std@@@2@PAU342@@Z 00427600 f i BWAPI:GameType.obj
 0001:00026600       ?_Min@?$_Tree@V?$_Tset_traits@VTechType@BWAPI@@U?$less@VTechType@BWAPI@@@std@@V?$allocator@VTechType@BWAPI@@@4@$0A@@std@@@std@@KAPAU_Node@?$_Tree_nod@V?$_Tset_traits@VTechType@BWAPI@@U?$less@VTechType@BWAPI@@@std@@V?$allocator@VTechType@BWAPI@@@4@$0A@@std@@@2@PAU342@@Z 00427600 f i BWAPI:UnitType.obj
 0001:00026600       ?_Min@?$_Tree@V?$_Tset_traits@VUpgradeType@BWAPI@@U?$less@VUpgradeType@BWAPI@@@std@@V?$allocator@VUpgradeType@BWAPI@@@4@$0A@@std@@@std@@KAPAU_Node@?$_Tree_nod@V?$_Tset_traits@VUpgradeType@BWAPI@@U?$less@VUpgradeType@BWAPI@@@std@@V?$allocator@VUpgradeType@BWAPI@@@4@$0A@@std@@@2@PAU342@@Z 00427600 f i BWAPI:UnitType.obj
 0001:00026600       ?_Min@?$_Tree@V?$_Tset_traits@VOrder@BWAPI@@U?$less@VOrder@BWAPI@@@std@@V?$allocator@VOrder@BWAPI@@@4@$0A@@std@@@std@@KAPAU_Node@?$_Tree_nod@V?$_Tset_traits@VOrder@BWAPI@@U?$less@VOrder@BWAPI@@@std@@V?$allocator@VOrder@BWAPI@@@4@$0A@@std@@@2@PAU342@@Z 00427600 f i BWAPI:Order.obj
 0001:00026600       ?_Min@?$_Tree@V?$_Tset_traits@VWeaponType@BWAPI@@U?$less@VWeaponType@BWAPI@@@std@@V?$allocator@VWeaponType@BWAPI@@@4@$0A@@std@@@std@@KAPAU_Node@?$_Tree_nod@V?$_Tset_traits@VWeaponType@BWAPI@@U?$less@VWeaponType@BWAPI@@@std@@V?$allocator@VWeaponType@BWAPI@@@4@$0A@@std@@@2@PAU342@@Z 00427600 f i BWAPI:WeaponType.obj
 0001:00026600       ?_Min@?$_Tree@V?$_Tset_traits@VError@BWAPI@@U?$less@VError@BWAPI@@@std@@V?$allocator@VError@BWAPI@@@4@$0A@@std@@@std@@KAPAU_Node@?$_Tree_nod@V?$_Tset_traits@VError@BWAPI@@U?$less@VError@BWAPI@@@std@@V?$allocator@VError@BWAPI@@@4@$0A@@std@@@2@PAU342@@Z 00427600 f i BWAPI:Error.obj
 0001:00026600       ?_Min@?$_Tree@V?$_Tset_traits@VDamageType@BWAPI@@U?$less@VDamageType@BWAPI@@@std@@V?$allocator@VDamageType@BWAPI@@@4@$0A@@std@@@std@@KAPAU_Node@?$_Tree_nod@V?$_Tset_traits@VDamageType@BWAPI@@U?$less@VDamageType@BWAPI@@@std@@V?$allocator@VDamageType@BWAPI@@@4@$0A@@std@@@2@PAU342@@Z 00427600 f i BWAPI:DamageType.obj
 0001:00026600       ?_Min@?$_Tree@V?$_Tset_traits@VUnitSizeType@BWAPI@@U?$less@VUnitSizeType@BWAPI@@@std@@V?$allocator@VUnitSizeType@BWAPI@@@4@$0A@@std@@@std@@KAPAU_Node@?$_Tree_nod@V?$_Tset_traits@VUnitSizeType@BWAPI@@U?$less@VUnitSizeType@BWAPI@@@std@@V?$allocator@VUnitSizeType@BWAPI@@@4@$0A@@std@@@2@PAU342@@Z 00427600 f i BWAPI:UnitSizeType.obj
 0001:00026600       ?_Min@?$_Tree@V?$_Tset_traits@VPlayerType@BWAPI@@U?$less@VPlayerType@BWAPI@@@std@@V?$allocator@VPlayerType@BWAPI@@@4@$0A@@std@@@std@@KAPAU_Node@?$_Tree_nod@V?$_Tset_traits@VPlayerType@BWAPI@@U?$less@VPlayerType@BWAPI@@@std@@V?$allocator@VPlayerType@BWAPI@@@4@$0A@@std@@@2@PAU342@@Z 00427600 f i BWAPI:PlayerType.obj
 0001:00026600       ?_Min@?$_Tree@V?$_Tset_traits@VBulletType@BWAPI@@U?$less@VBulletType@BWAPI@@@std@@V?$allocator@VBulletType@BWAPI@@@4@$0A@@std@@@std@@KAPAU_Node@?$_Tree_nod@V?$_Tset_traits@VBulletType@BWAPI@@U?$less@VBulletType@BWAPI@@@std@@V?$allocator@VBulletType@BWAPI@@@4@$0A@@std@@@2@PAU342@@Z 00427600 f i BWAPI:BulletType.obj
 0001:00026600       ?_Min@?$_Tree@V?$_Tset_traits@VUnitCommandType@BWAPI@@U?$less@VUnitCommandType@BWAPI@@@std@@V?$allocator@VUnitCommandType@BWAPI@@@4@$0A@@std@@@std@@KAPAU_Node@?$_Tree_nod@V?$_Tset_traits@VUnitCommandType@BWAPI@@U?$less@VUnitCommandType@BWAPI@@@std@@V?$allocator@VUnitCommandType@BWAPI@@@4@$0A@@std@@@2@PAU342@@Z 00427600 f i BWAPI:UnitCommandType.obj
 0001:00026620       ?_Lrotate@?$_Tree@V?$_Tset_traits@VExplosionType@BWAPI@@U?$less@VExplosionType@BWAPI@@@std@@V?$allocator@VExplosionType@BWAPI@@@4@$0A@@std@@@std@@IAEXPAU_Node@?$_Tree_nod@V?$_Tset_traits@VExplosionType@BWAPI@@U?$less@VExplosionType@BWAPI@@@std@@V?$allocator@VExplosionType@BWAPI@@@4@$0A@@std@@@2@@Z 00427620 f i BWAPI:ExplosionType.obj
 0001:00026620       ?_Lrotate@?$_Tree@V?$_Tset_traits@VDamageType@BWAPI@@U?$less@VDamageType@BWAPI@@@std@@V?$allocator@VDamageType@BWAPI@@@4@$0A@@std@@@std@@IAEXPAU_Node@?$_Tree_nod@V?$_Tset_traits@VDamageType@BWAPI@@U?$less@VDamageType@BWAPI@@@std@@V?$allocator@VDamageType@BWAPI@@@4@$0A@@std@@@2@@Z 00427620 f i BWAPI:DamageType.obj
 0001:00026620       ?_Lrotate@?$_Tree@V?$_Tset_traits@VUnitSizeType@BWAPI@@U?$less@VUnitSizeType@BWAPI@@@std@@V?$allocator@VUnitSizeType@BWAPI@@@4@$0A@@std@@@std@@IAEXPAU_Node@?$_Tree_nod@V?$_Tset_traits@VUnitSizeType@BWAPI@@U?$less@VUnitSizeType@BWAPI@@@std@@V?$allocator@VUnitSizeType@BWAPI@@@4@$0A@@std@@@2@@Z 00427620 f i BWAPI:UnitSizeType.obj
 0001:00026620       ?_Lrotate@?$_Tree@V?$_Tset_traits@VPlayerType@BWAPI@@U?$less@VPlayerType@BWAPI@@@std@@V?$allocator@VPlayerType@BWAPI@@@4@$0A@@std@@@std@@IAEXPAU_Node@?$_Tree_nod@V?$_Tset_traits@VPlayerType@BWAPI@@U?$less@VPlayerType@BWAPI@@@std@@V?$allocator@VPlayerType@BWAPI@@@4@$0A@@std@@@2@@Z 00427620 f i BWAPI:PlayerType.obj
 0001:00026620       ?_Lrotate@?$_Tree@V?$_Tset_traits@VOrder@BWAPI@@U?$less@VOrder@BWAPI@@@std@@V?$allocator@VOrder@BWAPI@@@4@$0A@@std@@@std@@IAEXPAU_Node@?$_Tree_nod@V?$_Tset_traits@VOrder@BWAPI@@U?$less@VOrder@BWAPI@@@std@@V?$allocator@VOrder@BWAPI@@@4@$0A@@std@@@2@@Z 00427620 f i BWAPI:Order.obj
 0001:00026620       ?_Lrotate@?$_Tree@V?$_Tset_traits@VUpgradeType@BWAPI@@U?$less@VUpgradeType@BWAPI@@@std@@V?$allocator@VUpgradeType@BWAPI@@@4@$0A@@std@@@std@@IAEXPAU_Node@?$_Tree_nod@V?$_Tset_traits@VUpgradeType@BWAPI@@U?$less@VUpgradeType@BWAPI@@@std@@V?$allocator@VUpgradeType@BWAPI@@@4@$0A@@std@@@2@@Z 00427620 f i BWAPI:UnitType.obj
 0001:00026620       ?_Lrotate@?$_Tree@V?$_Tset_traits@VBulletType@BWAPI@@U?$less@VBulletType@BWAPI@@@std@@V?$allocator@VBulletType@BWAPI@@@4@$0A@@std@@@std@@IAEXPAU_Node@?$_Tree_nod@V?$_Tset_traits@VBulletType@BWAPI@@U?$less@VBulletType@BWAPI@@@std@@V?$allocator@VBulletType@BWAPI@@@4@$0A@@std@@@2@@Z 00427620 f i BWAPI:BulletType.obj
 0001:00026620       ?_Lrotate@?$_Tree@V?$_Tset_traits@VTechType@BWAPI@@U?$less@VTechType@BWAPI@@@std@@V?$allocator@VTechType@BWAPI@@@4@$0A@@std@@@std@@IAEXPAU_Node@?$_Tree_nod@V?$_Tset_traits@VTechType@BWAPI@@U?$less@VTechType@BWAPI@@@std@@V?$allocator@VTechType@BWAPI@@@4@$0A@@std@@@2@@Z 00427620 f i BWAPI:UnitType.obj
 0001:00026620       ?_Lrotate@?$_Tree@V?$_Tset_traits@VRace@BWAPI@@U?$less@VRace@BWAPI@@@std@@V?$allocator@VRace@BWAPI@@@4@$0A@@std@@@std@@IAEXPAU_Node@?$_Tree_nod@V?$_Tset_traits@VRace@BWAPI@@U?$less@VRace@BWAPI@@@std@@V?$allocator@VRace@BWAPI@@@4@$0A@@std@@@2@@Z 00427620 f i BWAPI:Race.obj
 0001:00026620       ?_Lrotate@?$_Tree@V?$_Tset_traits@VWeaponType@BWAPI@@U?$less@VWeaponType@BWAPI@@@std@@V?$allocator@VWeaponType@BWAPI@@@4@$0A@@std@@@std@@IAEXPAU_Node@?$_Tree_nod@V?$_Tset_traits@VWeaponType@BWAPI@@U?$less@VWeaponType@BWAPI@@@std@@V?$allocator@VWeaponType@BWAPI@@@4@$0A@@std@@@2@@Z 00427620 f i BWAPI:WeaponType.obj
 0001:00026620       ?_Lrotate@?$_Tree@V?$_Tset_traits@VGameType@BWAPI@@U?$less@VGameType@BWAPI@@@std@@V?$allocator@VGameType@BWAPI@@@4@$0A@@std@@@std@@IAEXPAU_Node@?$_Tree_nod@V?$_Tset_traits@VGameType@BWAPI@@U?$less@VGameType@BWAPI@@@std@@V?$allocator@VGameType@BWAPI@@@4@$0A@@std@@@2@@Z 00427620 f i BWAPI:GameType.obj
 0001:00026620       ?_Lrotate@?$_Tree@V?$_Tset_traits@VError@BWAPI@@U?$less@VError@BWAPI@@@std@@V?$allocator@VError@BWAPI@@@4@$0A@@std@@@std@@IAEXPAU_Node@?$_Tree_nod@V?$_Tset_traits@VError@BWAPI@@U?$less@VError@BWAPI@@@std@@V?$allocator@VError@BWAPI@@@4@$0A@@std@@@2@@Z 00427620 f i BWAPI:Error.obj
 0001:00026620       ?_Lrotate@?$_Tree@V?$_Tset_traits@VUnitType@BWAPI@@U?$less@VUnitType@BWAPI@@@std@@V?$allocator@VUnitType@BWAPI@@@4@$0A@@std@@@std@@IAEXPAU_Node@?$_Tree_nod@V?$_Tset_traits@VUnitType@BWAPI@@U?$less@VUnitType@BWAPI@@@std@@V?$allocator@VUnitType@BWAPI@@@4@$0A@@std@@@2@@Z 00427620 f i BWAPI:UnitType.obj
 0001:00026620       ?_Lrotate@?$_Tree@V?$_Tset_traits@VUnitCommandType@BWAPI@@U?$less@VUnitCommandType@BWAPI@@@std@@V?$allocator@VUnitCommandType@BWAPI@@@4@$0A@@std@@@std@@IAEXPAU_Node@?$_Tree_nod@V?$_Tset_traits@VUnitCommandType@BWAPI@@U?$less@VUnitCommandType@BWAPI@@@std@@V?$allocator@VUnitCommandType@BWAPI@@@4@$0A@@std@@@2@@Z 00427620 f i BWAPI:UnitCommandType.obj
 0001:00026670       ?_Buynode@?$_Tree@V?$_Tmap_traits@V?$basic_string@DU?$char_traits@D@std@@V?$allocator@D@2@@std@@VUnitCommandType@BWAPI@@U?$less@V?$basic_string@DU?$char_traits@D@std@@V?$allocator@D@2@@std@@@2@V?$allocator@U?$pair@$$CBV?$basic_string@DU?$char_traits@D@std@@V?$allocator@D@2@@std@@VUnitCommandType@BWAPI@@@std@@@2@$0A@@std@@@std@@IAEPAU_Node@?$_Tree_nod@V?$_Tmap_traits@V?$basic_string@DU?$char_traits@D@std@@V?$allocator@D@2@@std@@VUnitCommandType@BWAPI@@U?$less@V?$basic_string@DU?$char_traits@D@std@@V?$allocator@D@2@@std@@@2@V?$allocator@U?$pair@$$CBV?$basic_string@DU?$char_traits@D@std@@V?$allocator@D@2@@std@@VUnitCommandType@BWAPI@@@std@@@2@$0A@@std@@@2@XZ 00427670 f i BWAPI:UnitCommandType.obj
 0001:00026670       ?_Buynode@?$_Tree@V?$_Tmap_traits@V?$basic_string@DU?$char_traits@D@std@@V?$allocator@D@2@@std@@VExplosionType@BWAPI@@U?$less@V?$basic_string@DU?$char_traits@D@std@@V?$allocator@D@2@@std@@@2@V?$allocator@U?$pair@$$CBV?$basic_string@DU?$char_traits@D@std@@V?$allocator@D@2@@std@@VExplosionType@BWAPI@@@std@@@2@$0A@@std@@@std@@IAEPAU_Node@?$_Tree_nod@V?$_Tmap_traits@V?$basic_string@DU?$char_traits@D@std@@V?$allocator@D@2@@std@@VExplosionType@BWAPI@@U?$less@V?$basic_string@DU?$char_traits@D@std@@V?$allocator@D@2@@std@@@2@V?$allocator@U?$pair@$$CBV?$basic_string@DU?$char_traits@D@std@@V?$allocator@D@2@@std@@VExplosionType@BWAPI@@@std@@@2@$0A@@std@@@2@XZ 00427670 f i BWAPI:ExplosionType.obj
 0001:00026670       ?_Buynode@?$_Tree@V?$_Tmap_traits@V?$basic_string@DU?$char_traits@D@std@@V?$allocator@D@2@@std@@VDamageType@BWAPI@@U?$less@V?$basic_string@DU?$char_traits@D@std@@V?$allocator@D@2@@std@@@2@V?$allocator@U?$pair@$$CBV?$basic_string@DU?$char_traits@D@std@@V?$allocator@D@2@@std@@VDamageType@BWAPI@@@std@@@2@$0A@@std@@@std@@IAEPAU_Node@?$_Tree_nod@V?$_Tmap_traits@V?$basic_string@DU?$char_traits@D@std@@V?$allocator@D@2@@std@@VDamageType@BWAPI@@U?$less@V?$basic_string@DU?$char_traits@D@std@@V?$allocator@D@2@@std@@@2@V?$allocator@U?$pair@$$CBV?$basic_string@DU?$char_traits@D@std@@V?$allocator@D@2@@std@@VDamageType@BWAPI@@@std@@@2@$0A@@std@@@2@XZ 00427670 f i BWAPI:DamageType.obj
 0001:00026670       ?_Buynode@?$_Tree@V?$_Tmap_traits@V?$basic_string@DU?$char_traits@D@std@@V?$allocator@D@2@@std@@VGameType@BWAPI@@U?$less@V?$basic_string@DU?$char_traits@D@std@@V?$allocator@D@2@@std@@@2@V?$allocator@U?$pair@$$CBV?$basic_string@DU?$char_traits@D@std@@V?$allocator@D@2@@std@@VGameType@BWAPI@@@std@@@2@$0A@@std@@@std@@IAEPAU_Node@?$_Tree_nod@V?$_Tmap_traits@V?$basic_string@DU?$char_traits@D@std@@V?$allocator@D@2@@std@@VGameType@BWAPI@@U?$less@V?$basic_string@DU?$char_traits@D@std@@V?$allocator@D@2@@std@@@2@V?$allocator@U?$pair@$$CBV?$basic_string@DU?$char_traits@D@std@@V?$allocator@D@2@@std@@VGameType@BWAPI@@@std@@@2@$0A@@std@@@2@XZ 00427670 f i BWAPI:GameType.obj
 0001:00026670       ?_Buynode@?$_Tree@V?$_Tmap_traits@V?$basic_string@DU?$char_traits@D@std@@V?$allocator@D@2@@std@@VUpgradeType@BWAPI@@U?$less@V?$basic_string@DU?$char_traits@D@std@@V?$allocator@D@2@@std@@@2@V?$allocator@U?$pair@$$CBV?$basic_string@DU?$char_traits@D@std@@V?$allocator@D@2@@std@@VUpgradeType@BWAPI@@@std@@@2@$0A@@std@@@std@@IAEPAU_Node@?$_Tree_nod@V?$_Tmap_traits@V?$basic_string@DU?$char_traits@D@std@@V?$allocator@D@2@@std@@VUpgradeType@BWAPI@@U?$less@V?$basic_string@DU?$char_traits@D@std@@V?$allocator@D@2@@std@@@2@V?$allocator@U?$pair@$$CBV?$basic_string@DU?$char_traits@D@std@@V?$allocator@D@2@@std@@VUpgradeType@BWAPI@@@std@@@2@$0A@@std@@@2@XZ 00427670 f i BWAPI:UpgradeType.obj
 0001:00026670       ?_Buynode@?$_Tree@V?$_Tmap_traits@V?$basic_string@DU?$char_traits@D@std@@V?$allocator@D@2@@std@@VWeaponType@BWAPI@@U?$less@V?$basic_string@DU?$char_traits@D@std@@V?$allocator@D@2@@std@@@2@V?$allocator@U?$pair@$$CBV?$basic_string@DU?$char_traits@D@std@@V?$allocator@D@2@@std@@VWeaponType@BWAPI@@@std@@@2@$0A@@std@@@std@@IAEPAU_Node@?$_Tree_nod@V?$_Tmap_traits@V?$basic_string@DU?$char_traits@D@std@@V?$allocator@D@2@@std@@VWeaponType@BWAPI@@U?$less@V?$basic_string@DU?$char_traits@D@std@@V?$allocator@D@2@@std@@@2@V?$allocator@U?$pair@$$CBV?$basic_string@DU?$char_traits@D@std@@V?$allocator@D@2@@std@@VWeaponType@BWAPI@@@std@@@2@$0A@@std@@@2@XZ 00427670 f i BWAPI:WeaponType.obj
 0001:00026670       ?_Buynode@?$_Tree@V?$_Tmap_traits@V?$basic_string@DU?$char_traits@D@std@@V?$allocator@D@2@@std@@VUnitType@BWAPI@@U?$less@V?$basic_string@DU?$char_traits@D@std@@V?$allocator@D@2@@std@@@2@V?$allocator@U?$pair@$$CBV?$basic_string@DU?$char_traits@D@std@@V?$allocator@D@2@@std@@VUnitType@BWAPI@@@std@@@2@$0A@@std@@@std@@IAEPAU_Node@?$_Tree_nod@V?$_Tmap_traits@V?$basic_string@DU?$char_traits@D@std@@V?$allocator@D@2@@std@@VUnitType@BWAPI@@U?$less@V?$basic_string@DU?$char_traits@D@std@@V?$allocator@D@2@@std@@@2@V?$allocator@U?$pair@$$CBV?$basic_string@DU?$char_traits@D@std@@V?$allocator@D@2@@std@@VUnitType@BWAPI@@@std@@@2@$0A@@std@@@2@XZ 00427670 f i BWAPI:UnitType.obj
 0001:00026670       ?_Buynode@?$_Tree@V?$_Tmap_traits@V?$basic_string@DU?$char_traits@D@std@@V?$allocator@D@2@@std@@VTechType@BWAPI@@U?$less@V?$basic_string@DU?$char_traits@D@std@@V?$allocator@D@2@@std@@@2@V?$allocator@U?$pair@$$CBV?$basic_string@DU?$char_traits@D@std@@V?$allocator@D@2@@std@@VTechType@BWAPI@@@std@@@2@$0A@@std@@@std@@IAEPAU_Node@?$_Tree_nod@V?$_Tmap_traits@V?$basic_string@DU?$char_traits@D@std@@V?$allocator@D@2@@std@@VTechType@BWAPI@@U?$less@V?$basic_string@DU?$char_traits@D@std@@V?$allocator@D@2@@std@@@2@V?$allocator@U?$pair@$$CBV?$basic_string@DU?$char_traits@D@std@@V?$allocator@D@2@@std@@VTechType@BWAPI@@@std@@@2@$0A@@std@@@2@XZ 00427670 f i BWAPI:TechType.obj
 0001:00026670       ?_Buynode@?$_Tree@V?$_Tmap_traits@V?$basic_string@DU?$char_traits@D@std@@V?$allocator@D@2@@std@@VPlayerType@BWAPI@@U?$less@V?$basic_string@DU?$char_traits@D@std@@V?$allocator@D@2@@std@@@2@V?$allocator@U?$pair@$$CBV?$basic_string@DU?$char_traits@D@std@@V?$allocator@D@2@@std@@VPlayerType@BWAPI@@@std@@@2@$0A@@std@@@std@@IAEPAU_Node@?$_Tree_nod@V?$_Tmap_traits@V?$basic_string@DU?$char_traits@D@std@@V?$allocator@D@2@@std@@VPlayerType@BWAPI@@U?$less@V?$basic_string@DU?$char_traits@D@std@@V?$allocator@D@2@@std@@@2@V?$allocator@U?$pair@$$CBV?$basic_string@DU?$char_traits@D@std@@V?$allocator@D@2@@std@@VPlayerType@BWAPI@@@std@@@2@$0A@@std@@@2@XZ 00427670 f i BWAPI:PlayerType.obj
 0001:00026670       ?_Buynode@?$_Tree@V?$_Tmap_traits@V?$basic_string@DU?$char_traits@D@std@@V?$allocator@D@2@@std@@VBulletType@BWAPI@@U?$less@V?$basic_string@DU?$char_traits@D@std@@V?$allocator@D@2@@std@@@2@V?$allocator@U?$pair@$$CBV?$basic_string@DU?$char_traits@D@std@@V?$allocator@D@2@@std@@VBulletType@BWAPI@@@std@@@2@$0A@@std@@@std@@IAEPAU_Node@?$_Tree_nod@V?$_Tmap_traits@V?$basic_string@DU?$char_traits@D@std@@V?$allocator@D@2@@std@@VBulletType@BWAPI@@U?$less@V?$basic_string@DU?$char_traits@D@std@@V?$allocator@D@2@@std@@@2@V?$allocator@U?$pair@$$CBV?$basic_string@DU?$char_traits@D@std@@V?$allocator@D@2@@std@@VBulletType@BWAPI@@@std@@@2@$0A@@std@@@2@XZ 00427670 f i BWAPI:BulletType.obj
 0001:00026670       ?_Buynode@?$_Tree@V?$_Tmap_traits@V?$basic_string@DU?$char_traits@D@std@@V?$allocator@D@2@@std@@VOrder@BWAPI@@U?$less@V?$basic_string@DU?$char_traits@D@std@@V?$allocator@D@2@@std@@@2@V?$allocator@U?$pair@$$CBV?$basic_string@DU?$char_traits@D@std@@V?$allocator@D@2@@std@@VOrder@BWAPI@@@std@@@2@$0A@@std@@@std@@IAEPAU_Node@?$_Tree_nod@V?$_Tmap_traits@V?$basic_string@DU?$char_traits@D@std@@V?$allocator@D@2@@std@@VOrder@BWAPI@@U?$less@V?$basic_string@DU?$char_traits@D@std@@V?$allocator@D@2@@std@@@2@V?$allocator@U?$pair@$$CBV?$basic_string@DU?$char_traits@D@std@@V?$allocator@D@2@@std@@VOrder@BWAPI@@@std@@@2@$0A@@std@@@2@XZ 00427670 f i BWAPI:Order.obj
 0001:00026670       ?_Buynode@?$_Tree@V?$_Tmap_traits@V?$basic_string@DU?$char_traits@D@std@@V?$allocator@D@2@@std@@VRace@BWAPI@@U?$less@V?$basic_string@DU?$char_traits@D@std@@V?$allocator@D@2@@std@@@2@V?$allocator@U?$pair@$$CBV?$basic_string@DU?$char_traits@D@std@@V?$allocator@D@2@@std@@VRace@BWAPI@@@std@@@2@$0A@@std@@@std@@IAEPAU_Node@?$_Tree_nod@V?$_Tmap_traits@V?$basic_string@DU?$char_traits@D@std@@V?$allocator@D@2@@std@@VRace@BWAPI@@U?$less@V?$basic_string@DU?$char_traits@D@std@@V?$allocator@D@2@@std@@@2@V?$allocator@U?$pair@$$CBV?$basic_string@DU?$char_traits@D@std@@V?$allocator@D@2@@std@@VRace@BWAPI@@@std@@@2@$0A@@std@@@2@XZ 00427670 f i BWAPI:Race.obj
 0001:00026670       ?_Buynode@?$_Tree@V?$_Tmap_traits@V?$basic_string@DU?$char_traits@D@std@@V?$allocator@D@2@@std@@VUnitSizeType@BWAPI@@U?$less@V?$basic_string@DU?$char_traits@D@std@@V?$allocator@D@2@@std@@@2@V?$allocator@U?$pair@$$CBV?$basic_string@DU?$char_traits@D@std@@V?$allocator@D@2@@std@@VUnitSizeType@BWAPI@@@std@@@2@$0A@@std@@@std@@IAEPAU_Node@?$_Tree_nod@V?$_Tmap_traits@V?$basic_string@DU?$char_traits@D@std@@V?$allocator@D@2@@std@@VUnitSizeType@BWAPI@@U?$less@V?$basic_string@DU?$char_traits@D@std@@V?$allocator@D@2@@std@@@2@V?$allocator@U?$pair@$$CBV?$basic_string@DU?$char_traits@D@std@@V?$allocator@D@2@@std@@VUnitSizeType@BWAPI@@@std@@@2@$0A@@std@@@2@XZ 00427670 f i BWAPI:UnitSizeType.obj
 0001:00026670       ?_Buynode@?$_Tree@V?$_Tmap_traits@V?$basic_string@DU?$char_traits@D@std@@V?$allocator@D@2@@std@@VError@BWAPI@@U?$less@V?$basic_string@DU?$char_traits@D@std@@V?$allocator@D@2@@std@@@2@V?$allocator@U?$pair@$$CBV?$basic_string@DU?$char_traits@D@std@@V?$allocator@D@2@@std@@VError@BWAPI@@@std@@@2@$0A@@std@@@std@@IAEPAU_Node@?$_Tree_nod@V?$_Tmap_traits@V?$basic_string@DU?$char_traits@D@std@@V?$allocator@D@2@@std@@VError@BWAPI@@U?$less@V?$basic_string@DU?$char_traits@D@std@@V?$allocator@D@2@@std@@@2@V?$allocator@U?$pair@$$CBV?$basic_string@DU?$char_traits@D@std@@V?$allocator@D@2@@std@@VError@BWAPI@@@std@@@2@$0A@@std@@@2@XZ 00427670 f i BWAPI:Error.obj
 0001:000266b0       ?erase@?$_Tree@V?$_Tset_traits@VTechType@BWAPI@@U?$less@VTechType@BWAPI@@@std@@V?$allocator@VTechType@BWAPI@@@4@$0A@@std@@@std@@QAE?AViterator@12@Vconst_iterator@12@@Z 004276b0 f i BWAPI:UnitType.obj
 0001:000266b0       ?erase@?$_Tree@V?$_Tset_traits@VExplosionType@BWAPI@@U?$less@VExplosionType@BWAPI@@@std@@V?$allocator@VExplosionType@BWAPI@@@4@$0A@@std@@@std@@QAE?AViterator@12@Vconst_iterator@12@@Z 004276b0 f i BWAPI:ExplosionType.obj
 0001:000266b0       ?erase@?$_Tree@V?$_Tset_traits@VPlayerType@BWAPI@@U?$less@VPlayerType@BWAPI@@@std@@V?$allocator@VPlayerType@BWAPI@@@4@$0A@@std@@@std@@QAE?AViterator@12@Vconst_iterator@12@@Z 004276b0 f i BWAPI:PlayerType.obj
 0001:000266b0       ?erase@?$_Tree@V?$_Tset_traits@VUnitType@BWAPI@@U?$less@VUnitType@BWAPI@@@std@@V?$allocator@VUnitType@BWAPI@@@4@$0A@@std@@@std@@QAE?AViterator@12@Vconst_iterator@12@@Z 004276b0 f i BWAPI:UnitType.obj
 0001:000266b0       ?erase@?$_Tree@V?$_Tset_traits@VUnitCommandType@BWAPI@@U?$less@VUnitCommandType@BWAPI@@@std@@V?$allocator@VUnitCommandType@BWAPI@@@4@$0A@@std@@@std@@QAE?AViterator@12@Vconst_iterator@12@@Z 004276b0 f i BWAPI:UnitCommandType.obj
 0001:000266b0       ?erase@?$_Tree@V?$_Tset_traits@VGameType@BWAPI@@U?$less@VGameType@BWAPI@@@std@@V?$allocator@VGameType@BWAPI@@@4@$0A@@std@@@std@@QAE?AViterator@12@Vconst_iterator@12@@Z 004276b0 f i BWAPI:GameType.obj
 0001:000266b0       ?erase@?$_Tree@V?$_Tset_traits@VWeaponType@BWAPI@@U?$less@VWeaponType@BWAPI@@@std@@V?$allocator@VWeaponType@BWAPI@@@4@$0A@@std@@@std@@QAE?AViterator@12@Vconst_iterator@12@@Z 004276b0 f i BWAPI:WeaponType.obj
 0001:000266b0       ?erase@?$_Tree@V?$_Tset_traits@VBulletType@BWAPI@@U?$less@VBulletType@BWAPI@@@std@@V?$allocator@VBulletType@BWAPI@@@4@$0A@@std@@@std@@QAE?AViterator@12@Vconst_iterator@12@@Z 004276b0 f i BWAPI:BulletType.obj
 0001:000266b0       ?erase@?$_Tree@V?$_Tset_traits@VUnitSizeType@BWAPI@@U?$less@VUnitSizeType@BWAPI@@@std@@V?$allocator@VUnitSizeType@BWAPI@@@4@$0A@@std@@@std@@QAE?AViterator@12@Vconst_iterator@12@@Z 004276b0 f i BWAPI:UnitSizeType.obj
 0001:000266b0       ?erase@?$_Tree@V?$_Tset_traits@VUpgradeType@BWAPI@@U?$less@VUpgradeType@BWAPI@@@std@@V?$allocator@VUpgradeType@BWAPI@@@4@$0A@@std@@@std@@QAE?AViterator@12@Vconst_iterator@12@@Z 004276b0 f i BWAPI:UnitType.obj
 0001:000266b0       ?erase@?$_Tree@V?$_Tset_traits@VDamageType@BWAPI@@U?$less@VDamageType@BWAPI@@@std@@V?$allocator@VDamageType@BWAPI@@@4@$0A@@std@@@std@@QAE?AViterator@12@Vconst_iterator@12@@Z 004276b0 f i BWAPI:DamageType.obj
 0001:000266b0       ?erase@?$_Tree@V?$_Tset_traits@VOrder@BWAPI@@U?$less@VOrder@BWAPI@@@std@@V?$allocator@VOrder@BWAPI@@@4@$0A@@std@@@std@@QAE?AViterator@12@Vconst_iterator@12@@Z 004276b0 f i BWAPI:Order.obj
 0001:000266b0       ?erase@?$_Tree@V?$_Tset_traits@VRace@BWAPI@@U?$less@VRace@BWAPI@@@std@@V?$allocator@VRace@BWAPI@@@4@$0A@@std@@@std@@QAE?AViterator@12@Vconst_iterator@12@@Z 004276b0 f i BWAPI:Race.obj
 0001:000266b0       ?erase@?$_Tree@V?$_Tset_traits@VError@BWAPI@@U?$less@VError@BWAPI@@@std@@V?$allocator@VError@BWAPI@@@4@$0A@@std@@@std@@QAE?AViterator@12@Vconst_iterator@12@@Z 004276b0 f i BWAPI:Error.obj
 0001:00026980       ?erase@?$_Tree@V?$_Tset_traits@VUnitSizeType@BWAPI@@U?$less@VUnitSizeType@BWAPI@@@std@@V?$allocator@VUnitSizeType@BWAPI@@@4@$0A@@std@@@std@@QAE?AViterator@12@Vconst_iterator@12@0@Z 00427980 f i BWAPI:UnitSizeType.obj
 0001:00026980       ?erase@?$_Tree@V?$_Tset_traits@VError@BWAPI@@U?$less@VError@BWAPI@@@std@@V?$allocator@VError@BWAPI@@@4@$0A@@std@@@std@@QAE?AViterator@12@Vconst_iterator@12@0@Z 00427980 f i BWAPI:Error.obj
 0001:00026980       ?erase@?$_Tree@V?$_Tset_traits@VPlayerType@BWAPI@@U?$less@VPlayerType@BWAPI@@@std@@V?$allocator@VPlayerType@BWAPI@@@4@$0A@@std@@@std@@QAE?AViterator@12@Vconst_iterator@12@0@Z 00427980 f i BWAPI:PlayerType.obj
 0001:00026980       ?erase@?$_Tree@V?$_Tset_traits@VRace@BWAPI@@U?$less@VRace@BWAPI@@@std@@V?$allocator@VRace@BWAPI@@@4@$0A@@std@@@std@@QAE?AViterator@12@Vconst_iterator@12@0@Z 00427980 f i BWAPI:Race.obj
 0001:00026980       ?erase@?$_Tree@V?$_Tset_traits@VExplosionType@BWAPI@@U?$less@VExplosionType@BWAPI@@@std@@V?$allocator@VExplosionType@BWAPI@@@4@$0A@@std@@@std@@QAE?AViterator@12@Vconst_iterator@12@0@Z 00427980 f i BWAPI:ExplosionType.obj
 0001:00026980       ?erase@?$_Tree@V?$_Tset_traits@VUnitCommandType@BWAPI@@U?$less@VUnitCommandType@BWAPI@@@std@@V?$allocator@VUnitCommandType@BWAPI@@@4@$0A@@std@@@std@@QAE?AViterator@12@Vconst_iterator@12@0@Z 00427980 f i BWAPI:UnitCommandType.obj
 0001:00026980       ?erase@?$_Tree@V?$_Tset_traits@VGameType@BWAPI@@U?$less@VGameType@BWAPI@@@std@@V?$allocator@VGameType@BWAPI@@@4@$0A@@std@@@std@@QAE?AViterator@12@Vconst_iterator@12@0@Z 00427980 f i BWAPI:GameType.obj
 0001:00026980       ?erase@?$_Tree@V?$_Tset_traits@VTechType@BWAPI@@U?$less@VTechType@BWAPI@@@std@@V?$allocator@VTechType@BWAPI@@@4@$0A@@std@@@std@@QAE?AViterator@12@Vconst_iterator@12@0@Z 00427980 f i BWAPI:UnitType.obj
 0001:00026980       ?erase@?$_Tree@V?$_Tset_traits@VDamageType@BWAPI@@U?$less@VDamageType@BWAPI@@@std@@V?$allocator@VDamageType@BWAPI@@@4@$0A@@std@@@std@@QAE?AViterator@12@Vconst_iterator@12@0@Z 00427980 f i BWAPI:DamageType.obj
 0001:00026980       ?erase@?$_Tree@V?$_Tset_traits@VBulletType@BWAPI@@U?$less@VBulletType@BWAPI@@@std@@V?$allocator@VBulletType@BWAPI@@@4@$0A@@std@@@std@@QAE?AViterator@12@Vconst_iterator@12@0@Z 00427980 f i BWAPI:BulletType.obj
 0001:00026980       ?erase@?$_Tree@V?$_Tset_traits@VOrder@BWAPI@@U?$less@VOrder@BWAPI@@@std@@V?$allocator@VOrder@BWAPI@@@4@$0A@@std@@@std@@QAE?AViterator@12@Vconst_iterator@12@0@Z 00427980 f i BWAPI:Order.obj
 0001:00026980       ?erase@?$_Tree@V?$_Tset_traits@VWeaponType@BWAPI@@U?$less@VWeaponType@BWAPI@@@std@@V?$allocator@VWeaponType@BWAPI@@@4@$0A@@std@@@std@@QAE?AViterator@12@Vconst_iterator@12@0@Z 00427980 f i BWAPI:WeaponType.obj
 0001:00026980       ?erase@?$_Tree@V?$_Tset_traits@VUnitType@BWAPI@@U?$less@VUnitType@BWAPI@@@std@@V?$allocator@VUnitType@BWAPI@@@4@$0A@@std@@@std@@QAE?AViterator@12@Vconst_iterator@12@0@Z 00427980 f i BWAPI:UnitType.obj
 0001:00026980       ?erase@?$_Tree@V?$_Tset_traits@VUpgradeType@BWAPI@@U?$less@VUpgradeType@BWAPI@@@std@@V?$allocator@VUpgradeType@BWAPI@@@4@$0A@@std@@@std@@QAE?AViterator@12@Vconst_iterator@12@0@Z 00427980 f i BWAPI:UnitType.obj
 0001:00026a60       ?erase@?$_Tree@V?$_Tmap_traits@V?$basic_string@DU?$char_traits@D@std@@V?$allocator@D@2@@std@@VUnitSizeType@BWAPI@@U?$less@V?$basic_string@DU?$char_traits@D@std@@V?$allocator@D@2@@std@@@2@V?$allocator@U?$pair@$$CBV?$basic_string@DU?$char_traits@D@std@@V?$allocator@D@2@@std@@VUnitSizeType@BWAPI@@@std@@@2@$0A@@std@@@std@@QAE?AViterator@12@Vconst_iterator@12@@Z 00427a60 f i BWAPI:UnitSizeType.obj
 0001:00026a60       ?erase@?$_Tree@V?$_Tmap_traits@V?$basic_string@DU?$char_traits@D@std@@V?$allocator@D@2@@std@@VError@BWAPI@@U?$less@V?$basic_string@DU?$char_traits@D@std@@V?$allocator@D@2@@std@@@2@V?$allocator@U?$pair@$$CBV?$basic_string@DU?$char_traits@D@std@@V?$allocator@D@2@@std@@VError@BWAPI@@@std@@@2@$0A@@std@@@std@@QAE?AViterator@12@Vconst_iterator@12@@Z 00427a60 f i BWAPI:Error.obj
 0001:00026a60       ?erase@?$_Tree@V?$_Tmap_traits@V?$basic_string@DU?$char_traits@D@std@@V?$allocator@D@2@@std@@VUnitType@BWAPI@@U?$less@V?$basic_string@DU?$char_traits@D@std@@V?$allocator@D@2@@std@@@2@V?$allocator@U?$pair@$$CBV?$basic_string@DU?$char_traits@D@std@@V?$allocator@D@2@@std@@VUnitType@BWAPI@@@std@@@2@$0A@@std@@@std@@QAE?AViterator@12@Vconst_iterator@12@@Z 00427a60 f i BWAPI:UnitType.obj
 0001:00026a60       ?erase@?$_Tree@V?$_Tmap_traits@V?$basic_string@DU?$char_traits@D@std@@V?$allocator@D@2@@std@@VUnitCommandType@BWAPI@@U?$less@V?$basic_string@DU?$char_traits@D@std@@V?$allocator@D@2@@std@@@2@V?$allocator@U?$pair@$$CBV?$basic_string@DU?$char_traits@D@std@@V?$allocator@D@2@@std@@VUnitCommandType@BWAPI@@@std@@@2@$0A@@std@@@std@@QAE?AViterator@12@Vconst_iterator@12@@Z 00427a60 f i BWAPI:UnitCommandType.obj
 0001:00026a60       ?erase@?$_Tree@V?$_Tmap_traits@V?$basic_string@DU?$char_traits@D@std@@V?$allocator@D@2@@std@@VGameType@BWAPI@@U?$less@V?$basic_string@DU?$char_traits@D@std@@V?$allocator@D@2@@std@@@2@V?$allocator@U?$pair@$$CBV?$basic_string@DU?$char_traits@D@std@@V?$allocator@D@2@@std@@VGameType@BWAPI@@@std@@@2@$0A@@std@@@std@@QAE?AViterator@12@Vconst_iterator@12@@Z 00427a60 f i BWAPI:GameType.obj
 0001:00026a60       ?erase@?$_Tree@V?$_Tmap_traits@V?$basic_string@DU?$char_traits@D@std@@V?$allocator@D@2@@std@@VExplosionType@BWAPI@@U?$less@V?$basic_string@DU?$char_traits@D@std@@V?$allocator@D@2@@std@@@2@V?$allocator@U?$pair@$$CBV?$basic_string@DU?$char_traits@D@std@@V?$allocator@D@2@@std@@VExplosionType@BWAPI@@@std@@@2@$0A@@std@@@std@@QAE?AViterator@12@Vconst_iterator@12@@Z 00427a60 f i BWAPI:ExplosionType.obj
 0001:00026a60       ?erase@?$_Tree@V?$_Tmap_traits@V?$basic_string@DU?$char_traits@D@std@@V?$allocator@D@2@@std@@VTechType@BWAPI@@U?$less@V?$basic_string@DU?$char_traits@D@std@@V?$allocator@D@2@@std@@@2@V?$allocator@U?$pair@$$CBV?$basic_string@DU?$char_traits@D@std@@V?$allocator@D@2@@std@@VTechType@BWAPI@@@std@@@2@$0A@@std@@@std@@QAE?AViterator@12@Vconst_iterator@12@@Z 00427a60 f i BWAPI:TechType.obj
 0001:00026a60       ?erase@?$_Tree@V?$_Tmap_traits@V?$basic_string@DU?$char_traits@D@std@@V?$allocator@D@2@@std@@VOrder@BWAPI@@U?$less@V?$basic_string@DU?$char_traits@D@std@@V?$allocator@D@2@@std@@@2@V?$allocator@U?$pair@$$CBV?$basic_string@DU?$char_traits@D@std@@V?$allocator@D@2@@std@@VOrder@BWAPI@@@std@@@2@$0A@@std@@@std@@QAE?AViterator@12@Vconst_iterator@12@@Z 00427a60 f i BWAPI:Order.obj
 0001:00026a60       ?erase@?$_Tree@V?$_Tmap_traits@V?$basic_string@DU?$char_traits@D@std@@V?$allocator@D@2@@std@@VDamageType@BWAPI@@U?$less@V?$basic_string@DU?$char_traits@D@std@@V?$allocator@D@2@@std@@@2@V?$allocator@U?$pair@$$CBV?$basic_string@DU?$char_traits@D@std@@V?$allocator@D@2@@std@@VDamageType@BWAPI@@@std@@@2@$0A@@std@@@std@@QAE?AViterator@12@Vconst_iterator@12@@Z 00427a60 f i BWAPI:DamageType.obj
 0001:00026a60       ?erase@?$_Tree@V?$_Tmap_traits@V?$basic_string@DU?$char_traits@D@std@@V?$allocator@D@2@@std@@VRace@BWAPI@@U?$less@V?$basic_string@DU?$char_traits@D@std@@V?$allocator@D@2@@std@@@2@V?$allocator@U?$pair@$$CBV?$basic_string@DU?$char_traits@D@std@@V?$allocator@D@2@@std@@VRace@BWAPI@@@std@@@2@$0A@@std@@@std@@QAE?AViterator@12@Vconst_iterator@12@@Z 00427a60 f i BWAPI:Race.obj
 0001:00026a60       ?erase@?$_Tree@V?$_Tmap_traits@V?$basic_string@DU?$char_traits@D@std@@V?$allocator@D@2@@std@@VWeaponType@BWAPI@@U?$less@V?$basic_string@DU?$char_traits@D@std@@V?$allocator@D@2@@std@@@2@V?$allocator@U?$pair@$$CBV?$basic_string@DU?$char_traits@D@std@@V?$allocator@D@2@@std@@VWeaponType@BWAPI@@@std@@@2@$0A@@std@@@std@@QAE?AViterator@12@Vconst_iterator@12@@Z 00427a60 f i BWAPI:WeaponType.obj
 0001:00026a60       ?erase@?$_Tree@V?$_Tmap_traits@V?$basic_string@DU?$char_traits@D@std@@V?$allocator@D@2@@std@@VPlayerType@BWAPI@@U?$less@V?$basic_string@DU?$char_traits@D@std@@V?$allocator@D@2@@std@@@2@V?$allocator@U?$pair@$$CBV?$basic_string@DU?$char_traits@D@std@@V?$allocator@D@2@@std@@VPlayerType@BWAPI@@@std@@@2@$0A@@std@@@std@@QAE?AViterator@12@Vconst_iterator@12@@Z 00427a60 f i BWAPI:PlayerType.obj
 0001:00026a60       ?erase@?$_Tree@V?$_Tmap_traits@V?$basic_string@DU?$char_traits@D@std@@V?$allocator@D@2@@std@@VUpgradeType@BWAPI@@U?$less@V?$basic_string@DU?$char_traits@D@std@@V?$allocator@D@2@@std@@@2@V?$allocator@U?$pair@$$CBV?$basic_string@DU?$char_traits@D@std@@V?$allocator@D@2@@std@@VUpgradeType@BWAPI@@@std@@@2@$0A@@std@@@std@@QAE?AViterator@12@Vconst_iterator@12@@Z 00427a60 f i BWAPI:UpgradeType.obj
 0001:00026a60       ?erase@?$_Tree@V?$_Tmap_traits@V?$basic_string@DU?$char_traits@D@std@@V?$allocator@D@2@@std@@VBulletType@BWAPI@@U?$less@V?$basic_string@DU?$char_traits@D@std@@V?$allocator@D@2@@std@@@2@V?$allocator@U?$pair@$$CBV?$basic_string@DU?$char_traits@D@std@@V?$allocator@D@2@@std@@VBulletType@BWAPI@@@std@@@2@$0A@@std@@@std@@QAE?AViterator@12@Vconst_iterator@12@@Z 00427a60 f i BWAPI:BulletType.obj
 0001:00026d40       ?init@Orders@BWAPI@@YAXXZ  00427d40 f   BWAPI:Order.obj
 0001:000291c0       ??1?$_Tree@V?$_Tset_traits@VError@BWAPI@@U?$less@VError@BWAPI@@@std@@V?$allocator@VError@BWAPI@@@4@$0A@@std@@@std@@QAE@XZ 0042a1c0 f i BWAPI:Error.obj
 0001:000291c0       ??1?$_Tree@V?$_Tset_traits@VUnitSizeType@BWAPI@@U?$less@VUnitSizeType@BWAPI@@@std@@V?$allocator@VUnitSizeType@BWAPI@@@4@$0A@@std@@@std@@QAE@XZ 0042a1c0 f i BWAPI:UnitSizeType.obj
 0001:000291c0       ??1?$_Tree@V?$_Tset_traits@VWeaponType@BWAPI@@U?$less@VWeaponType@BWAPI@@@std@@V?$allocator@VWeaponType@BWAPI@@@4@$0A@@std@@@std@@QAE@XZ 0042a1c0 f i BWAPI:WeaponType.obj
 0001:000291c0       ??1?$_Tree@V?$_Tset_traits@VPlayerType@BWAPI@@U?$less@VPlayerType@BWAPI@@@std@@V?$allocator@VPlayerType@BWAPI@@@4@$0A@@std@@@std@@QAE@XZ 0042a1c0 f i BWAPI:PlayerType.obj
 0001:000291c0       ??1?$_Tree@V?$_Tset_traits@VBulletType@BWAPI@@U?$less@VBulletType@BWAPI@@@std@@V?$allocator@VBulletType@BWAPI@@@4@$0A@@std@@@std@@QAE@XZ 0042a1c0 f i BWAPI:BulletType.obj
 0001:000291c0       ??1?$_Tree@V?$_Tset_traits@VUnitCommandType@BWAPI@@U?$less@VUnitCommandType@BWAPI@@@std@@V?$allocator@VUnitCommandType@BWAPI@@@4@$0A@@std@@@std@@QAE@XZ 0042a1c0 f i BWAPI:UnitCommandType.obj
 0001:000291c0       ??1?$_Tree@V?$_Tset_traits@VExplosionType@BWAPI@@U?$less@VExplosionType@BWAPI@@@std@@V?$allocator@VExplosionType@BWAPI@@@4@$0A@@std@@@std@@QAE@XZ 0042a1c0 f i BWAPI:ExplosionType.obj
 0001:000291c0       ??1?$_Tree@V?$_Tset_traits@VOrder@BWAPI@@U?$less@VOrder@BWAPI@@@std@@V?$allocator@VOrder@BWAPI@@@4@$0A@@std@@@std@@QAE@XZ 0042a1c0 f i BWAPI:Order.obj
 0001:000291c0       ??1?$_Tree@V?$_Tset_traits@VDamageType@BWAPI@@U?$less@VDamageType@BWAPI@@@std@@V?$allocator@VDamageType@BWAPI@@@4@$0A@@std@@@std@@QAE@XZ 0042a1c0 f i BWAPI:DamageType.obj
 0001:000291c0       ??1?$_Tree@V?$_Tset_traits@VUnitType@BWAPI@@U?$less@VUnitType@BWAPI@@@std@@V?$allocator@VUnitType@BWAPI@@@4@$0A@@std@@@std@@QAE@XZ 0042a1c0 f i BWAPI:UnitType.obj
 0001:000291c0       ??1?$_Tree@V?$_Tset_traits@VRace@BWAPI@@U?$less@VRace@BWAPI@@@std@@V?$allocator@VRace@BWAPI@@@4@$0A@@std@@@std@@QAE@XZ 0042a1c0 f i BWAPI:Race.obj
 0001:000291c0       ??1?$_Tree@V?$_Tset_traits@VGameType@BWAPI@@U?$less@VGameType@BWAPI@@@std@@V?$allocator@VGameType@BWAPI@@@4@$0A@@std@@@std@@QAE@XZ 0042a1c0 f i BWAPI:GameType.obj
 0001:000291c0       ??1?$_Tree@V?$_Tset_traits@VUpgradeType@BWAPI@@U?$less@VUpgradeType@BWAPI@@@std@@V?$allocator@VUpgradeType@BWAPI@@@4@$0A@@std@@@std@@QAE@XZ 0042a1c0 f i BWAPI:UnitType.obj
 0001:000291c0       ??1?$_Tree@V?$_Tset_traits@VTechType@BWAPI@@U?$less@VTechType@BWAPI@@@std@@V?$allocator@VTechType@BWAPI@@@4@$0A@@std@@@std@@QAE@XZ 0042a1c0 f i BWAPI:UnitType.obj
 0001:00029230       ?erase@?$_Tree@V?$_Tmap_traits@V?$basic_string@DU?$char_traits@D@std@@V?$allocator@D@2@@std@@VExplosionType@BWAPI@@U?$less@V?$basic_string@DU?$char_traits@D@std@@V?$allocator@D@2@@std@@@2@V?$allocator@U?$pair@$$CBV?$basic_string@DU?$char_traits@D@std@@V?$allocator@D@2@@std@@VExplosionType@BWAPI@@@std@@@2@$0A@@std@@@std@@QAE?AViterator@12@Vconst_iterator@12@0@Z 0042a230 f i BWAPI:ExplosionType.obj
 0001:00029230       ?erase@?$_Tree@V?$_Tmap_traits@V?$basic_string@DU?$char_traits@D@std@@V?$allocator@D@2@@std@@VDamageType@BWAPI@@U?$less@V?$basic_string@DU?$char_traits@D@std@@V?$allocator@D@2@@std@@@2@V?$allocator@U?$pair@$$CBV?$basic_string@DU?$char_traits@D@std@@V?$allocator@D@2@@std@@VDamageType@BWAPI@@@std@@@2@$0A@@std@@@std@@QAE?AViterator@12@Vconst_iterator@12@0@Z 0042a230 f i BWAPI:DamageType.obj
 0001:00029230       ?erase@?$_Tree@V?$_Tmap_traits@V?$basic_string@DU?$char_traits@D@std@@V?$allocator@D@2@@std@@VUnitCommandType@BWAPI@@U?$less@V?$basic_string@DU?$char_traits@D@std@@V?$allocator@D@2@@std@@@2@V?$allocator@U?$pair@$$CBV?$basic_string@DU?$char_traits@D@std@@V?$allocator@D@2@@std@@VUnitCommandType@BWAPI@@@std@@@2@$0A@@std@@@std@@QAE?AViterator@12@Vconst_iterator@12@0@Z 0042a230 f i BWAPI:UnitCommandType.obj
 0001:00029230       ?erase@?$_Tree@V?$_Tmap_traits@V?$basic_string@DU?$char_traits@D@std@@V?$allocator@D@2@@std@@VTechType@BWAPI@@U?$less@V?$basic_string@DU?$char_traits@D@std@@V?$allocator@D@2@@std@@@2@V?$allocator@U?$pair@$$CBV?$basic_string@DU?$char_traits@D@std@@V?$allocator@D@2@@std@@VTechType@BWAPI@@@std@@@2@$0A@@std@@@std@@QAE?AViterator@12@Vconst_iterator@12@0@Z 0042a230 f i BWAPI:TechType.obj
 0001:00029230       ?erase@?$_Tree@V?$_Tmap_traits@V?$basic_string@DU?$char_traits@D@std@@V?$allocator@D@2@@std@@VBulletType@BWAPI@@U?$less@V?$basic_string@DU?$char_traits@D@std@@V?$allocator@D@2@@std@@@2@V?$allocator@U?$pair@$$CBV?$basic_string@DU?$char_traits@D@std@@V?$allocator@D@2@@std@@VBulletType@BWAPI@@@std@@@2@$0A@@std@@@std@@QAE?AViterator@12@Vconst_iterator@12@0@Z 0042a230 f i BWAPI:BulletType.obj
 0001:00029230       ?erase@?$_Tree@V?$_Tmap_traits@V?$basic_string@DU?$char_traits@D@std@@V?$allocator@D@2@@std@@VGameType@BWAPI@@U?$less@V?$basic_string@DU?$char_traits@D@std@@V?$allocator@D@2@@std@@@2@V?$allocator@U?$pair@$$CBV?$basic_string@DU?$char_traits@D@std@@V?$allocator@D@2@@std@@VGameType@BWAPI@@@std@@@2@$0A@@std@@@std@@QAE?AViterator@12@Vconst_iterator@12@0@Z 0042a230 f i BWAPI:GameType.obj
 0001:00029230       ?erase@?$_Tree@V?$_Tmap_traits@V?$basic_string@DU?$char_traits@D@std@@V?$allocator@D@2@@std@@VError@BWAPI@@U?$less@V?$basic_string@DU?$char_traits@D@std@@V?$allocator@D@2@@std@@@2@V?$allocator@U?$pair@$$CBV?$basic_string@DU?$char_traits@D@std@@V?$allocator@D@2@@std@@VError@BWAPI@@@std@@@2@$0A@@std@@@std@@QAE?AViterator@12@Vconst_iterator@12@0@Z 0042a230 f i BWAPI:Error.obj
 0001:00029230       ?erase@?$_Tree@V?$_Tmap_traits@V?$basic_string@DU?$char_traits@D@std@@V?$allocator@D@2@@std@@VPlayerType@BWAPI@@U?$less@V?$basic_string@DU?$char_traits@D@std@@V?$allocator@D@2@@std@@@2@V?$allocator@U?$pair@$$CBV?$basic_string@DU?$char_traits@D@std@@V?$allocator@D@2@@std@@VPlayerType@BWAPI@@@std@@@2@$0A@@std@@@std@@QAE?AViterator@12@Vconst_iterator@12@0@Z 0042a230 f i BWAPI:PlayerType.obj
 0001:00029230       ?erase@?$_Tree@V?$_Tmap_traits@V?$basic_string@DU?$char_traits@D@std@@V?$allocator@D@2@@std@@VUpgradeType@BWAPI@@U?$less@V?$basic_string@DU?$char_traits@D@std@@V?$allocator@D@2@@std@@@2@V?$allocator@U?$pair@$$CBV?$basic_string@DU?$char_traits@D@std@@V?$allocator@D@2@@std@@VUpgradeType@BWAPI@@@std@@@2@$0A@@std@@@std@@QAE?AViterator@12@Vconst_iterator@12@0@Z 0042a230 f i BWAPI:UpgradeType.obj
 0001:00029230       ?erase@?$_Tree@V?$_Tmap_traits@V?$basic_string@DU?$char_traits@D@std@@V?$allocator@D@2@@std@@VWeaponType@BWAPI@@U?$less@V?$basic_string@DU?$char_traits@D@std@@V?$allocator@D@2@@std@@@2@V?$allocator@U?$pair@$$CBV?$basic_string@DU?$char_traits@D@std@@V?$allocator@D@2@@std@@VWeaponType@BWAPI@@@std@@@2@$0A@@std@@@std@@QAE?AViterator@12@Vconst_iterator@12@0@Z 0042a230 f i BWAPI:WeaponType.obj
 0001:00029230       ?erase@?$_Tree@V?$_Tmap_traits@V?$basic_string@DU?$char_traits@D@std@@V?$allocator@D@2@@std@@VUnitType@BWAPI@@U?$less@V?$basic_string@DU?$char_traits@D@std@@V?$allocator@D@2@@std@@@2@V?$allocator@U?$pair@$$CBV?$basic_string@DU?$char_traits@D@std@@V?$allocator@D@2@@std@@VUnitType@BWAPI@@@std@@@2@$0A@@std@@@std@@QAE?AViterator@12@Vconst_iterator@12@0@Z 0042a230 f i BWAPI:UnitType.obj
 0001:00029230       ?erase@?$_Tree@V?$_Tmap_traits@V?$basic_string@DU?$char_traits@D@std@@V?$allocator@D@2@@std@@VUnitSizeType@BWAPI@@U?$less@V?$basic_string@DU?$char_traits@D@std@@V?$allocator@D@2@@std@@@2@V?$allocator@U?$pair@$$CBV?$basic_string@DU?$char_traits@D@std@@V?$allocator@D@2@@std@@VUnitSizeType@BWAPI@@@std@@@2@$0A@@std@@@std@@QAE?AViterator@12@Vconst_iterator@12@0@Z 0042a230 f i BWAPI:UnitSizeType.obj
 0001:00029230       ?erase@?$_Tree@V?$_Tmap_traits@V?$basic_string@DU?$char_traits@D@std@@V?$allocator@D@2@@std@@VOrder@BWAPI@@U?$less@V?$basic_string@DU?$char_traits@D@std@@V?$allocator@D@2@@std@@@2@V?$allocator@U?$pair@$$CBV?$basic_string@DU?$char_traits@D@std@@V?$allocator@D@2@@std@@VOrder@BWAPI@@@std@@@2@$0A@@std@@@std@@QAE?AViterator@12@Vconst_iterator@12@0@Z 0042a230 f i BWAPI:Order.obj
 0001:00029230       ?erase@?$_Tree@V?$_Tmap_traits@V?$basic_string@DU?$char_traits@D@std@@V?$allocator@D@2@@std@@VRace@BWAPI@@U?$less@V?$basic_string@DU?$char_traits@D@std@@V?$allocator@D@2@@std@@@2@V?$allocator@U?$pair@$$CBV?$basic_string@DU?$char_traits@D@std@@V?$allocator@D@2@@std@@VRace@BWAPI@@@std@@@2@$0A@@std@@@std@@QAE?AViterator@12@Vconst_iterator@12@0@Z 0042a230 f i BWAPI:Race.obj
 0001:00029310       ??1?$_Tree@V?$_Tmap_traits@V?$basic_string@DU?$char_traits@D@std@@V?$allocator@D@2@@std@@VUnitType@BWAPI@@U?$less@V?$basic_string@DU?$char_traits@D@std@@V?$allocator@D@2@@std@@@2@V?$allocator@U?$pair@$$CBV?$basic_string@DU?$char_traits@D@std@@V?$allocator@D@2@@std@@VUnitType@BWAPI@@@std@@@2@$0A@@std@@@std@@QAE@XZ 0042a310 f i BWAPI:UnitType.obj
 0001:00029310       ??1?$_Tree@V?$_Tmap_traits@V?$basic_string@DU?$char_traits@D@std@@V?$allocator@D@2@@std@@VRace@BWAPI@@U?$less@V?$basic_string@DU?$char_traits@D@std@@V?$allocator@D@2@@std@@@2@V?$allocator@U?$pair@$$CBV?$basic_string@DU?$char_traits@D@std@@V?$allocator@D@2@@std@@VRace@BWAPI@@@std@@@2@$0A@@std@@@std@@QAE@XZ 0042a310 f i BWAPI:Race.obj
 0001:00029310       ??1?$_Tree@V?$_Tmap_traits@V?$basic_string@DU?$char_traits@D@std@@V?$allocator@D@2@@std@@VUpgradeType@BWAPI@@U?$less@V?$basic_string@DU?$char_traits@D@std@@V?$allocator@D@2@@std@@@2@V?$allocator@U?$pair@$$CBV?$basic_string@DU?$char_traits@D@std@@V?$allocator@D@2@@std@@VUpgradeType@BWAPI@@@std@@@2@$0A@@std@@@std@@QAE@XZ 0042a310 f i BWAPI:UpgradeType.obj
 0001:00029310       ??1?$_Tree@V?$_Tmap_traits@V?$basic_string@DU?$char_traits@D@std@@V?$allocator@D@2@@std@@VGameType@BWAPI@@U?$less@V?$basic_string@DU?$char_traits@D@std@@V?$allocator@D@2@@std@@@2@V?$allocator@U?$pair@$$CBV?$basic_string@DU?$char_traits@D@std@@V?$allocator@D@2@@std@@VGameType@BWAPI@@@std@@@2@$0A@@std@@@std@@QAE@XZ 0042a310 f i BWAPI:GameType.obj
 0001:00029310       ??1?$_Tree@V?$_Tmap_traits@V?$basic_string@DU?$char_traits@D@std@@V?$allocator@D@2@@std@@VOrder@BWAPI@@U?$less@V?$basic_string@DU?$char_traits@D@std@@V?$allocator@D@2@@std@@@2@V?$allocator@U?$pair@$$CBV?$basic_string@DU?$char_traits@D@std@@V?$allocator@D@2@@std@@VOrder@BWAPI@@@std@@@2@$0A@@std@@@std@@QAE@XZ 0042a310 f i BWAPI:Order.obj
 0001:00029310       ??1?$_Tree@V?$_Tmap_traits@V?$basic_string@DU?$char_traits@D@std@@V?$allocator@D@2@@std@@VTechType@BWAPI@@U?$less@V?$basic_string@DU?$char_traits@D@std@@V?$allocator@D@2@@std@@@2@V?$allocator@U?$pair@$$CBV?$basic_string@DU?$char_traits@D@std@@V?$allocator@D@2@@std@@VTechType@BWAPI@@@std@@@2@$0A@@std@@@std@@QAE@XZ 0042a310 f i BWAPI:TechType.obj
 0001:00029310       ??1?$_Tree@V?$_Tmap_traits@V?$basic_string@DU?$char_traits@D@std@@V?$allocator@D@2@@std@@VUnitSizeType@BWAPI@@U?$less@V?$basic_string@DU?$char_traits@D@std@@V?$allocator@D@2@@std@@@2@V?$allocator@U?$pair@$$CBV?$basic_string@DU?$char_traits@D@std@@V?$allocator@D@2@@std@@VUnitSizeType@BWAPI@@@std@@@2@$0A@@std@@@std@@QAE@XZ 0042a310 f i BWAPI:UnitSizeType.obj
 0001:00029310       ??1?$_Tree@V?$_Tmap_traits@V?$basic_string@DU?$char_traits@D@std@@V?$allocator@D@2@@std@@VPlayerType@BWAPI@@U?$less@V?$basic_string@DU?$char_traits@D@std@@V?$allocator@D@2@@std@@@2@V?$allocator@U?$pair@$$CBV?$basic_string@DU?$char_traits@D@std@@V?$allocator@D@2@@std@@VPlayerType@BWAPI@@@std@@@2@$0A@@std@@@std@@QAE@XZ 0042a310 f i BWAPI:PlayerType.obj
 0001:00029310       ??1?$_Tree@V?$_Tmap_traits@V?$basic_string@DU?$char_traits@D@std@@V?$allocator@D@2@@std@@VWeaponType@BWAPI@@U?$less@V?$basic_string@DU?$char_traits@D@std@@V?$allocator@D@2@@std@@@2@V?$allocator@U?$pair@$$CBV?$basic_string@DU?$char_traits@D@std@@V?$allocator@D@2@@std@@VWeaponType@BWAPI@@@std@@@2@$0A@@std@@@std@@QAE@XZ 0042a310 f i BWAPI:WeaponType.obj
 0001:00029310       ??1?$_Tree@V?$_Tmap_traits@V?$basic_string@DU?$char_traits@D@std@@V?$allocator@D@2@@std@@VExplosionType@BWAPI@@U?$less@V?$basic_string@DU?$char_traits@D@std@@V?$allocator@D@2@@std@@@2@V?$allocator@U?$pair@$$CBV?$basic_string@DU?$char_traits@D@std@@V?$allocator@D@2@@std@@VExplosionType@BWAPI@@@std@@@2@$0A@@std@@@std@@QAE@XZ 0042a310 f i BWAPI:ExplosionType.obj
 0001:00029310       ??1?$_Tree@V?$_Tmap_traits@V?$basic_string@DU?$char_traits@D@std@@V?$allocator@D@2@@std@@VBulletType@BWAPI@@U?$less@V?$basic_string@DU?$char_traits@D@std@@V?$allocator@D@2@@std@@@2@V?$allocator@U?$pair@$$CBV?$basic_string@DU?$char_traits@D@std@@V?$allocator@D@2@@std@@VBulletType@BWAPI@@@std@@@2@$0A@@std@@@std@@QAE@XZ 0042a310 f i BWAPI:BulletType.obj
 0001:00029310       ??1?$_Tree@V?$_Tmap_traits@V?$basic_string@DU?$char_traits@D@std@@V?$allocator@D@2@@std@@VError@BWAPI@@U?$less@V?$basic_string@DU?$char_traits@D@std@@V?$allocator@D@2@@std@@@2@V?$allocator@U?$pair@$$CBV?$basic_string@DU?$char_traits@D@std@@V?$allocator@D@2@@std@@VError@BWAPI@@@std@@@2@$0A@@std@@@std@@QAE@XZ 0042a310 f i BWAPI:Error.obj
 0001:00029310       ??1?$_Tree@V?$_Tmap_traits@V?$basic_string@DU?$char_traits@D@std@@V?$allocator@D@2@@std@@VDamageType@BWAPI@@U?$less@V?$basic_string@DU?$char_traits@D@std@@V?$allocator@D@2@@std@@@2@V?$allocator@U?$pair@$$CBV?$basic_string@DU?$char_traits@D@std@@V?$allocator@D@2@@std@@VDamageType@BWAPI@@@std@@@2@$0A@@std@@@std@@QAE@XZ 0042a310 f i BWAPI:DamageType.obj
 0001:00029310       ??1?$_Tree@V?$_Tmap_traits@V?$basic_string@DU?$char_traits@D@std@@V?$allocator@D@2@@std@@VUnitCommandType@BWAPI@@U?$less@V?$basic_string@DU?$char_traits@D@std@@V?$allocator@D@2@@std@@@2@V?$allocator@U?$pair@$$CBV?$basic_string@DU?$char_traits@D@std@@V?$allocator@D@2@@std@@VUnitCommandType@BWAPI@@@std@@@2@$0A@@std@@@std@@QAE@XZ 0042a310 f i BWAPI:UnitCommandType.obj
 0001:00029380       ?_Inc@const_iterator@?$_Tree@V?$_Tset_traits@VUnitSizeType@BWAPI@@U?$less@VUnitSizeType@BWAPI@@@std@@V?$allocator@VUnitSizeType@BWAPI@@@4@$0A@@std@@@std@@QAEXXZ 0042a380 f i BWAPI:UnitSizeType.obj
 0001:00029380       ?_Inc@const_iterator@?$_Tree@V?$_Tset_traits@VUpgradeType@BWAPI@@U?$less@VUpgradeType@BWAPI@@@std@@V?$allocator@VUpgradeType@BWAPI@@@4@$0A@@std@@@std@@QAEXXZ 0042a380 f i BWAPI:UnitType.obj
 0001:00029380       ?_Inc@const_iterator@?$_Tree@V?$_Tset_traits@VOrder@BWAPI@@U?$less@VOrder@BWAPI@@@std@@V?$allocator@VOrder@BWAPI@@@4@$0A@@std@@@std@@QAEXXZ 0042a380 f i BWAPI:Order.obj
 0001:00029380       ?_Inc@const_iterator@?$_Tree@V?$_Tset_traits@VDamageType@BWAPI@@U?$less@VDamageType@BWAPI@@@std@@V?$allocator@VDamageType@BWAPI@@@4@$0A@@std@@@std@@QAEXXZ 0042a380 f i BWAPI:DamageType.obj
 0001:00029380       ?_Inc@const_iterator@?$_Tree@V?$_Tset_traits@VUnitType@BWAPI@@U?$less@VUnitType@BWAPI@@@std@@V?$allocator@VUnitType@BWAPI@@@4@$0A@@std@@@std@@QAEXXZ 0042a380 f i BWAPI:UnitType.obj
 0001:00029380       ?_Inc@const_iterator@?$_Tree@V?$_Tset_traits@VError@BWAPI@@U?$less@VError@BWAPI@@@std@@V?$allocator@VError@BWAPI@@@4@$0A@@std@@@std@@QAEXXZ 0042a380 f i BWAPI:Error.obj
 0001:00029380       ?_Inc@const_iterator@?$_Tree@V?$_Tset_traits@VPlayerType@BWAPI@@U?$less@VPlayerType@BWAPI@@@std@@V?$allocator@VPlayerType@BWAPI@@@4@$0A@@std@@@std@@QAEXXZ 0042a380 f i BWAPI:PlayerType.obj
 0001:00029380       ?_Inc@const_iterator@?$_Tree@V?$_Tset_traits@VExplosionType@BWAPI@@U?$less@VExplosionType@BWAPI@@@std@@V?$allocator@VExplosionType@BWAPI@@@4@$0A@@std@@@std@@QAEXXZ 0042a380 f i BWAPI:ExplosionType.obj
 0001:00029380       ?_Inc@const_iterator@?$_Tree@V?$_Tset_traits@VBulletType@BWAPI@@U?$less@VBulletType@BWAPI@@@std@@V?$allocator@VBulletType@BWAPI@@@4@$0A@@std@@@std@@QAEXXZ 0042a380 f i BWAPI:BulletType.obj
 0001:00029380       ?_Inc@const_iterator@?$_Tree@V?$_Tset_traits@VWeaponType@BWAPI@@U?$less@VWeaponType@BWAPI@@@std@@V?$allocator@VWeaponType@BWAPI@@@4@$0A@@std@@@std@@QAEXXZ 0042a380 f i BWAPI:WeaponType.obj
 0001:00029380       ?_Inc@const_iterator@?$_Tree@V?$_Tset_traits@VUnitCommandType@BWAPI@@U?$less@VUnitCommandType@BWAPI@@@std@@V?$allocator@VUnitCommandType@BWAPI@@@4@$0A@@std@@@std@@QAEXXZ 0042a380 f i BWAPI:UnitCommandType.obj
 0001:00029380       ?_Inc@const_iterator@?$_Tree@V?$_Tset_traits@VTechType@BWAPI@@U?$less@VTechType@BWAPI@@@std@@V?$allocator@VTechType@BWAPI@@@4@$0A@@std@@@std@@QAEXXZ 0042a380 f i BWAPI:UnitType.obj
 0001:00029380       ?_Inc@const_iterator@?$_Tree@V?$_Tset_traits@VRace@BWAPI@@U?$less@VRace@BWAPI@@@std@@V?$allocator@VRace@BWAPI@@@4@$0A@@std@@@std@@QAEXXZ 0042a380 f i BWAPI:Race.obj
 0001:00029380       ?_Inc@const_iterator@?$_Tree@V?$_Tset_traits@VGameType@BWAPI@@U?$less@VGameType@BWAPI@@@std@@V?$allocator@VGameType@BWAPI@@@4@$0A@@std@@@std@@QAEXXZ 0042a380 f i BWAPI:GameType.obj
 0001:000293f0       ?_Lrotate@?$_Tree@V?$_Tmap_traits@V?$basic_string@DU?$char_traits@D@std@@V?$allocator@D@2@@std@@VPlayerType@BWAPI@@U?$less@V?$basic_string@DU?$char_traits@D@std@@V?$allocator@D@2@@std@@@2@V?$allocator@U?$pair@$$CBV?$basic_string@DU?$char_traits@D@std@@V?$allocator@D@2@@std@@VPlayerType@BWAPI@@@std@@@2@$0A@@std@@@std@@IAEXPAU_Node@?$_Tree_nod@V?$_Tmap_traits@V?$basic_string@DU?$char_traits@D@std@@V?$allocator@D@2@@std@@VPlayerType@BWAPI@@U?$less@V?$basic_string@DU?$char_traits@D@std@@V?$allocator@D@2@@std@@@2@V?$allocator@U?$pair@$$CBV?$basic_string@DU?$char_traits@D@std@@V?$allocator@D@2@@std@@VPlayerType@BWAPI@@@std@@@2@$0A@@std@@@2@@Z 0042a3f0 f i BWAPI:PlayerType.obj
 0001:000293f0       ?_Lrotate@?$_Tree@V?$_Tmap_traits@V?$basic_string@DU?$char_traits@D@std@@V?$allocator@D@2@@std@@VWeaponType@BWAPI@@U?$less@V?$basic_string@DU?$char_traits@D@std@@V?$allocator@D@2@@std@@@2@V?$allocator@U?$pair@$$CBV?$basic_string@DU?$char_traits@D@std@@V?$allocator@D@2@@std@@VWeaponType@BWAPI@@@std@@@2@$0A@@std@@@std@@IAEXPAU_Node@?$_Tree_nod@V?$_Tmap_traits@V?$basic_string@DU?$char_traits@D@std@@V?$allocator@D@2@@std@@VWeaponType@BWAPI@@U?$less@V?$basic_string@DU?$char_traits@D@std@@V?$allocator@D@2@@std@@@2@V?$allocator@U?$pair@$$CBV?$basic_string@DU?$char_traits@D@std@@V?$allocator@D@2@@std@@VWeaponType@BWAPI@@@std@@@2@$0A@@std@@@2@@Z 0042a3f0 f i BWAPI:WeaponType.obj
 0001:000293f0       ?_Lrotate@?$_Tree@V?$_Tmap_traits@V?$basic_string@DU?$char_traits@D@std@@V?$allocator@D@2@@std@@VBulletType@BWAPI@@U?$less@V?$basic_string@DU?$char_traits@D@std@@V?$allocator@D@2@@std@@@2@V?$allocator@U?$pair@$$CBV?$basic_string@DU?$char_traits@D@std@@V?$allocator@D@2@@std@@VBulletType@BWAPI@@@std@@@2@$0A@@std@@@std@@IAEXPAU_Node@?$_Tree_nod@V?$_Tmap_traits@V?$basic_string@DU?$char_traits@D@std@@V?$allocator@D@2@@std@@VBulletType@BWAPI@@U?$less@V?$basic_string@DU?$char_traits@D@std@@V?$allocator@D@2@@std@@@2@V?$allocator@U?$pair@$$CBV?$basic_string@DU?$char_traits@D@std@@V?$allocator@D@2@@std@@VBulletType@BWAPI@@@std@@@2@$0A@@std@@@2@@Z 0042a3f0 f i BWAPI:BulletType.obj
 0001:000293f0       ?_Lrotate@?$_Tree@V?$_Tmap_traits@V?$basic_string@DU?$char_traits@D@std@@V?$allocator@D@2@@std@@VUnitCommandType@BWAPI@@U?$less@V?$basic_string@DU?$char_traits@D@std@@V?$allocator@D@2@@std@@@2@V?$allocator@U?$pair@$$CBV?$basic_string@DU?$char_traits@D@std@@V?$allocator@D@2@@std@@VUnitCommandType@BWAPI@@@std@@@2@$0A@@std@@@std@@IAEXPAU_Node@?$_Tree_nod@V?$_Tmap_traits@V?$basic_string@DU?$char_traits@D@std@@V?$allocator@D@2@@std@@VUnitCommandType@BWAPI@@U?$less@V?$basic_string@DU?$char_traits@D@std@@V?$allocator@D@2@@std@@@2@V?$allocator@U?$pair@$$CBV?$basic_string@DU?$char_traits@D@std@@V?$allocator@D@2@@std@@VUnitCommandType@BWAPI@@@std@@@2@$0A@@std@@@2@@Z 0042a3f0 f i BWAPI:UnitCommandType.obj
 0001:000293f0       ?_Lrotate@?$_Tree@V?$_Tmap_traits@V?$basic_string@DU?$char_traits@D@std@@V?$allocator@D@2@@std@@VDamageType@BWAPI@@U?$less@V?$basic_string@DU?$char_traits@D@std@@V?$allocator@D@2@@std@@@2@V?$allocator@U?$pair@$$CBV?$basic_string@DU?$char_traits@D@std@@V?$allocator@D@2@@std@@VDamageType@BWAPI@@@std@@@2@$0A@@std@@@std@@IAEXPAU_Node@?$_Tree_nod@V?$_Tmap_traits@V?$basic_string@DU?$char_traits@D@std@@V?$allocator@D@2@@std@@VDamageType@BWAPI@@U?$less@V?$basic_string@DU?$char_traits@D@std@@V?$allocator@D@2@@std@@@2@V?$allocator@U?$pair@$$CBV?$basic_string@DU?$char_traits@D@std@@V?$allocator@D@2@@std@@VDamageType@BWAPI@@@std@@@2@$0A@@std@@@2@@Z 0042a3f0 f i BWAPI:DamageType.obj
 0001:000293f0       ?_Lrotate@?$_Tree@V?$_Tmap_traits@V?$basic_string@DU?$char_traits@D@std@@V?$allocator@D@2@@std@@VExplosionType@BWAPI@@U?$less@V?$basic_string@DU?$char_traits@D@std@@V?$allocator@D@2@@std@@@2@V?$allocator@U?$pair@$$CBV?$basic_string@DU?$char_traits@D@std@@V?$allocator@D@2@@std@@VExplosionType@BWAPI@@@std@@@2@$0A@@std@@@std@@IAEXPAU_Node@?$_Tree_nod@V?$_Tmap_traits@V?$basic_string@DU?$char_traits@D@std@@V?$allocator@D@2@@std@@VExplosionType@BWAPI@@U?$less@V?$basic_string@DU?$char_traits@D@std@@V?$allocator@D@2@@std@@@2@V?$allocator@U?$pair@$$CBV?$basic_string@DU?$char_traits@D@std@@V?$allocator@D@2@@std@@VExplosionType@BWAPI@@@std@@@2@$0A@@std@@@2@@Z 0042a3f0 f i BWAPI:ExplosionType.obj
 0001:000293f0       ?_Lrotate@?$_Tree@V?$_Tmap_traits@V?$basic_string@DU?$char_traits@D@std@@V?$allocator@D@2@@std@@VTechType@BWAPI@@U?$less@V?$basic_string@DU?$char_traits@D@std@@V?$allocator@D@2@@std@@@2@V?$allocator@U?$pair@$$CBV?$basic_string@DU?$char_traits@D@std@@V?$allocator@D@2@@std@@VTechType@BWAPI@@@std@@@2@$0A@@std@@@std@@IAEXPAU_Node@?$_Tree_nod@V?$_Tmap_traits@V?$basic_string@DU?$char_traits@D@std@@V?$allocator@D@2@@std@@VTechType@BWAPI@@U?$less@V?$basic_string@DU?$char_traits@D@std@@V?$allocator@D@2@@std@@@2@V?$allocator@U?$pair@$$CBV?$basic_string@DU?$char_traits@D@std@@V?$allocator@D@2@@std@@VTechType@BWAPI@@@std@@@2@$0A@@std@@@2@@Z 0042a3f0 f i BWAPI:TechType.obj
 0001:000293f0       ?_Lrotate@?$_Tree@V?$_Tmap_traits@V?$basic_string@DU?$char_traits@D@std@@V?$allocator@D@2@@std@@VUnitSizeType@BWAPI@@U?$less@V?$basic_string@DU?$char_traits@D@std@@V?$allocator@D@2@@std@@@2@V?$allocator@U?$pair@$$CBV?$basic_string@DU?$char_traits@D@std@@V?$allocator@D@2@@std@@VUnitSizeType@BWAPI@@@std@@@2@$0A@@std@@@std@@IAEXPAU_Node@?$_Tree_nod@V?$_Tmap_traits@V?$basic_string@DU?$char_traits@D@std@@V?$allocator@D@2@@std@@VUnitSizeType@BWAPI@@U?$less@V?$basic_string@DU?$char_traits@D@std@@V?$allocator@D@2@@std@@@2@V?$allocator@U?$pair@$$CBV?$basic_string@DU?$char_traits@D@std@@V?$allocator@D@2@@std@@VUnitSizeType@BWAPI@@@std@@@2@$0A@@std@@@2@@Z 0042a3f0 f i BWAPI:UnitSizeType.obj
 0001:000293f0       ?_Lrotate@?$_Tree@V?$_Tmap_traits@V?$basic_string@DU?$char_traits@D@std@@V?$allocator@D@2@@std@@VRace@BWAPI@@U?$less@V?$basic_string@DU?$char_traits@D@std@@V?$allocator@D@2@@std@@@2@V?$allocator@U?$pair@$$CBV?$basic_string@DU?$char_traits@D@std@@V?$allocator@D@2@@std@@VRace@BWAPI@@@std@@@2@$0A@@std@@@std@@IAEXPAU_Node@?$_Tree_nod@V?$_Tmap_traits@V?$basic_string@DU?$char_traits@D@std@@V?$allocator@D@2@@std@@VRace@BWAPI@@U?$less@V?$basic_string@DU?$char_traits@D@std@@V?$allocator@D@2@@std@@@2@V?$allocator@U?$pair@$$CBV?$basic_string@DU?$char_traits@D@std@@V?$allocator@D@2@@std@@VRace@BWAPI@@@std@@@2@$0A@@std@@@2@@Z 0042a3f0 f i BWAPI:Race.obj
 0001:000293f0       ?_Lrotate@?$_Tree@V?$_Tmap_traits@V?$basic_string@DU?$char_traits@D@std@@V?$allocator@D@2@@std@@VOrder@BWAPI@@U?$less@V?$basic_string@DU?$char_traits@D@std@@V?$allocator@D@2@@std@@@2@V?$allocator@U?$pair@$$CBV?$basic_string@DU?$char_traits@D@std@@V?$allocator@D@2@@std@@VOrder@BWAPI@@@std@@@2@$0A@@std@@@std@@IAEXPAU_Node@?$_Tree_nod@V?$_Tmap_traits@V?$basic_string@DU?$char_traits@D@std@@V?$allocator@D@2@@std@@VOrder@BWAPI@@U?$less@V?$basic_string@DU?$char_traits@D@std@@V?$allocator@D@2@@std@@@2@V?$allocator@U?$pair@$$CBV?$basic_string@DU?$char_traits@D@std@@V?$allocator@D@2@@std@@VOrder@BWAPI@@@std@@@2@$0A@@std@@@2@@Z 0042a3f0 f i BWAPI:Order.obj
 0001:000293f0       ?_Lrotate@?$_Tree@V?$_Tmap_traits@V?$basic_string@DU?$char_traits@D@std@@V?$allocator@D@2@@std@@VUnitType@BWAPI@@U?$less@V?$basic_string@DU?$char_traits@D@std@@V?$allocator@D@2@@std@@@2@V?$allocator@U?$pair@$$CBV?$basic_string@DU?$char_traits@D@std@@V?$allocator@D@2@@std@@VUnitType@BWAPI@@@std@@@2@$0A@@std@@@std@@IAEXPAU_Node@?$_Tree_nod@V?$_Tmap_traits@V?$basic_string@DU?$char_traits@D@std@@V?$allocator@D@2@@std@@VUnitType@BWAPI@@U?$less@V?$basic_string@DU?$char_traits@D@std@@V?$allocator@D@2@@std@@@2@V?$allocator@U?$pair@$$CBV?$basic_string@DU?$char_traits@D@std@@V?$allocator@D@2@@std@@VUnitType@BWAPI@@@std@@@2@$0A@@std@@@2@@Z 0042a3f0 f i BWAPI:UnitType.obj
 0001:000293f0       ?_Lrotate@?$_Tree@V?$_Tmap_traits@V?$basic_string@DU?$char_traits@D@std@@V?$allocator@D@2@@std@@VUpgradeType@BWAPI@@U?$less@V?$basic_string@DU?$char_traits@D@std@@V?$allocator@D@2@@std@@@2@V?$allocator@U?$pair@$$CBV?$basic_string@DU?$char_traits@D@std@@V?$allocator@D@2@@std@@VUpgradeType@BWAPI@@@std@@@2@$0A@@std@@@std@@IAEXPAU_Node@?$_Tree_nod@V?$_Tmap_traits@V?$basic_string@DU?$char_traits@D@std@@V?$allocator@D@2@@std@@VUpgradeType@BWAPI@@U?$less@V?$basic_string@DU?$char_traits@D@std@@V?$allocator@D@2@@std@@@2@V?$allocator@U?$pair@$$CBV?$basic_string@DU?$char_traits@D@std@@V?$allocator@D@2@@std@@VUpgradeType@BWAPI@@@std@@@2@$0A@@std@@@2@@Z 0042a3f0 f i BWAPI:UpgradeType.obj
 0001:000293f0       ?_Lrotate@?$_Tree@V?$_Tmap_traits@V?$basic_string@DU?$char_traits@D@std@@V?$allocator@D@2@@std@@VError@BWAPI@@U?$less@V?$basic_string@DU?$char_traits@D@std@@V?$allocator@D@2@@std@@@2@V?$allocator@U?$pair@$$CBV?$basic_string@DU?$char_traits@D@std@@V?$allocator@D@2@@std@@VError@BWAPI@@@std@@@2@$0A@@std@@@std@@IAEXPAU_Node@?$_Tree_nod@V?$_Tmap_traits@V?$basic_string@DU?$char_traits@D@std@@V?$allocator@D@2@@std@@VError@BWAPI@@U?$less@V?$basic_string@DU?$char_traits@D@std@@V?$allocator@D@2@@std@@@2@V?$allocator@U?$pair@$$CBV?$basic_string@DU?$char_traits@D@std@@V?$allocator@D@2@@std@@VError@BWAPI@@@std@@@2@$0A@@std@@@2@@Z 0042a3f0 f i BWAPI:Error.obj
 0001:000293f0       ?_Lrotate@?$_Tree@V?$_Tmap_traits@V?$basic_string@DU?$char_traits@D@std@@V?$allocator@D@2@@std@@VGameType@BWAPI@@U?$less@V?$basic_string@DU?$char_traits@D@std@@V?$allocator@D@2@@std@@@2@V?$allocator@U?$pair@$$CBV?$basic_string@DU?$char_traits@D@std@@V?$allocator@D@2@@std@@VGameType@BWAPI@@@std@@@2@$0A@@std@@@std@@IAEXPAU_Node@?$_Tree_nod@V?$_Tmap_traits@V?$basic_string@DU?$char_traits@D@std@@V?$allocator@D@2@@std@@VGameType@BWAPI@@U?$less@V?$basic_string@DU?$char_traits@D@std@@V?$allocator@D@2@@std@@@2@V?$allocator@U?$pair@$$CBV?$basic_string@DU?$char_traits@D@std@@V?$allocator@D@2@@std@@VGameType@BWAPI@@@std@@@2@$0A@@std@@@2@@Z 0042a3f0 f i BWAPI:GameType.obj
 0001:00029440       ?_Buynode@?$_Tree@V?$_Tset_traits@VRace@BWAPI@@U?$less@VRace@BWAPI@@@std@@V?$allocator@VRace@BWAPI@@@4@$0A@@std@@@std@@IAEPAU_Node@?$_Tree_nod@V?$_Tset_traits@VRace@BWAPI@@U?$less@VRace@BWAPI@@@std@@V?$allocator@VRace@BWAPI@@@4@$0A@@std@@@2@PAU342@00ABVRace@BWAPI@@D@Z 0042a440 f i BWAPI:Race.obj
 0001:00029440       ?_Buynode@?$_Tree@V?$_Tset_traits@VGameType@BWAPI@@U?$less@VGameType@BWAPI@@@std@@V?$allocator@VGameType@BWAPI@@@4@$0A@@std@@@std@@IAEPAU_Node@?$_Tree_nod@V?$_Tset_traits@VGameType@BWAPI@@U?$less@VGameType@BWAPI@@@std@@V?$allocator@VGameType@BWAPI@@@4@$0A@@std@@@2@PAU342@00ABVGameType@BWAPI@@D@Z 0042a440 f i BWAPI:GameType.obj
 0001:00029440       ?_Buynode@?$_Tree@V?$_Tset_traits@VOrder@BWAPI@@U?$less@VOrder@BWAPI@@@std@@V?$allocator@VOrder@BWAPI@@@4@$0A@@std@@@std@@IAEPAU_Node@?$_Tree_nod@V?$_Tset_traits@VOrder@BWAPI@@U?$less@VOrder@BWAPI@@@std@@V?$allocator@VOrder@BWAPI@@@4@$0A@@std@@@2@PAU342@00ABVOrder@BWAPI@@D@Z 0042a440 f i BWAPI:Order.obj
 0001:00029440       ?_Buynode@?$_Tree@V?$_Tset_traits@VBulletType@BWAPI@@U?$less@VBulletType@BWAPI@@@std@@V?$allocator@VBulletType@BWAPI@@@4@$0A@@std@@@std@@IAEPAU_Node@?$_Tree_nod@V?$_Tset_traits@VBulletType@BWAPI@@U?$less@VBulletType@BWAPI@@@std@@V?$allocator@VBulletType@BWAPI@@@4@$0A@@std@@@2@PAU342@00ABVBulletType@BWAPI@@D@Z 0042a440 f i BWAPI:BulletType.obj
 0001:00029440       ?_Buynode@?$_Tree@V?$_Tset_traits@VWeaponType@BWAPI@@U?$less@VWeaponType@BWAPI@@@std@@V?$allocator@VWeaponType@BWAPI@@@4@$0A@@std@@@std@@IAEPAU_Node@?$_Tree_nod@V?$_Tset_traits@VWeaponType@BWAPI@@U?$less@VWeaponType@BWAPI@@@std@@V?$allocator@VWeaponType@BWAPI@@@4@$0A@@std@@@2@PAU342@00ABVWeaponType@BWAPI@@D@Z 0042a440 f i BWAPI:WeaponType.obj
 0001:00029440       ?_Buynode@?$_Tree@V?$_Tset_traits@VUnitCommandType@BWAPI@@U?$less@VUnitCommandType@BWAPI@@@std@@V?$allocator@VUnitCommandType@BWAPI@@@4@$0A@@std@@@std@@IAEPAU_Node@?$_Tree_nod@V?$_Tset_traits@VUnitCommandType@BWAPI@@U?$less@VUnitCommandType@BWAPI@@@std@@V?$allocator@VUnitCommandType@BWAPI@@@4@$0A@@std@@@2@PAU342@00ABVUnitCommandType@BWAPI@@D@Z 0042a440 f i BWAPI:UnitCommandType.obj
 0001:00029440       ?_Buynode@?$_Tree@V?$_Tset_traits@VTechType@BWAPI@@U?$less@VTechType@BWAPI@@@std@@V?$allocator@VTechType@BWAPI@@@4@$0A@@std@@@std@@IAEPAU_Node@?$_Tree_nod@V?$_Tset_traits@VTechType@BWAPI@@U?$less@VTechType@BWAPI@@@std@@V?$allocator@VTechType@BWAPI@@@4@$0A@@std@@@2@PAU342@00ABVTechType@BWAPI@@D@Z 0042a440 f i BWAPI:UnitType.obj
 0001:00029440       ?_Buynode@?$_Tree@V?$_Tset_traits@VUpgradeType@BWAPI@@U?$less@VUpgradeType@BWAPI@@@std@@V?$allocator@VUpgradeType@BWAPI@@@4@$0A@@std@@@std@@IAEPAU_Node@?$_Tree_nod@V?$_Tset_traits@VUpgradeType@BWAPI@@U?$less@VUpgradeType@BWAPI@@@std@@V?$allocator@VUpgradeType@BWAPI@@@4@$0A@@std@@@2@PAU342@00ABVUpgradeType@BWAPI@@D@Z 0042a440 f i BWAPI:UnitType.obj
 0001:00029440       ?_Buynode@?$_Tree@V?$_Tset_traits@VUnitSizeType@BWAPI@@U?$less@VUnitSizeType@BWAPI@@@std@@V?$allocator@VUnitSizeType@BWAPI@@@4@$0A@@std@@@std@@IAEPAU_Node@?$_Tree_nod@V?$_Tset_traits@VUnitSizeType@BWAPI@@U?$less@VUnitSizeType@BWAPI@@@std@@V?$allocator@VUnitSizeType@BWAPI@@@4@$0A@@std@@@2@PAU342@00ABVUnitSizeType@BWAPI@@D@Z 0042a440 f i BWAPI:UnitSizeType.obj
 0001:00029440       ?_Buynode@?$_Tree@V?$_Tset_traits@VUnitType@BWAPI@@U?$less@VUnitType@BWAPI@@@std@@V?$allocator@VUnitType@BWAPI@@@4@$0A@@std@@@std@@IAEPAU_Node@?$_Tree_nod@V?$_Tset_traits@VUnitType@BWAPI@@U?$less@VUnitType@BWAPI@@@std@@V?$allocator@VUnitType@BWAPI@@@4@$0A@@std@@@2@PAU342@00ABVUnitType@BWAPI@@D@Z 0042a440 f i BWAPI:UnitType.obj
 0001:00029440       ?_Buynode@?$_Tree@V?$_Tset_traits@VExplosionType@BWAPI@@U?$less@VExplosionType@BWAPI@@@std@@V?$allocator@VExplosionType@BWAPI@@@4@$0A@@std@@@std@@IAEPAU_Node@?$_Tree_nod@V?$_Tset_traits@VExplosionType@BWAPI@@U?$less@VExplosionType@BWAPI@@@std@@V?$allocator@VExplosionType@BWAPI@@@4@$0A@@std@@@2@PAU342@00ABVExplosionType@BWAPI@@D@Z 0042a440 f i BWAPI:ExplosionType.obj
 0001:00029440       ?_Buynode@?$_Tree@V?$_Tset_traits@VDamageType@BWAPI@@U?$less@VDamageType@BWAPI@@@std@@V?$allocator@VDamageType@BWAPI@@@4@$0A@@std@@@std@@IAEPAU_Node@?$_Tree_nod@V?$_Tset_traits@VDamageType@BWAPI@@U?$less@VDamageType@BWAPI@@@std@@V?$allocator@VDamageType@BWAPI@@@4@$0A@@std@@@2@PAU342@00ABVDamageType@BWAPI@@D@Z 0042a440 f i BWAPI:DamageType.obj
 0001:00029440       ?_Buynode@?$_Tree@V?$_Tset_traits@VPlayerType@BWAPI@@U?$less@VPlayerType@BWAPI@@@std@@V?$allocator@VPlayerType@BWAPI@@@4@$0A@@std@@@std@@IAEPAU_Node@?$_Tree_nod@V?$_Tset_traits@VPlayerType@BWAPI@@U?$less@VPlayerType@BWAPI@@@std@@V?$allocator@VPlayerType@BWAPI@@@4@$0A@@std@@@2@PAU342@00ABVPlayerType@BWAPI@@D@Z 0042a440 f i BWAPI:PlayerType.obj
 0001:00029440       ?_Buynode@?$_Tree@V?$_Tset_traits@VError@BWAPI@@U?$less@VError@BWAPI@@@std@@V?$allocator@VError@BWAPI@@@4@$0A@@std@@@std@@IAEPAU_Node@?$_Tree_nod@V?$_Tset_traits@VError@BWAPI@@U?$less@VError@BWAPI@@@std@@V?$allocator@VError@BWAPI@@@4@$0A@@std@@@2@PAU342@00ABVError@BWAPI@@D@Z 0042a440 f i BWAPI:Error.obj
 0001:00029480       ?_Erase@?$_Tree@V?$_Tset_traits@VRace@BWAPI@@U?$less@VRace@BWAPI@@@std@@V?$allocator@VRace@BWAPI@@@4@$0A@@std@@@std@@IAEXPAU_Node@?$_Tree_nod@V?$_Tset_traits@VRace@BWAPI@@U?$less@VRace@BWAPI@@@std@@V?$allocator@VRace@BWAPI@@@4@$0A@@std@@@2@@Z 0042a480 f i BWAPI:Race.obj
 0001:00029480       ?_Erase@?$_Tree@V?$_Tset_traits@VExplosionType@BWAPI@@U?$less@VExplosionType@BWAPI@@@std@@V?$allocator@VExplosionType@BWAPI@@@4@$0A@@std@@@std@@IAEXPAU_Node@?$_Tree_nod@V?$_Tset_traits@VExplosionType@BWAPI@@U?$less@VExplosionType@BWAPI@@@std@@V?$allocator@VExplosionType@BWAPI@@@4@$0A@@std@@@2@@Z 0042a480 f i BWAPI:ExplosionType.obj
 0001:00029480       ?_Erase@?$_Tree@V?$_Tset_traits@VTechType@BWAPI@@U?$less@VTechType@BWAPI@@@std@@V?$allocator@VTechType@BWAPI@@@4@$0A@@std@@@std@@IAEXPAU_Node@?$_Tree_nod@V?$_Tset_traits@VTechType@BWAPI@@U?$less@VTechType@BWAPI@@@std@@V?$allocator@VTechType@BWAPI@@@4@$0A@@std@@@2@@Z 0042a480 f i BWAPI:UnitType.obj
 0001:00029480       ?_Erase@?$_Tree@V?$_Tset_traits@VUnitSizeType@BWAPI@@U?$less@VUnitSizeType@BWAPI@@@std@@V?$allocator@VUnitSizeType@BWAPI@@@4@$0A@@std@@@std@@IAEXPAU_Node@?$_Tree_nod@V?$_Tset_traits@VUnitSizeType@BWAPI@@U?$less@VUnitSizeType@BWAPI@@@std@@V?$allocator@VUnitSizeType@BWAPI@@@4@$0A@@std@@@2@@Z 0042a480 f i BWAPI:UnitSizeType.obj
 0001:00029480       ?_Erase@?$_Tree@V?$_Tset_traits@VUpgradeType@BWAPI@@U?$less@VUpgradeType@BWAPI@@@std@@V?$allocator@VUpgradeType@BWAPI@@@4@$0A@@std@@@std@@IAEXPAU_Node@?$_Tree_nod@V?$_Tset_traits@VUpgradeType@BWAPI@@U?$less@VUpgradeType@BWAPI@@@std@@V?$allocator@VUpgradeType@BWAPI@@@4@$0A@@std@@@2@@Z 0042a480 f i BWAPI:UnitType.obj
 0001:00029480       ?_Erase@?$_Tree@V?$_Tset_traits@VPlayerType@BWAPI@@U?$less@VPlayerType@BWAPI@@@std@@V?$allocator@VPlayerType@BWAPI@@@4@$0A@@std@@@std@@IAEXPAU_Node@?$_Tree_nod@V?$_Tset_traits@VPlayerType@BWAPI@@U?$less@VPlayerType@BWAPI@@@std@@V?$allocator@VPlayerType@BWAPI@@@4@$0A@@std@@@2@@Z 0042a480 f i BWAPI:PlayerType.obj
 0001:00029480       ?_Erase@?$_Tree@V?$_Tset_traits@VGameType@BWAPI@@U?$less@VGameType@BWAPI@@@std@@V?$allocator@VGameType@BWAPI@@@4@$0A@@std@@@std@@IAEXPAU_Node@?$_Tree_nod@V?$_Tset_traits@VGameType@BWAPI@@U?$less@VGameType@BWAPI@@@std@@V?$allocator@VGameType@BWAPI@@@4@$0A@@std@@@2@@Z 0042a480 f i BWAPI:GameType.obj
 0001:00029480       ?_Erase@?$_Tree@V?$_Tset_traits@VDamageType@BWAPI@@U?$less@VDamageType@BWAPI@@@std@@V?$allocator@VDamageType@BWAPI@@@4@$0A@@std@@@std@@IAEXPAU_Node@?$_Tree_nod@V?$_Tset_traits@VDamageType@BWAPI@@U?$less@VDamageType@BWAPI@@@std@@V?$allocator@VDamageType@BWAPI@@@4@$0A@@std@@@2@@Z 0042a480 f i BWAPI:DamageType.obj
 0001:00029480       ?_Erase@?$_Tree@V?$_Tset_traits@VError@BWAPI@@U?$less@VError@BWAPI@@@std@@V?$allocator@VError@BWAPI@@@4@$0A@@std@@@std@@IAEXPAU_Node@?$_Tree_nod@V?$_Tset_traits@VError@BWAPI@@U?$less@VError@BWAPI@@@std@@V?$allocator@VError@BWAPI@@@4@$0A@@std@@@2@@Z 0042a480 f i BWAPI:Error.obj
 0001:00029480       ?_Erase@?$_Tree@V?$_Tset_traits@VOrder@BWAPI@@U?$less@VOrder@BWAPI@@@std@@V?$allocator@VOrder@BWAPI@@@4@$0A@@std@@@std@@IAEXPAU_Node@?$_Tree_nod@V?$_Tset_traits@VOrder@BWAPI@@U?$less@VOrder@BWAPI@@@std@@V?$allocator@VOrder@BWAPI@@@4@$0A@@std@@@2@@Z 0042a480 f i BWAPI:Order.obj
 0001:00029480       ?_Erase@?$_Tree@V?$_Tset_traits@VUnitCommandType@BWAPI@@U?$less@VUnitCommandType@BWAPI@@@std@@V?$allocator@VUnitCommandType@BWAPI@@@4@$0A@@std@@@std@@IAEXPAU_Node@?$_Tree_nod@V?$_Tset_traits@VUnitCommandType@BWAPI@@U?$less@VUnitCommandType@BWAPI@@@std@@V?$allocator@VUnitCommandType@BWAPI@@@4@$0A@@std@@@2@@Z 0042a480 f i BWAPI:UnitCommandType.obj
 0001:00029480       ?_Erase@?$_Tree@V?$_Tset_traits@VWeaponType@BWAPI@@U?$less@VWeaponType@BWAPI@@@std@@V?$allocator@VWeaponType@BWAPI@@@4@$0A@@std@@@std@@IAEXPAU_Node@?$_Tree_nod@V?$_Tset_traits@VWeaponType@BWAPI@@U?$less@VWeaponType@BWAPI@@@std@@V?$allocator@VWeaponType@BWAPI@@@4@$0A@@std@@@2@@Z 0042a480 f i BWAPI:WeaponType.obj
 0001:00029480       ?_Erase@?$_Tree@V?$_Tset_traits@VBulletType@BWAPI@@U?$less@VBulletType@BWAPI@@@std@@V?$allocator@VBulletType@BWAPI@@@4@$0A@@std@@@std@@IAEXPAU_Node@?$_Tree_nod@V?$_Tset_traits@VBulletType@BWAPI@@U?$less@VBulletType@BWAPI@@@std@@V?$allocator@VBulletType@BWAPI@@@4@$0A@@std@@@2@@Z 0042a480 f i BWAPI:BulletType.obj
 0001:00029480       ?_Erase@?$_Tree@V?$_Tset_traits@VUnitType@BWAPI@@U?$less@VUnitType@BWAPI@@@std@@V?$allocator@VUnitType@BWAPI@@@4@$0A@@std@@@std@@IAEXPAU_Node@?$_Tree_nod@V?$_Tset_traits@VUnitType@BWAPI@@U?$less@VUnitType@BWAPI@@@std@@V?$allocator@VUnitType@BWAPI@@@4@$0A@@std@@@2@@Z 0042a480 f i BWAPI:UnitType.obj
 0001:000294c0       ?init@GameTypes@BWAPI@@YAXXZ 0042a4c0 f   BWAPI:GameType.obj
 0001:000299e0       ?init@Colors@BWAPI@@YAXXZ  0042a9e0 f   BWAPI:Color.obj
 0001:000299f0       ?toString@Error@BWAPI@@QBE?AV?$basic_string@DU?$char_traits@D@std@@V?$allocator@D@2@@std@@XZ 0042a9f0 f   BWAPI:Error.obj
 0001:00029a30       ?_Max@?$_Tree@V?$_Tmap_traits@V?$basic_string@DU?$char_traits@D@std@@V?$allocator@D@2@@std@@VUnitSizeType@BWAPI@@U?$less@V?$basic_string@DU?$char_traits@D@std@@V?$allocator@D@2@@std@@@2@V?$allocator@U?$pair@$$CBV?$basic_string@DU?$char_traits@D@std@@V?$allocator@D@2@@std@@VUnitSizeType@BWAPI@@@std@@@2@$0A@@std@@@std@@KAPAU_Node@?$_Tree_nod@V?$_Tmap_traits@V?$basic_string@DU?$char_traits@D@std@@V?$allocator@D@2@@std@@VUnitSizeType@BWAPI@@U?$less@V?$basic_string@DU?$char_traits@D@std@@V?$allocator@D@2@@std@@@2@V?$allocator@U?$pair@$$CBV?$basic_string@DU?$char_traits@D@std@@V?$allocator@D@2@@std@@VUnitSizeType@BWAPI@@@std@@@2@$0A@@std@@@2@PAU342@@Z 0042aa30 f i BWAPI:UnitSizeType.obj
 0001:00029a30       ?_Max@?$_Tree@V?$_Tmap_traits@V?$basic_string@DU?$char_traits@D@std@@V?$allocator@D@2@@std@@VError@BWAPI@@U?$less@V?$basic_string@DU?$char_traits@D@std@@V?$allocator@D@2@@std@@@2@V?$allocator@U?$pair@$$CBV?$basic_string@DU?$char_traits@D@std@@V?$allocator@D@2@@std@@VError@BWAPI@@@std@@@2@$0A@@std@@@std@@KAPAU_Node@?$_Tree_nod@V?$_Tmap_traits@V?$basic_string@DU?$char_traits@D@std@@V?$allocator@D@2@@std@@VError@BWAPI@@U?$less@V?$basic_string@DU?$char_traits@D@std@@V?$allocator@D@2@@std@@@2@V?$allocator@U?$pair@$$CBV?$basic_string@DU?$char_traits@D@std@@V?$allocator@D@2@@std@@VError@BWAPI@@@std@@@2@$0A@@std@@@2@PAU342@@Z 0042aa30 f i BWAPI:Error.obj
 0001:00029a30       ?_Max@?$_Tree@V?$_Tmap_traits@V?$basic_string@DU?$char_traits@D@std@@V?$allocator@D@2@@std@@VUnitCommandType@BWAPI@@U?$less@V?$basic_string@DU?$char_traits@D@std@@V?$allocator@D@2@@std@@@2@V?$allocator@U?$pair@$$CBV?$basic_string@DU?$char_traits@D@std@@V?$allocator@D@2@@std@@VUnitCommandType@BWAPI@@@std@@@2@$0A@@std@@@std@@KAPAU_Node@?$_Tree_nod@V?$_Tmap_traits@V?$basic_string@DU?$char_traits@D@std@@V?$allocator@D@2@@std@@VUnitCommandType@BWAPI@@U?$less@V?$basic_string@DU?$char_traits@D@std@@V?$allocator@D@2@@std@@@2@V?$allocator@U?$pair@$$CBV?$basic_string@DU?$char_traits@D@std@@V?$allocator@D@2@@std@@VUnitCommandType@BWAPI@@@std@@@2@$0A@@std@@@2@PAU342@@Z 0042aa30 f i BWAPI:UnitCommandType.obj
 0001:00029a30       ?_Max@?$_Tree@V?$_Tmap_traits@V?$basic_string@DU?$char_traits@D@std@@V?$allocator@D@2@@std@@VRace@BWAPI@@U?$less@V?$basic_string@DU?$char_traits@D@std@@V?$allocator@D@2@@std@@@2@V?$allocator@U?$pair@$$CBV?$basic_string@DU?$char_traits@D@std@@V?$allocator@D@2@@std@@VRace@BWAPI@@@std@@@2@$0A@@std@@@std@@KAPAU_Node@?$_Tree_nod@V?$_Tmap_traits@V?$basic_string@DU?$char_traits@D@std@@V?$allocator@D@2@@std@@VRace@BWAPI@@U?$less@V?$basic_string@DU?$char_traits@D@std@@V?$allocator@D@2@@std@@@2@V?$allocator@U?$pair@$$CBV?$basic_string@DU?$char_traits@D@std@@V?$allocator@D@2@@std@@VRace@BWAPI@@@std@@@2@$0A@@std@@@2@PAU342@@Z 0042aa30 f i BWAPI:Race.obj
 0001:00029a30       ?_Max@?$_Tree@V?$_Tmap_traits@V?$basic_string@DU?$char_traits@D@std@@V?$allocator@D@2@@std@@VGameType@BWAPI@@U?$less@V?$basic_string@DU?$char_traits@D@std@@V?$allocator@D@2@@std@@@2@V?$allocator@U?$pair@$$CBV?$basic_string@DU?$char_traits@D@std@@V?$allocator@D@2@@std@@VGameType@BWAPI@@@std@@@2@$0A@@std@@@std@@KAPAU_Node@?$_Tree_nod@V?$_Tmap_traits@V?$basic_string@DU?$char_traits@D@std@@V?$allocator@D@2@@std@@VGameType@BWAPI@@U?$less@V?$basic_string@DU?$char_traits@D@std@@V?$allocator@D@2@@std@@@2@V?$allocator@U?$pair@$$CBV?$basic_string@DU?$char_traits@D@std@@V?$allocator@D@2@@std@@VGameType@BWAPI@@@std@@@2@$0A@@std@@@2@PAU342@@Z 0042aa30 f i BWAPI:GameType.obj
 0001:00029a30       ?_Max@?$_Tree@V?$_Tmap_traits@V?$basic_string@DU?$char_traits@D@std@@V?$allocator@D@2@@std@@VBulletType@BWAPI@@U?$less@V?$basic_string@DU?$char_traits@D@std@@V?$allocator@D@2@@std@@@2@V?$allocator@U?$pair@$$CBV?$basic_string@DU?$char_traits@D@std@@V?$allocator@D@2@@std@@VBulletType@BWAPI@@@std@@@2@$0A@@std@@@std@@KAPAU_Node@?$_Tree_nod@V?$_Tmap_traits@V?$basic_string@DU?$char_traits@D@std@@V?$allocator@D@2@@std@@VBulletType@BWAPI@@U?$less@V?$basic_string@DU?$char_traits@D@std@@V?$allocator@D@2@@std@@@2@V?$allocator@U?$pair@$$CBV?$basic_string@DU?$char_traits@D@std@@V?$allocator@D@2@@std@@VBulletType@BWAPI@@@std@@@2@$0A@@std@@@2@PAU342@@Z 0042aa30 f i BWAPI:BulletType.obj
 0001:00029a30       ?_Max@?$_Tree@V?$_Tmap_traits@V?$basic_string@DU?$char_traits@D@std@@V?$allocator@D@2@@std@@VPlayerType@BWAPI@@U?$less@V?$basic_string@DU?$char_traits@D@std@@V?$allocator@D@2@@std@@@2@V?$allocator@U?$pair@$$CBV?$basic_string@DU?$char_traits@D@std@@V?$allocator@D@2@@std@@VPlayerType@BWAPI@@@std@@@2@$0A@@std@@@std@@KAPAU_Node@?$_Tree_nod@V?$_Tmap_traits@V?$basic_string@DU?$char_traits@D@std@@V?$allocator@D@2@@std@@VPlayerType@BWAPI@@U?$less@V?$basic_string@DU?$char_traits@D@std@@V?$allocator@D@2@@std@@@2@V?$allocator@U?$pair@$$CBV?$basic_string@DU?$char_traits@D@std@@V?$allocator@D@2@@std@@VPlayerType@BWAPI@@@std@@@2@$0A@@std@@@2@PAU342@@Z 0042aa30 f i BWAPI:PlayerType.obj
 0001:00029a30       ?_Max@?$_Tree@V?$_Tmap_traits@V?$basic_string@DU?$char_traits@D@std@@V?$allocator@D@2@@std@@VDamageType@BWAPI@@U?$less@V?$basic_string@DU?$char_traits@D@std@@V?$allocator@D@2@@std@@@2@V?$allocator@U?$pair@$$CBV?$basic_string@DU?$char_traits@D@std@@V?$allocator@D@2@@std@@VDamageType@BWAPI@@@std@@@2@$0A@@std@@@std@@KAPAU_Node@?$_Tree_nod@V?$_Tmap_traits@V?$basic_string@DU?$char_traits@D@std@@V?$allocator@D@2@@std@@VDamageType@BWAPI@@U?$less@V?$basic_string@DU?$char_traits@D@std@@V?$allocator@D@2@@std@@@2@V?$allocator@U?$pair@$$CBV?$basic_string@DU?$char_traits@D@std@@V?$allocator@D@2@@std@@VDamageType@BWAPI@@@std@@@2@$0A@@std@@@2@PAU342@@Z 0042aa30 f i BWAPI:DamageType.obj
 0001:00029a30       ?_Max@?$_Tree@V?$_Tmap_traits@V?$basic_string@DU?$char_traits@D@std@@V?$allocator@D@2@@std@@VWeaponType@BWAPI@@U?$less@V?$basic_string@DU?$char_traits@D@std@@V?$allocator@D@2@@std@@@2@V?$allocator@U?$pair@$$CBV?$basic_string@DU?$char_traits@D@std@@V?$allocator@D@2@@std@@VWeaponType@BWAPI@@@std@@@2@$0A@@std@@@std@@KAPAU_Node@?$_Tree_nod@V?$_Tmap_traits@V?$basic_string@DU?$char_traits@D@std@@V?$allocator@D@2@@std@@VWeaponType@BWAPI@@U?$less@V?$basic_string@DU?$char_traits@D@std@@V?$allocator@D@2@@std@@@2@V?$allocator@U?$pair@$$CBV?$basic_string@DU?$char_traits@D@std@@V?$allocator@D@2@@std@@VWeaponType@BWAPI@@@std@@@2@$0A@@std@@@2@PAU342@@Z 0042aa30 f i BWAPI:WeaponType.obj
 0001:00029a30       ?_Max@?$_Tree@V?$_Tmap_traits@V?$basic_string@DU?$char_traits@D@std@@V?$allocator@D@2@@std@@VUnitType@BWAPI@@U?$less@V?$basic_string@DU?$char_traits@D@std@@V?$allocator@D@2@@std@@@2@V?$allocator@U?$pair@$$CBV?$basic_string@DU?$char_traits@D@std@@V?$allocator@D@2@@std@@VUnitType@BWAPI@@@std@@@2@$0A@@std@@@std@@KAPAU_Node@?$_Tree_nod@V?$_Tmap_traits@V?$basic_string@DU?$char_traits@D@std@@V?$allocator@D@2@@std@@VUnitType@BWAPI@@U?$less@V?$basic_string@DU?$char_traits@D@std@@V?$allocator@D@2@@std@@@2@V?$allocator@U?$pair@$$CBV?$basic_string@DU?$char_traits@D@std@@V?$allocator@D@2@@std@@VUnitType@BWAPI@@@std@@@2@$0A@@std@@@2@PAU342@@Z 0042aa30 f i BWAPI:UnitType.obj
 0001:00029a30       ?_Max@?$_Tree@V?$_Tmap_traits@V?$basic_string@DU?$char_traits@D@std@@V?$allocator@D@2@@std@@VTechType@BWAPI@@U?$less@V?$basic_string@DU?$char_traits@D@std@@V?$allocator@D@2@@std@@@2@V?$allocator@U?$pair@$$CBV?$basic_string@DU?$char_traits@D@std@@V?$allocator@D@2@@std@@VTechType@BWAPI@@@std@@@2@$0A@@std@@@std@@KAPAU_Node@?$_Tree_nod@V?$_Tmap_traits@V?$basic_string@DU?$char_traits@D@std@@V?$allocator@D@2@@std@@VTechType@BWAPI@@U?$less@V?$basic_string@DU?$char_traits@D@std@@V?$allocator@D@2@@std@@@2@V?$allocator@U?$pair@$$CBV?$basic_string@DU?$char_traits@D@std@@V?$allocator@D@2@@std@@VTechType@BWAPI@@@std@@@2@$0A@@std@@@2@PAU342@@Z 0042aa30 f i BWAPI:TechType.obj
 0001:00029a30       ?_Max@?$_Tree@V?$_Tmap_traits@V?$basic_string@DU?$char_traits@D@std@@V?$allocator@D@2@@std@@VOrder@BWAPI@@U?$less@V?$basic_string@DU?$char_traits@D@std@@V?$allocator@D@2@@std@@@2@V?$allocator@U?$pair@$$CBV?$basic_string@DU?$char_traits@D@std@@V?$allocator@D@2@@std@@VOrder@BWAPI@@@std@@@2@$0A@@std@@@std@@KAPAU_Node@?$_Tree_nod@V?$_Tmap_traits@V?$basic_string@DU?$char_traits@D@std@@V?$allocator@D@2@@std@@VOrder@BWAPI@@U?$less@V?$basic_string@DU?$char_traits@D@std@@V?$allocator@D@2@@std@@@2@V?$allocator@U?$pair@$$CBV?$basic_string@DU?$char_traits@D@std@@V?$allocator@D@2@@std@@VOrder@BWAPI@@@std@@@2@$0A@@std@@@2@PAU342@@Z 0042aa30 f i BWAPI:Order.obj
 0001:00029a30       ?_Max@?$_Tree@V?$_Tmap_traits@V?$basic_string@DU?$char_traits@D@std@@V?$allocator@D@2@@std@@VExplosionType@BWAPI@@U?$less@V?$basic_string@DU?$char_traits@D@std@@V?$allocator@D@2@@std@@@2@V?$allocator@U?$pair@$$CBV?$basic_string@DU?$char_traits@D@std@@V?$allocator@D@2@@std@@VExplosionType@BWAPI@@@std@@@2@$0A@@std@@@std@@KAPAU_Node@?$_Tree_nod@V?$_Tmap_traits@V?$basic_string@DU?$char_traits@D@std@@V?$allocator@D@2@@std@@VExplosionType@BWAPI@@U?$less@V?$basic_string@DU?$char_traits@D@std@@V?$allocator@D@2@@std@@@2@V?$allocator@U?$pair@$$CBV?$basic_string@DU?$char_traits@D@std@@V?$allocator@D@2@@std@@VExplosionType@BWAPI@@@std@@@2@$0A@@std@@@2@PAU342@@Z 0042aa30 f i BWAPI:ExplosionType.obj
 0001:00029a30       ?_Max@?$_Tree@V?$_Tmap_traits@V?$basic_string@DU?$char_traits@D@std@@V?$allocator@D@2@@std@@VUpgradeType@BWAPI@@U?$less@V?$basic_string@DU?$char_traits@D@std@@V?$allocator@D@2@@std@@@2@V?$allocator@U?$pair@$$CBV?$basic_string@DU?$char_traits@D@std@@V?$allocator@D@2@@std@@VUpgradeType@BWAPI@@@std@@@2@$0A@@std@@@std@@KAPAU_Node@?$_Tree_nod@V?$_Tmap_traits@V?$basic_string@DU?$char_traits@D@std@@V?$allocator@D@2@@std@@VUpgradeType@BWAPI@@U?$less@V?$basic_string@DU?$char_traits@D@std@@V?$allocator@D@2@@std@@@2@V?$allocator@U?$pair@$$CBV?$basic_string@DU?$char_traits@D@std@@V?$allocator@D@2@@std@@VUpgradeType@BWAPI@@@std@@@2@$0A@@std@@@2@PAU342@@Z 0042aa30 f i BWAPI:UpgradeType.obj
 0001:00029a50       ?_Rrotate@?$_Tree@V?$_Tset_traits@VOrder@BWAPI@@U?$less@VOrder@BWAPI@@@std@@V?$allocator@VOrder@BWAPI@@@4@$0A@@std@@@std@@IAEXPAU_Node@?$_Tree_nod@V?$_Tset_traits@VOrder@BWAPI@@U?$less@VOrder@BWAPI@@@std@@V?$allocator@VOrder@BWAPI@@@4@$0A@@std@@@2@@Z 0042aa50 f i BWAPI:Order.obj
 0001:00029a50       ?_Rrotate@?$_Tree@V?$_Tset_traits@VWeaponType@BWAPI@@U?$less@VWeaponType@BWAPI@@@std@@V?$allocator@VWeaponType@BWAPI@@@4@$0A@@std@@@std@@IAEXPAU_Node@?$_Tree_nod@V?$_Tset_traits@VWeaponType@BWAPI@@U?$less@VWeaponType@BWAPI@@@std@@V?$allocator@VWeaponType@BWAPI@@@4@$0A@@std@@@2@@Z 0042aa50 f i BWAPI:WeaponType.obj
 0001:00029a50       ?_Rrotate@?$_Tree@V?$_Tset_traits@VDamageType@BWAPI@@U?$less@VDamageType@BWAPI@@@std@@V?$allocator@VDamageType@BWAPI@@@4@$0A@@std@@@std@@IAEXPAU_Node@?$_Tree_nod@V?$_Tset_traits@VDamageType@BWAPI@@U?$less@VDamageType@BWAPI@@@std@@V?$allocator@VDamageType@BWAPI@@@4@$0A@@std@@@2@@Z 0042aa50 f i BWAPI:DamageType.obj
 0001:00029a50       ?_Rrotate@?$_Tree@V?$_Tset_traits@VPlayerType@BWAPI@@U?$less@VPlayerType@BWAPI@@@std@@V?$allocator@VPlayerType@BWAPI@@@4@$0A@@std@@@std@@IAEXPAU_Node@?$_Tree_nod@V?$_Tset_traits@VPlayerType@BWAPI@@U?$less@VPlayerType@BWAPI@@@std@@V?$allocator@VPlayerType@BWAPI@@@4@$0A@@std@@@2@@Z 0042aa50 f i BWAPI:PlayerType.obj
 0001:00029a50       ?_Rrotate@?$_Tree@V?$_Tset_traits@VUnitSizeType@BWAPI@@U?$less@VUnitSizeType@BWAPI@@@std@@V?$allocator@VUnitSizeType@BWAPI@@@4@$0A@@std@@@std@@IAEXPAU_Node@?$_Tree_nod@V?$_Tset_traits@VUnitSizeType@BWAPI@@U?$less@VUnitSizeType@BWAPI@@@std@@V?$allocator@VUnitSizeType@BWAPI@@@4@$0A@@std@@@2@@Z 0042aa50 f i BWAPI:UnitSizeType.obj
 0001:00029a50       ?_Rrotate@?$_Tree@V?$_Tset_traits@VRace@BWAPI@@U?$less@VRace@BWAPI@@@std@@V?$allocator@VRace@BWAPI@@@4@$0A@@std@@@std@@IAEXPAU_Node@?$_Tree_nod@V?$_Tset_traits@VRace@BWAPI@@U?$less@VRace@BWAPI@@@std@@V?$allocator@VRace@BWAPI@@@4@$0A@@std@@@2@@Z 0042aa50 f i BWAPI:Race.obj
 0001:00029a50       ?_Rrotate@?$_Tree@V?$_Tset_traits@VError@BWAPI@@U?$less@VError@BWAPI@@@std@@V?$allocator@VError@BWAPI@@@4@$0A@@std@@@std@@IAEXPAU_Node@?$_Tree_nod@V?$_Tset_traits@VError@BWAPI@@U?$less@VError@BWAPI@@@std@@V?$allocator@VError@BWAPI@@@4@$0A@@std@@@2@@Z 0042aa50 f i BWAPI:Error.obj
 0001:00029a50       ?_Rrotate@?$_Tree@V?$_Tset_traits@VGameType@BWAPI@@U?$less@VGameType@BWAPI@@@std@@V?$allocator@VGameType@BWAPI@@@4@$0A@@std@@@std@@IAEXPAU_Node@?$_Tree_nod@V?$_Tset_traits@VGameType@BWAPI@@U?$less@VGameType@BWAPI@@@std@@V?$allocator@VGameType@BWAPI@@@4@$0A@@std@@@2@@Z 0042aa50 f i BWAPI:GameType.obj
 0001:00029a50       ?_Rrotate@?$_Tree@V?$_Tset_traits@VUpgradeType@BWAPI@@U?$less@VUpgradeType@BWAPI@@@std@@V?$allocator@VUpgradeType@BWAPI@@@4@$0A@@std@@@std@@IAEXPAU_Node@?$_Tree_nod@V?$_Tset_traits@VUpgradeType@BWAPI@@U?$less@VUpgradeType@BWAPI@@@std@@V?$allocator@VUpgradeType@BWAPI@@@4@$0A@@std@@@2@@Z 0042aa50 f i BWAPI:UnitType.obj
 0001:00029a50       ?_Rrotate@?$_Tree@V?$_Tset_traits@VUnitType@BWAPI@@U?$less@VUnitType@BWAPI@@@std@@V?$allocator@VUnitType@BWAPI@@@4@$0A@@std@@@std@@IAEXPAU_Node@?$_Tree_nod@V?$_Tset_traits@VUnitType@BWAPI@@U?$less@VUnitType@BWAPI@@@std@@V?$allocator@VUnitType@BWAPI@@@4@$0A@@std@@@2@@Z 0042aa50 f i BWAPI:UnitType.obj
 0001:00029a50       ?_Rrotate@?$_Tree@V?$_Tset_traits@VExplosionType@BWAPI@@U?$less@VExplosionType@BWAPI@@@std@@V?$allocator@VExplosionType@BWAPI@@@4@$0A@@std@@@std@@IAEXPAU_Node@?$_Tree_nod@V?$_Tset_traits@VExplosionType@BWAPI@@U?$less@VExplosionType@BWAPI@@@std@@V?$allocator@VExplosionType@BWAPI@@@4@$0A@@std@@@2@@Z 0042aa50 f i BWAPI:ExplosionType.obj
 0001:00029a50       ?_Rrotate@?$_Tree@V?$_Tset_traits@VTechType@BWAPI@@U?$less@VTechType@BWAPI@@@std@@V?$allocator@VTechType@BWAPI@@@4@$0A@@std@@@std@@IAEXPAU_Node@?$_Tree_nod@V?$_Tset_traits@VTechType@BWAPI@@U?$less@VTechType@BWAPI@@@std@@V?$allocator@VTechType@BWAPI@@@4@$0A@@std@@@2@@Z 0042aa50 f i BWAPI:UnitType.obj
 0001:00029a50       ?_Rrotate@?$_Tree@V?$_Tset_traits@VUnitCommandType@BWAPI@@U?$less@VUnitCommandType@BWAPI@@@std@@V?$allocator@VUnitCommandType@BWAPI@@@4@$0A@@std@@@std@@IAEXPAU_Node@?$_Tree_nod@V?$_Tset_traits@VUnitCommandType@BWAPI@@U?$less@VUnitCommandType@BWAPI@@@std@@V?$allocator@VUnitCommandType@BWAPI@@@4@$0A@@std@@@2@@Z 0042aa50 f i BWAPI:UnitCommandType.obj
 0001:00029a50       ?_Rrotate@?$_Tree@V?$_Tset_traits@VBulletType@BWAPI@@U?$less@VBulletType@BWAPI@@@std@@V?$allocator@VBulletType@BWAPI@@@4@$0A@@std@@@std@@IAEXPAU_Node@?$_Tree_nod@V?$_Tset_traits@VBulletType@BWAPI@@U?$less@VBulletType@BWAPI@@@std@@V?$allocator@VBulletType@BWAPI@@@4@$0A@@std@@@2@@Z 0042aa50 f i BWAPI:BulletType.obj
 0001:00029ab0       ??1?$_Tree_val@V?$_Tset_traits@VUnitSizeType@BWAPI@@U?$less@VUnitSizeType@BWAPI@@@std@@V?$allocator@VUnitSizeType@BWAPI@@@4@$0A@@std@@@std@@QAE@XZ 0042aab0 f i BWAPI:UnitSizeType.obj
 0001:00029ab0       ??1?$_Tree_val@V?$_Tset_traits@VError@BWAPI@@U?$less@VError@BWAPI@@@std@@V?$allocator@VError@BWAPI@@@4@$0A@@std@@@std@@QAE@XZ 0042aab0 f i BWAPI:Error.obj
 0001:00029ab0       ??1?$_Tree_val@V?$_Tset_traits@VRace@BWAPI@@U?$less@VRace@BWAPI@@@std@@V?$allocator@VRace@BWAPI@@@4@$0A@@std@@@std@@QAE@XZ 0042aab0 f i BWAPI:Race.obj
 0001:00029ab0       ??1?$_Tree_val@V?$_Tset_traits@VExplosionType@BWAPI@@U?$less@VExplosionType@BWAPI@@@std@@V?$allocator@VExplosionType@BWAPI@@@4@$0A@@std@@@std@@QAE@XZ 0042aab0 f i BWAPI:ExplosionType.obj
 0001:00029ab0       ??1?$_Tree_val@V?$_Tset_traits@VUnitCommandType@BWAPI@@U?$less@VUnitCommandType@BWAPI@@@std@@V?$allocator@VUnitCommandType@BWAPI@@@4@$0A@@std@@@std@@QAE@XZ 0042aab0 f i BWAPI:UnitCommandType.obj
 0001:00029ab0       ??1?$_Tree_val@V?$_Tmap_traits@V?$basic_string@DU?$char_traits@D@std@@V?$allocator@D@2@@std@@VUpgradeType@BWAPI@@U?$less@V?$basic_string@DU?$char_traits@D@std@@V?$allocator@D@2@@std@@@2@V?$allocator@U?$pair@$$CBV?$basic_string@DU?$char_traits@D@std@@V?$allocator@D@2@@std@@VUpgradeType@BWAPI@@@std@@@2@$0A@@std@@@std@@QAE@XZ 0042aab0 f i BWAPI:UpgradeType.obj
 0001:00029ab0       ??1?$_Tree_val@V?$_Tset_traits@VDamageType@BWAPI@@U?$less@VDamageType@BWAPI@@@std@@V?$allocator@VDamageType@BWAPI@@@4@$0A@@std@@@std@@QAE@XZ 0042aab0 f i BWAPI:DamageType.obj
 0001:00029ab0       ??1?$_Tree_val@V?$_Tmap_traits@V?$basic_string@DU?$char_traits@D@std@@V?$allocator@D@2@@std@@VGameType@BWAPI@@U?$less@V?$basic_string@DU?$char_traits@D@std@@V?$allocator@D@2@@std@@@2@V?$allocator@U?$pair@$$CBV?$basic_string@DU?$char_traits@D@std@@V?$allocator@D@2@@std@@VGameType@BWAPI@@@std@@@2@$0A@@std@@@std@@QAE@XZ 0042aab0 f i BWAPI:GameType.obj
 0001:00029ab0       ??1?$_Tree_val@V?$_Tmap_traits@V?$basic_string@DU?$char_traits@D@std@@V?$allocator@D@2@@std@@VBulletType@BWAPI@@U?$less@V?$basic_string@DU?$char_traits@D@std@@V?$allocator@D@2@@std@@@2@V?$allocator@U?$pair@$$CBV?$basic_string@DU?$char_traits@D@std@@V?$allocator@D@2@@std@@VBulletType@BWAPI@@@std@@@2@$0A@@std@@@std@@QAE@XZ 0042aab0 f i BWAPI:BulletType.obj
 0001:00029ab0       ??1?$_Tree_val@V?$_Tmap_traits@V?$basic_string@DU?$char_traits@D@std@@V?$allocator@D@2@@std@@VOrder@BWAPI@@U?$less@V?$basic_string@DU?$char_traits@D@std@@V?$allocator@D@2@@std@@@2@V?$allocator@U?$pair@$$CBV?$basic_string@DU?$char_traits@D@std@@V?$allocator@D@2@@std@@VOrder@BWAPI@@@std@@@2@$0A@@std@@@std@@QAE@XZ 0042aab0 f i BWAPI:Order.obj
 0001:00029ab0       ??1?$_Tree_val@V?$_Tset_traits@VGameType@BWAPI@@U?$less@VGameType@BWAPI@@@std@@V?$allocator@VGameType@BWAPI@@@4@$0A@@std@@@std@@QAE@XZ 0042aab0 f i BWAPI:GameType.obj
 0001:00029ab0       ??1?$_Tree_val@V?$_Tmap_traits@V?$basic_string@DU?$char_traits@D@std@@V?$allocator@D@2@@std@@VDamageType@BWAPI@@U?$less@V?$basic_string@DU?$char_traits@D@std@@V?$allocator@D@2@@std@@@2@V?$allocator@U?$pair@$$CBV?$basic_string@DU?$char_traits@D@std@@V?$allocator@D@2@@std@@VDamageType@BWAPI@@@std@@@2@$0A@@std@@@std@@QAE@XZ 0042aab0 f i BWAPI:DamageType.obj
 0001:00029ab0       ??1?$_Tree_val@V?$_Tmap_traits@V?$basic_string@DU?$char_traits@D@std@@V?$allocator@D@2@@std@@VWeaponType@BWAPI@@U?$less@V?$basic_string@DU?$char_traits@D@std@@V?$allocator@D@2@@std@@@2@V?$allocator@U?$pair@$$CBV?$basic_string@DU?$char_traits@D@std@@V?$allocator@D@2@@std@@VWeaponType@BWAPI@@@std@@@2@$0A@@std@@@std@@QAE@XZ 0042aab0 f i BWAPI:WeaponType.obj
 0001:00029ab0       ??1?$_Tree_val@V?$_Tset_traits@VUpgradeType@BWAPI@@U?$less@VUpgradeType@BWAPI@@@std@@V?$allocator@VUpgradeType@BWAPI@@@4@$0A@@std@@@std@@QAE@XZ 0042aab0 f i BWAPI:UnitType.obj
 0001:00029ab0       ??1?$_Tree_val@V?$_Tmap_traits@V?$basic_string@DU?$char_traits@D@std@@V?$allocator@D@2@@std@@VRace@BWAPI@@U?$less@V?$basic_string@DU?$char_traits@D@std@@V?$allocator@D@2@@std@@@2@V?$allocator@U?$pair@$$CBV?$basic_string@DU?$char_traits@D@std@@V?$allocator@D@2@@std@@VRace@BWAPI@@@std@@@2@$0A@@std@@@std@@QAE@XZ 0042aab0 f i BWAPI:Race.obj
 0001:00029ab0       ??1?$_Tree_val@V?$_Tmap_traits@V?$basic_string@DU?$char_traits@D@std@@V?$allocator@D@2@@std@@VUnitType@BWAPI@@U?$less@V?$basic_string@DU?$char_traits@D@std@@V?$allocator@D@2@@std@@@2@V?$allocator@U?$pair@$$CBV?$basic_string@DU?$char_traits@D@std@@V?$allocator@D@2@@std@@VUnitType@BWAPI@@@std@@@2@$0A@@std@@@std@@QAE@XZ 0042aab0 f i BWAPI:UnitType.obj
 0001:00029ab0       ??1?$_Tree_val@V?$_Tset_traits@VUnitType@BWAPI@@U?$less@VUnitType@BWAPI@@@std@@V?$allocator@VUnitType@BWAPI@@@4@$0A@@std@@@std@@QAE@XZ 0042aab0 f i BWAPI:UnitType.obj
 0001:00029ab0       ??1?$_Tree_val@V?$_Tmap_traits@V?$basic_string@DU?$char_traits@D@std@@V?$allocator@D@2@@std@@VExplosionType@BWAPI@@U?$less@V?$basic_string@DU?$char_traits@D@std@@V?$allocator@D@2@@std@@@2@V?$allocator@U?$pair@$$CBV?$basic_string@DU?$char_traits@D@std@@V?$allocator@D@2@@std@@VExplosionType@BWAPI@@@std@@@2@$0A@@std@@@std@@QAE@XZ 0042aab0 f i BWAPI:ExplosionType.obj
 0001:00029ab0       ??1?$_Tree_val@V?$_Tmap_traits@V?$basic_string@DU?$char_traits@D@std@@V?$allocator@D@2@@std@@VPlayerType@BWAPI@@U?$less@V?$basic_string@DU?$char_traits@D@std@@V?$allocator@D@2@@std@@@2@V?$allocator@U?$pair@$$CBV?$basic_string@DU?$char_traits@D@std@@V?$allocator@D@2@@std@@VPlayerType@BWAPI@@@std@@@2@$0A@@std@@@std@@QAE@XZ 0042aab0 f i BWAPI:PlayerType.obj
 0001:00029ab0       ??1?$_Tree_val@V?$_Tmap_traits@V?$basic_string@DU?$char_traits@D@std@@V?$allocator@D@2@@std@@VUnitSizeType@BWAPI@@U?$less@V?$basic_string@DU?$char_traits@D@std@@V?$allocator@D@2@@std@@@2@V?$allocator@U?$pair@$$CBV?$basic_string@DU?$char_traits@D@std@@V?$allocator@D@2@@std@@VUnitSizeType@BWAPI@@@std@@@2@$0A@@std@@@std@@QAE@XZ 0042aab0 f i BWAPI:UnitSizeType.obj
 0001:00029ab0       ??1?$_Tree_val@V?$_Tmap_traits@V?$basic_string@DU?$char_traits@D@std@@V?$allocator@D@2@@std@@VTechType@BWAPI@@U?$less@V?$basic_string@DU?$char_traits@D@std@@V?$allocator@D@2@@std@@@2@V?$allocator@U?$pair@$$CBV?$basic_string@DU?$char_traits@D@std@@V?$allocator@D@2@@std@@VTechType@BWAPI@@@std@@@2@$0A@@std@@@std@@QAE@XZ 0042aab0 f i BWAPI:TechType.obj
 0001:00029ab0       ??1?$_Tree_val@V?$_Tset_traits@VBulletType@BWAPI@@U?$less@VBulletType@BWAPI@@@std@@V?$allocator@VBulletType@BWAPI@@@4@$0A@@std@@@std@@QAE@XZ 0042aab0 f i BWAPI:BulletType.obj
 0001:00029ab0       ??1?$_Tree_val@V?$_Tset_traits@VPlayerType@BWAPI@@U?$less@VPlayerType@BWAPI@@@std@@V?$allocator@VPlayerType@BWAPI@@@4@$0A@@std@@@std@@QAE@XZ 0042aab0 f i BWAPI:PlayerType.obj
 0001:00029ab0       ??1?$_Tree_val@V?$_Tmap_traits@V?$basic_string@DU?$char_traits@D@std@@V?$allocator@D@2@@std@@VUnitCommandType@BWAPI@@U?$less@V?$basic_string@DU?$char_traits@D@std@@V?$allocator@D@2@@std@@@2@V?$allocator@U?$pair@$$CBV?$basic_string@DU?$char_traits@D@std@@V?$allocator@D@2@@std@@VUnitCommandType@BWAPI@@@std@@@2@$0A@@std@@@std@@QAE@XZ 0042aab0 f i BWAPI:UnitCommandType.obj
 0001:00029ab0       ??1?$_Tree_val@V?$_Tset_traits@VOrder@BWAPI@@U?$less@VOrder@BWAPI@@@std@@V?$allocator@VOrder@BWAPI@@@4@$0A@@std@@@std@@QAE@XZ 0042aab0 f i BWAPI:Order.obj
 0001:00029ab0       ??1?$_Tree_val@V?$_Tset_traits@VTechType@BWAPI@@U?$less@VTechType@BWAPI@@@std@@V?$allocator@VTechType@BWAPI@@@4@$0A@@std@@@std@@QAE@XZ 0042aab0 f i BWAPI:UnitType.obj
 0001:00029ab0       ??1?$_Tree_val@V?$_Tmap_traits@V?$basic_string@DU?$char_traits@D@std@@V?$allocator@D@2@@std@@VError@BWAPI@@U?$less@V?$basic_string@DU?$char_traits@D@std@@V?$allocator@D@2@@std@@@2@V?$allocator@U?$pair@$$CBV?$basic_string@DU?$char_traits@D@std@@V?$allocator@D@2@@std@@VError@BWAPI@@@std@@@2@$0A@@std@@@std@@QAE@XZ 0042aab0 f i BWAPI:Error.obj
 0001:00029ab0       ??1?$_Tree_val@V?$_Tset_traits@VWeaponType@BWAPI@@U?$less@VWeaponType@BWAPI@@@std@@V?$allocator@VWeaponType@BWAPI@@@4@$0A@@std@@@std@@QAE@XZ 0042aab0 f i BWAPI:WeaponType.obj
 0001:00029ac0       ?init@Errors@BWAPI@@YAXXZ  0042aac0 f   BWAPI:Error.obj
 0001:0002a270       ?_Insert@?$_Tree@V?$_Tset_traits@VRace@BWAPI@@U?$less@VRace@BWAPI@@@std@@V?$allocator@VRace@BWAPI@@@4@$0A@@std@@@std@@IAE?AViterator@12@_NPAU_Node@?$_Tree_nod@V?$_Tset_traits@VRace@BWAPI@@U?$less@VRace@BWAPI@@@std@@V?$allocator@VRace@BWAPI@@@4@$0A@@std@@@2@ABVRace@BWAPI@@@Z 0042b270 f i BWAPI:Race.obj
 0001:0002a270       ?_Insert@?$_Tree@V?$_Tset_traits@VPlayerType@BWAPI@@U?$less@VPlayerType@BWAPI@@@std@@V?$allocator@VPlayerType@BWAPI@@@4@$0A@@std@@@std@@IAE?AViterator@12@_NPAU_Node@?$_Tree_nod@V?$_Tset_traits@VPlayerType@BWAPI@@U?$less@VPlayerType@BWAPI@@@std@@V?$allocator@VPlayerType@BWAPI@@@4@$0A@@std@@@2@ABVPlayerType@BWAPI@@@Z 0042b270 f i BWAPI:PlayerType.obj
 0001:0002a270       ?_Insert@?$_Tree@V?$_Tset_traits@VBulletType@BWAPI@@U?$less@VBulletType@BWAPI@@@std@@V?$allocator@VBulletType@BWAPI@@@4@$0A@@std@@@std@@IAE?AViterator@12@_NPAU_Node@?$_Tree_nod@V?$_Tset_traits@VBulletType@BWAPI@@U?$less@VBulletType@BWAPI@@@std@@V?$allocator@VBulletType@BWAPI@@@4@$0A@@std@@@2@ABVBulletType@BWAPI@@@Z 0042b270 f i BWAPI:BulletType.obj
 0001:0002a270       ?_Insert@?$_Tree@V?$_Tset_traits@VUnitType@BWAPI@@U?$less@VUnitType@BWAPI@@@std@@V?$allocator@VUnitType@BWAPI@@@4@$0A@@std@@@std@@IAE?AViterator@12@_NPAU_Node@?$_Tree_nod@V?$_Tset_traits@VUnitType@BWAPI@@U?$less@VUnitType@BWAPI@@@std@@V?$allocator@VUnitType@BWAPI@@@4@$0A@@std@@@2@ABVUnitType@BWAPI@@@Z 0042b270 f i BWAPI:UnitType.obj
 0001:0002a270       ?_Insert@?$_Tree@V?$_Tset_traits@VExplosionType@BWAPI@@U?$less@VExplosionType@BWAPI@@@std@@V?$allocator@VExplosionType@BWAPI@@@4@$0A@@std@@@std@@IAE?AViterator@12@_NPAU_Node@?$_Tree_nod@V?$_Tset_traits@VExplosionType@BWAPI@@U?$less@VExplosionType@BWAPI@@@std@@V?$allocator@VExplosionType@BWAPI@@@4@$0A@@std@@@2@ABVExplosionType@BWAPI@@@Z 0042b270 f i BWAPI:ExplosionType.obj
 0001:0002a270       ?_Insert@?$_Tree@V?$_Tset_traits@VDamageType@BWAPI@@U?$less@VDamageType@BWAPI@@@std@@V?$allocator@VDamageType@BWAPI@@@4@$0A@@std@@@std@@IAE?AViterator@12@_NPAU_Node@?$_Tree_nod@V?$_Tset_traits@VDamageType@BWAPI@@U?$less@VDamageType@BWAPI@@@std@@V?$allocator@VDamageType@BWAPI@@@4@$0A@@std@@@2@ABVDamageType@BWAPI@@@Z 0042b270 f i BWAPI:DamageType.obj
 0001:0002a270       ?_Insert@?$_Tree@V?$_Tset_traits@VError@BWAPI@@U?$less@VError@BWAPI@@@std@@V?$allocator@VError@BWAPI@@@4@$0A@@std@@@std@@IAE?AViterator@12@_NPAU_Node@?$_Tree_nod@V?$_Tset_traits@VError@BWAPI@@U?$less@VError@BWAPI@@@std@@V?$allocator@VError@BWAPI@@@4@$0A@@std@@@2@ABVError@BWAPI@@@Z 0042b270 f i BWAPI:Error.obj
 0001:0002a270       ?_Insert@?$_Tree@V?$_Tset_traits@VUpgradeType@BWAPI@@U?$less@VUpgradeType@BWAPI@@@std@@V?$allocator@VUpgradeType@BWAPI@@@4@$0A@@std@@@std@@IAE?AViterator@12@_NPAU_Node@?$_Tree_nod@V?$_Tset_traits@VUpgradeType@BWAPI@@U?$less@VUpgradeType@BWAPI@@@std@@V?$allocator@VUpgradeType@BWAPI@@@4@$0A@@std@@@2@ABVUpgradeType@BWAPI@@@Z 0042b270 f i BWAPI:UnitType.obj
 0001:0002a270       ?_Insert@?$_Tree@V?$_Tset_traits@VUnitCommandType@BWAPI@@U?$less@VUnitCommandType@BWAPI@@@std@@V?$allocator@VUnitCommandType@BWAPI@@@4@$0A@@std@@@std@@IAE?AViterator@12@_NPAU_Node@?$_Tree_nod@V?$_Tset_traits@VUnitCommandType@BWAPI@@U?$less@VUnitCommandType@BWAPI@@@std@@V?$allocator@VUnitCommandType@BWAPI@@@4@$0A@@std@@@2@ABVUnitCommandType@BWAPI@@@Z 0042b270 f i BWAPI:UnitCommandType.obj
 0001:0002a270       ?_Insert@?$_Tree@V?$_Tset_traits@VTechType@BWAPI@@U?$less@VTechType@BWAPI@@@std@@V?$allocator@VTechType@BWAPI@@@4@$0A@@std@@@std@@IAE?AViterator@12@_NPAU_Node@?$_Tree_nod@V?$_Tset_traits@VTechType@BWAPI@@U?$less@VTechType@BWAPI@@@std@@V?$allocator@VTechType@BWAPI@@@4@$0A@@std@@@2@ABVTechType@BWAPI@@@Z 0042b270 f i BWAPI:UnitType.obj
 0001:0002a270       ?_Insert@?$_Tree@V?$_Tset_traits@VUnitSizeType@BWAPI@@U?$less@VUnitSizeType@BWAPI@@@std@@V?$allocator@VUnitSizeType@BWAPI@@@4@$0A@@std@@@std@@IAE?AViterator@12@_NPAU_Node@?$_Tree_nod@V?$_Tset_traits@VUnitSizeType@BWAPI@@U?$less@VUnitSizeType@BWAPI@@@std@@V?$allocator@VUnitSizeType@BWAPI@@@4@$0A@@std@@@2@ABVUnitSizeType@BWAPI@@@Z 0042b270 f i BWAPI:UnitSizeType.obj
 0001:0002a270       ?_Insert@?$_Tree@V?$_Tset_traits@VGameType@BWAPI@@U?$less@VGameType@BWAPI@@@std@@V?$allocator@VGameType@BWAPI@@@4@$0A@@std@@@std@@IAE?AViterator@12@_NPAU_Node@?$_Tree_nod@V?$_Tset_traits@VGameType@BWAPI@@U?$less@VGameType@BWAPI@@@std@@V?$allocator@VGameType@BWAPI@@@4@$0A@@std@@@2@ABVGameType@BWAPI@@@Z 0042b270 f i BWAPI:GameType.obj
 0001:0002a270       ?_Insert@?$_Tree@V?$_Tset_traits@VWeaponType@BWAPI@@U?$less@VWeaponType@BWAPI@@@std@@V?$allocator@VWeaponType@BWAPI@@@4@$0A@@std@@@std@@IAE?AViterator@12@_NPAU_Node@?$_Tree_nod@V?$_Tset_traits@VWeaponType@BWAPI@@U?$less@VWeaponType@BWAPI@@@std@@V?$allocator@VWeaponType@BWAPI@@@4@$0A@@std@@@2@ABVWeaponType@BWAPI@@@Z 0042b270 f i BWAPI:WeaponType.obj
 0001:0002a270       ?_Insert@?$_Tree@V?$_Tset_traits@VOrder@BWAPI@@U?$less@VOrder@BWAPI@@@std@@V?$allocator@VOrder@BWAPI@@@4@$0A@@std@@@std@@IAE?AViterator@12@_NPAU_Node@?$_Tree_nod@V?$_Tset_traits@VOrder@BWAPI@@U?$less@VOrder@BWAPI@@@std@@V?$allocator@VOrder@BWAPI@@@4@$0A@@std@@@2@ABVOrder@BWAPI@@@Z 0042b270 f i BWAPI:Order.obj
 0001:0002a470       ?_Erase@?$_Tree@V?$_Tmap_traits@V?$basic_string@DU?$char_traits@D@std@@V?$allocator@D@2@@std@@VBulletType@BWAPI@@U?$less@V?$basic_string@DU?$char_traits@D@std@@V?$allocator@D@2@@std@@@2@V?$allocator@U?$pair@$$CBV?$basic_string@DU?$char_traits@D@std@@V?$allocator@D@2@@std@@VBulletType@BWAPI@@@std@@@2@$0A@@std@@@std@@IAEXPAU_Node@?$_Tree_nod@V?$_Tmap_traits@V?$basic_string@DU?$char_traits@D@std@@V?$allocator@D@2@@std@@VBulletType@BWAPI@@U?$less@V?$basic_string@DU?$char_traits@D@std@@V?$allocator@D@2@@std@@@2@V?$allocator@U?$pair@$$CBV?$basic_string@DU?$char_traits@D@std@@V?$allocator@D@2@@std@@VBulletType@BWAPI@@@std@@@2@$0A@@std@@@2@@Z 0042b470 f i BWAPI:BulletType.obj
 0001:0002a470       ?_Erase@?$_Tree@V?$_Tmap_traits@V?$basic_string@DU?$char_traits@D@std@@V?$allocator@D@2@@std@@VGameType@BWAPI@@U?$less@V?$basic_string@DU?$char_traits@D@std@@V?$allocator@D@2@@std@@@2@V?$allocator@U?$pair@$$CBV?$basic_string@DU?$char_traits@D@std@@V?$allocator@D@2@@std@@VGameType@BWAPI@@@std@@@2@$0A@@std@@@std@@IAEXPAU_Node@?$_Tree_nod@V?$_Tmap_traits@V?$basic_string@DU?$char_traits@D@std@@V?$allocator@D@2@@std@@VGameType@BWAPI@@U?$less@V?$basic_string@DU?$char_traits@D@std@@V?$allocator@D@2@@std@@@2@V?$allocator@U?$pair@$$CBV?$basic_string@DU?$char_traits@D@std@@V?$allocator@D@2@@std@@VGameType@BWAPI@@@std@@@2@$0A@@std@@@2@@Z 0042b470 f i BWAPI:GameType.obj
 0001:0002a470       ?_Erase@?$_Tree@V?$_Tmap_traits@V?$basic_string@DU?$char_traits@D@std@@V?$allocator@D@2@@std@@VUpgradeType@BWAPI@@U?$less@V?$basic_string@DU?$char_traits@D@std@@V?$allocator@D@2@@std@@@2@V?$allocator@U?$pair@$$CBV?$basic_string@DU?$char_traits@D@std@@V?$allocator@D@2@@std@@VUpgradeType@BWAPI@@@std@@@2@$0A@@std@@@std@@IAEXPAU_Node@?$_Tree_nod@V?$_Tmap_traits@V?$basic_string@DU?$char_traits@D@std@@V?$allocator@D@2@@std@@VUpgradeType@BWAPI@@U?$less@V?$basic_string@DU?$char_traits@D@std@@V?$allocator@D@2@@std@@@2@V?$allocator@U?$pair@$$CBV?$basic_string@DU?$char_traits@D@std@@V?$allocator@D@2@@std@@VUpgradeType@BWAPI@@@std@@@2@$0A@@std@@@2@@Z 0042b470 f i BWAPI:UpgradeType.obj
 0001:0002a470       ?_Erase@?$_Tree@V?$_Tmap_traits@V?$basic_string@DU?$char_traits@D@std@@V?$allocator@D@2@@std@@VExplosionType@BWAPI@@U?$less@V?$basic_string@DU?$char_traits@D@std@@V?$allocator@D@2@@std@@@2@V?$allocator@U?$pair@$$CBV?$basic_string@DU?$char_traits@D@std@@V?$allocator@D@2@@std@@VExplosionType@BWAPI@@@std@@@2@$0A@@std@@@std@@IAEXPAU_Node@?$_Tree_nod@V?$_Tmap_traits@V?$basic_string@DU?$char_traits@D@std@@V?$allocator@D@2@@std@@VExplosionType@BWAPI@@U?$less@V?$basic_string@DU?$char_traits@D@std@@V?$allocator@D@2@@std@@@2@V?$allocator@U?$pair@$$CBV?$basic_string@DU?$char_traits@D@std@@V?$allocator@D@2@@std@@VExplosionType@BWAPI@@@std@@@2@$0A@@std@@@2@@Z 0042b470 f i BWAPI:ExplosionType.obj
 0001:0002a470       ?_Erase@?$_Tree@V?$_Tmap_traits@V?$basic_string@DU?$char_traits@D@std@@V?$allocator@D@2@@std@@VError@BWAPI@@U?$less@V?$basic_string@DU?$char_traits@D@std@@V?$allocator@D@2@@std@@@2@V?$allocator@U?$pair@$$CBV?$basic_string@DU?$char_traits@D@std@@V?$allocator@D@2@@std@@VError@BWAPI@@@std@@@2@$0A@@std@@@std@@IAEXPAU_Node@?$_Tree_nod@V?$_Tmap_traits@V?$basic_string@DU?$char_traits@D@std@@V?$allocator@D@2@@std@@VError@BWAPI@@U?$less@V?$basic_string@DU?$char_traits@D@std@@V?$allocator@D@2@@std@@@2@V?$allocator@U?$pair@$$CBV?$basic_string@DU?$char_traits@D@std@@V?$allocator@D@2@@std@@VError@BWAPI@@@std@@@2@$0A@@std@@@2@@Z 0042b470 f i BWAPI:Error.obj
 0001:0002a470       ?_Erase@?$_Tree@V?$_Tmap_traits@V?$basic_string@DU?$char_traits@D@std@@V?$allocator@D@2@@std@@VTechType@BWAPI@@U?$less@V?$basic_string@DU?$char_traits@D@std@@V?$allocator@D@2@@std@@@2@V?$allocator@U?$pair@$$CBV?$basic_string@DU?$char_traits@D@std@@V?$allocator@D@2@@std@@VTechType@BWAPI@@@std@@@2@$0A@@std@@@std@@IAEXPAU_Node@?$_Tree_nod@V?$_Tmap_traits@V?$basic_string@DU?$char_traits@D@std@@V?$allocator@D@2@@std@@VTechType@BWAPI@@U?$less@V?$basic_string@DU?$char_traits@D@std@@V?$allocator@D@2@@std@@@2@V?$allocator@U?$pair@$$CBV?$basic_string@DU?$char_traits@D@std@@V?$allocator@D@2@@std@@VTechType@BWAPI@@@std@@@2@$0A@@std@@@2@@Z 0042b470 f i BWAPI:TechType.obj
 0001:0002a470       ?_Erase@?$_Tree@V?$_Tmap_traits@V?$basic_string@DU?$char_traits@D@std@@V?$allocator@D@2@@std@@VUnitType@BWAPI@@U?$less@V?$basic_string@DU?$char_traits@D@std@@V?$allocator@D@2@@std@@@2@V?$allocator@U?$pair@$$CBV?$basic_string@DU?$char_traits@D@std@@V?$allocator@D@2@@std@@VUnitType@BWAPI@@@std@@@2@$0A@@std@@@std@@IAEXPAU_Node@?$_Tree_nod@V?$_Tmap_traits@V?$basic_string@DU?$char_traits@D@std@@V?$allocator@D@2@@std@@VUnitType@BWAPI@@U?$less@V?$basic_string@DU?$char_traits@D@std@@V?$allocator@D@2@@std@@@2@V?$allocator@U?$pair@$$CBV?$basic_string@DU?$char_traits@D@std@@V?$allocator@D@2@@std@@VUnitType@BWAPI@@@std@@@2@$0A@@std@@@2@@Z 0042b470 f i BWAPI:UnitType.obj
 0001:0002a470       ?_Erase@?$_Tree@V?$_Tmap_traits@V?$basic_string@DU?$char_traits@D@std@@V?$allocator@D@2@@std@@VWeaponType@BWAPI@@U?$less@V?$basic_string@DU?$char_traits@D@std@@V?$allocator@D@2@@std@@@2@V?$allocator@U?$pair@$$CBV?$basic_string@DU?$char_traits@D@std@@V?$allocator@D@2@@std@@VWeaponType@BWAPI@@@std@@@2@$0A@@std@@@std@@IAEXPAU_Node@?$_Tree_nod@V?$_Tmap_traits@V?$basic_string@DU?$char_traits@D@std@@V?$allocator@D@2@@std@@VWeaponType@BWAPI@@U?$less@V?$basic_string@DU?$char_traits@D@std@@V?$allocator@D@2@@std@@@2@V?$allocator@U?$pair@$$CBV?$basic_string@DU?$char_traits@D@std@@V?$allocator@D@2@@std@@VWeaponType@BWAPI@@@std@@@2@$0A@@std@@@2@@Z 0042b470 f i BWAPI:WeaponType.obj
 0001:0002a470       ?_Erase@?$_Tree@V?$_Tmap_traits@V?$basic_string@DU?$char_traits@D@std@@V?$allocator@D@2@@std@@VPlayerType@BWAPI@@U?$less@V?$basic_string@DU?$char_traits@D@std@@V?$allocator@D@2@@std@@@2@V?$allocator@U?$pair@$$CBV?$basic_string@DU?$char_traits@D@std@@V?$allocator@D@2@@std@@VPlayerType@BWAPI@@@std@@@2@$0A@@std@@@std@@IAEXPAU_Node@?$_Tree_nod@V?$_Tmap_traits@V?$basic_string@DU?$char_traits@D@std@@V?$allocator@D@2@@std@@VPlayerType@BWAPI@@U?$less@V?$basic_string@DU?$char_traits@D@std@@V?$allocator@D@2@@std@@@2@V?$allocator@U?$pair@$$CBV?$basic_string@DU?$char_traits@D@std@@V?$allocator@D@2@@std@@VPlayerType@BWAPI@@@std@@@2@$0A@@std@@@2@@Z 0042b470 f i BWAPI:PlayerType.obj
 0001:0002a470       ?_Erase@?$_Tree@V?$_Tmap_traits@V?$basic_string@DU?$char_traits@D@std@@V?$allocator@D@2@@std@@VUnitSizeType@BWAPI@@U?$less@V?$basic_string@DU?$char_traits@D@std@@V?$allocator@D@2@@std@@@2@V?$allocator@U?$pair@$$CBV?$basic_string@DU?$char_traits@D@std@@V?$allocator@D@2@@std@@VUnitSizeType@BWAPI@@@std@@@2@$0A@@std@@@std@@IAEXPAU_Node@?$_Tree_nod@V?$_Tmap_traits@V?$basic_string@DU?$char_traits@D@std@@V?$allocator@D@2@@std@@VUnitSizeType@BWAPI@@U?$less@V?$basic_string@DU?$char_traits@D@std@@V?$allocator@D@2@@std@@@2@V?$allocator@U?$pair@$$CBV?$basic_string@DU?$char_traits@D@std@@V?$allocator@D@2@@std@@VUnitSizeType@BWAPI@@@std@@@2@$0A@@std@@@2@@Z 0042b470 f i BWAPI:UnitSizeType.obj
 0001:0002a470       ?_Erase@?$_Tree@V?$_Tmap_traits@V?$basic_string@DU?$char_traits@D@std@@V?$allocator@D@2@@std@@VDamageType@BWAPI@@U?$less@V?$basic_string@DU?$char_traits@D@std@@V?$allocator@D@2@@std@@@2@V?$allocator@U?$pair@$$CBV?$basic_string@DU?$char_traits@D@std@@V?$allocator@D@2@@std@@VDamageType@BWAPI@@@std@@@2@$0A@@std@@@std@@IAEXPAU_Node@?$_Tree_nod@V?$_Tmap_traits@V?$basic_string@DU?$char_traits@D@std@@V?$allocator@D@2@@std@@VDamageType@BWAPI@@U?$less@V?$basic_string@DU?$char_traits@D@std@@V?$allocator@D@2@@std@@@2@V?$allocator@U?$pair@$$CBV?$basic_string@DU?$char_traits@D@std@@V?$allocator@D@2@@std@@VDamageType@BWAPI@@@std@@@2@$0A@@std@@@2@@Z 0042b470 f i BWAPI:DamageType.obj
 0001:0002a470       ?_Erase@?$_Tree@V?$_Tmap_traits@V?$basic_string@DU?$char_traits@D@std@@V?$allocator@D@2@@std@@VOrder@BWAPI@@U?$less@V?$basic_string@DU?$char_traits@D@std@@V?$allocator@D@2@@std@@@2@V?$allocator@U?$pair@$$CBV?$basic_string@DU?$char_traits@D@std@@V?$allocator@D@2@@std@@VOrder@BWAPI@@@std@@@2@$0A@@std@@@std@@IAEXPAU_Node@?$_Tree_nod@V?$_Tmap_traits@V?$basic_string@DU?$char_traits@D@std@@V?$allocator@D@2@@std@@VOrder@BWAPI@@U?$less@V?$basic_string@DU?$char_traits@D@std@@V?$allocator@D@2@@std@@@2@V?$allocator@U?$pair@$$CBV?$basic_string@DU?$char_traits@D@std@@V?$allocator@D@2@@std@@VOrder@BWAPI@@@std@@@2@$0A@@std@@@2@@Z 0042b470 f i BWAPI:Order.obj
 0001:0002a470       ?_Erase@?$_Tree@V?$_Tmap_traits@V?$basic_string@DU?$char_traits@D@std@@V?$allocator@D@2@@std@@VRace@BWAPI@@U?$less@V?$basic_string@DU?$char_traits@D@std@@V?$allocator@D@2@@std@@@2@V?$allocator@U?$pair@$$CBV?$basic_string@DU?$char_traits@D@std@@V?$allocator@D@2@@std@@VRace@BWAPI@@@std@@@2@$0A@@std@@@std@@IAEXPAU_Node@?$_Tree_nod@V?$_Tmap_traits@V?$basic_string@DU?$char_traits@D@std@@V?$allocator@D@2@@std@@VRace@BWAPI@@U?$less@V?$basic_string@DU?$char_traits@D@std@@V?$allocator@D@2@@std@@@2@V?$allocator@U?$pair@$$CBV?$basic_string@DU?$char_traits@D@std@@V?$allocator@D@2@@std@@VRace@BWAPI@@@std@@@2@$0A@@std@@@2@@Z 0042b470 f i BWAPI:Race.obj
 0001:0002a470       ?_Erase@?$_Tree@V?$_Tmap_traits@V?$basic_string@DU?$char_traits@D@std@@V?$allocator@D@2@@std@@VUnitCommandType@BWAPI@@U?$less@V?$basic_string@DU?$char_traits@D@std@@V?$allocator@D@2@@std@@@2@V?$allocator@U?$pair@$$CBV?$basic_string@DU?$char_traits@D@std@@V?$allocator@D@2@@std@@VUnitCommandType@BWAPI@@@std@@@2@$0A@@std@@@std@@IAEXPAU_Node@?$_Tree_nod@V?$_Tmap_traits@V?$basic_string@DU?$char_traits@D@std@@V?$allocator@D@2@@std@@VUnitCommandType@BWAPI@@U?$less@V?$basic_string@DU?$char_traits@D@std@@V?$allocator@D@2@@std@@@2@V?$allocator@U?$pair@$$CBV?$basic_string@DU?$char_traits@D@std@@V?$allocator@D@2@@std@@VUnitCommandType@BWAPI@@@std@@@2@$0A@@std@@@2@@Z 0042b470 f i BWAPI:UnitCommandType.obj
 0001:0002a4b0       ?insert@?$_Tree@V?$_Tset_traits@VGameType@BWAPI@@U?$less@VGameType@BWAPI@@@std@@V?$allocator@VGameType@BWAPI@@@4@$0A@@std@@@std@@QAE?AU?$pair@Viterator@?$_Tree@V?$_Tset_traits@VGameType@BWAPI@@U?$less@VGameType@BWAPI@@@std@@V?$allocator@VGameType@BWAPI@@@4@$0A@@std@@@std@@_N@2@ABVGameType@BWAPI@@@Z 0042b4b0 f i BWAPI:GameType.obj
 0001:0002a4b0       ?insert@?$_Tree@V?$_Tset_traits@VWeaponType@BWAPI@@U?$less@VWeaponType@BWAPI@@@std@@V?$allocator@VWeaponType@BWAPI@@@4@$0A@@std@@@std@@QAE?AU?$pair@Viterator@?$_Tree@V?$_Tset_traits@VWeaponType@BWAPI@@U?$less@VWeaponType@BWAPI@@@std@@V?$allocator@VWeaponType@BWAPI@@@4@$0A@@std@@@std@@_N@2@ABVWeaponType@BWAPI@@@Z 0042b4b0 f i BWAPI:WeaponType.obj
 0001:0002a4b0       ?insert@?$_Tree@V?$_Tset_traits@VError@BWAPI@@U?$less@VError@BWAPI@@@std@@V?$allocator@VError@BWAPI@@@4@$0A@@std@@@std@@QAE?AU?$pair@Viterator@?$_Tree@V?$_Tset_traits@VError@BWAPI@@U?$less@VError@BWAPI@@@std@@V?$allocator@VError@BWAPI@@@4@$0A@@std@@@std@@_N@2@ABVError@BWAPI@@@Z 0042b4b0 f i BWAPI:Error.obj
 0001:0002a4b0       ?insert@?$_Tree@V?$_Tset_traits@VBulletType@BWAPI@@U?$less@VBulletType@BWAPI@@@std@@V?$allocator@VBulletType@BWAPI@@@4@$0A@@std@@@std@@QAE?AU?$pair@Viterator@?$_Tree@V?$_Tset_traits@VBulletType@BWAPI@@U?$less@VBulletType@BWAPI@@@std@@V?$allocator@VBulletType@BWAPI@@@4@$0A@@std@@@std@@_N@2@ABVBulletType@BWAPI@@@Z 0042b4b0 f i BWAPI:BulletType.obj
 0001:0002a4b0       ?insert@?$_Tree@V?$_Tset_traits@VUnitCommandType@BWAPI@@U?$less@VUnitCommandType@BWAPI@@@std@@V?$allocator@VUnitCommandType@BWAPI@@@4@$0A@@std@@@std@@QAE?AU?$pair@Viterator@?$_Tree@V?$_Tset_traits@VUnitCommandType@BWAPI@@U?$less@VUnitCommandType@BWAPI@@@std@@V?$allocator@VUnitCommandType@BWAPI@@@4@$0A@@std@@@std@@_N@2@ABVUnitCommandType@BWAPI@@@Z 0042b4b0 f i BWAPI:UnitCommandType.obj
 0001:0002a4b0       ?insert@?$_Tree@V?$_Tset_traits@VDamageType@BWAPI@@U?$less@VDamageType@BWAPI@@@std@@V?$allocator@VDamageType@BWAPI@@@4@$0A@@std@@@std@@QAE?AU?$pair@Viterator@?$_Tree@V?$_Tset_traits@VDamageType@BWAPI@@U?$less@VDamageType@BWAPI@@@std@@V?$allocator@VDamageType@BWAPI@@@4@$0A@@std@@@std@@_N@2@ABVDamageType@BWAPI@@@Z 0042b4b0 f i BWAPI:DamageType.obj
 0001:0002a4b0       ?insert@?$_Tree@V?$_Tset_traits@VPlayerType@BWAPI@@U?$less@VPlayerType@BWAPI@@@std@@V?$allocator@VPlayerType@BWAPI@@@4@$0A@@std@@@std@@QAE?AU?$pair@Viterator@?$_Tree@V?$_Tset_traits@VPlayerType@BWAPI@@U?$less@VPlayerType@BWAPI@@@std@@V?$allocator@VPlayerType@BWAPI@@@4@$0A@@std@@@std@@_N@2@ABVPlayerType@BWAPI@@@Z 0042b4b0 f i BWAPI:PlayerType.obj
 0001:0002a4b0       ?insert@?$_Tree@V?$_Tset_traits@VTechType@BWAPI@@U?$less@VTechType@BWAPI@@@std@@V?$allocator@VTechType@BWAPI@@@4@$0A@@std@@@std@@QAE?AU?$pair@Viterator@?$_Tree@V?$_Tset_traits@VTechType@BWAPI@@U?$less@VTechType@BWAPI@@@std@@V?$allocator@VTechType@BWAPI@@@4@$0A@@std@@@std@@_N@2@ABVTechType@BWAPI@@@Z 0042b4b0 f i BWAPI:UnitType.obj
 0001:0002a4b0       ?insert@?$_Tree@V?$_Tset_traits@VUpgradeType@BWAPI@@U?$less@VUpgradeType@BWAPI@@@std@@V?$allocator@VUpgradeType@BWAPI@@@4@$0A@@std@@@std@@QAE?AU?$pair@Viterator@?$_Tree@V?$_Tset_traits@VUpgradeType@BWAPI@@U?$less@VUpgradeType@BWAPI@@@std@@V?$allocator@VUpgradeType@BWAPI@@@4@$0A@@std@@@std@@_N@2@ABVUpgradeType@BWAPI@@@Z 0042b4b0 f i BWAPI:UnitType.obj
 0001:0002a4b0       ?insert@?$_Tree@V?$_Tset_traits@VUnitSizeType@BWAPI@@U?$less@VUnitSizeType@BWAPI@@@std@@V?$allocator@VUnitSizeType@BWAPI@@@4@$0A@@std@@@std@@QAE?AU?$pair@Viterator@?$_Tree@V?$_Tset_traits@VUnitSizeType@BWAPI@@U?$less@VUnitSizeType@BWAPI@@@std@@V?$allocator@VUnitSizeType@BWAPI@@@4@$0A@@std@@@std@@_N@2@ABVUnitSizeType@BWAPI@@@Z 0042b4b0 f i BWAPI:UnitSizeType.obj
 0001:0002a4b0       ?insert@?$_Tree@V?$_Tset_traits@VExplosionType@BWAPI@@U?$less@VExplosionType@BWAPI@@@std@@V?$allocator@VExplosionType@BWAPI@@@4@$0A@@std@@@std@@QAE?AU?$pair@Viterator@?$_Tree@V?$_Tset_traits@VExplosionType@BWAPI@@U?$less@VExplosionType@BWAPI@@@std@@V?$allocator@VExplosionType@BWAPI@@@4@$0A@@std@@@std@@_N@2@ABVExplosionType@BWAPI@@@Z 0042b4b0 f i BWAPI:ExplosionType.obj
 0001:0002a4b0       ?insert@?$_Tree@V?$_Tset_traits@VRace@BWAPI@@U?$less@VRace@BWAPI@@@std@@V?$allocator@VRace@BWAPI@@@4@$0A@@std@@@std@@QAE?AU?$pair@Viterator@?$_Tree@V?$_Tset_traits@VRace@BWAPI@@U?$less@VRace@BWAPI@@@std@@V?$allocator@VRace@BWAPI@@@4@$0A@@std@@@std@@_N@2@ABVRace@BWAPI@@@Z 0042b4b0 f i BWAPI:Race.obj
 0001:0002a4b0       ?insert@?$_Tree@V?$_Tset_traits@VUnitType@BWAPI@@U?$less@VUnitType@BWAPI@@@std@@V?$allocator@VUnitType@BWAPI@@@4@$0A@@std@@@std@@QAE?AU?$pair@Viterator@?$_Tree@V?$_Tset_traits@VUnitType@BWAPI@@U?$less@VUnitType@BWAPI@@@std@@V?$allocator@VUnitType@BWAPI@@@4@$0A@@std@@@std@@_N@2@ABVUnitType@BWAPI@@@Z 0042b4b0 f i BWAPI:UnitType.obj
 0001:0002a4b0       ?insert@?$_Tree@V?$_Tset_traits@VOrder@BWAPI@@U?$less@VOrder@BWAPI@@@std@@V?$allocator@VOrder@BWAPI@@@4@$0A@@std@@@std@@QAE?AU?$pair@Viterator@?$_Tree@V?$_Tset_traits@VOrder@BWAPI@@U?$less@VOrder@BWAPI@@@std@@V?$allocator@VOrder@BWAPI@@@4@$0A@@std@@@std@@_N@2@ABVOrder@BWAPI@@@Z 0042b4b0 f i BWAPI:Order.obj
 0001:0002a5d0       ?init@BulletTypes@BWAPI@@YAXXZ 0042b5d0 f   BWAPI:BulletType.obj
 0001:0002af80       ?_Buynode@?$_Tree@V?$_Tmap_traits@V?$basic_string@DU?$char_traits@D@std@@V?$allocator@D@2@@std@@VTechType@BWAPI@@U?$less@V?$basic_string@DU?$char_traits@D@std@@V?$allocator@D@2@@std@@@2@V?$allocator@U?$pair@$$CBV?$basic_string@DU?$char_traits@D@std@@V?$allocator@D@2@@std@@VTechType@BWAPI@@@std@@@2@$0A@@std@@@std@@IAEPAU_Node@?$_Tree_nod@V?$_Tmap_traits@V?$basic_string@DU?$char_traits@D@std@@V?$allocator@D@2@@std@@VTechType@BWAPI@@U?$less@V?$basic_string@DU?$char_traits@D@std@@V?$allocator@D@2@@std@@@2@V?$allocator@U?$pair@$$CBV?$basic_string@DU?$char_traits@D@std@@V?$allocator@D@2@@std@@VTechType@BWAPI@@@std@@@2@$0A@@std@@@2@PAU342@00ABU?$pair@$$CBV?$basic_string@DU?$char_traits@D@std@@V?$allocator@D@2@@std@@VTechType@BWAPI@@@2@D@Z 0042bf80 f i BWAPI:TechType.obj
 0001:0002af80       ?_Buynode@?$_Tree@V?$_Tmap_traits@V?$basic_string@DU?$char_traits@D@std@@V?$allocator@D@2@@std@@VUnitSizeType@BWAPI@@U?$less@V?$basic_string@DU?$char_traits@D@std@@V?$allocator@D@2@@std@@@2@V?$allocator@U?$pair@$$CBV?$basic_string@DU?$char_traits@D@std@@V?$allocator@D@2@@std@@VUnitSizeType@BWAPI@@@std@@@2@$0A@@std@@@std@@IAEPAU_Node@?$_Tree_nod@V?$_Tmap_traits@V?$basic_string@DU?$char_traits@D@std@@V?$allocator@D@2@@std@@VUnitSizeType@BWAPI@@U?$less@V?$basic_string@DU?$char_traits@D@std@@V?$allocator@D@2@@std@@@2@V?$allocator@U?$pair@$$CBV?$basic_string@DU?$char_traits@D@std@@V?$allocator@D@2@@std@@VUnitSizeType@BWAPI@@@std@@@2@$0A@@std@@@2@PAU342@00ABU?$pair@$$CBV?$basic_string@DU?$char_traits@D@std@@V?$allocator@D@2@@std@@VUnitSizeType@BWAPI@@@2@D@Z 0042bf80 f i BWAPI:UnitSizeType.obj
 0001:0002af80       ?_Buynode@?$_Tree@V?$_Tmap_traits@V?$basic_string@DU?$char_traits@D@std@@V?$allocator@D@2@@std@@VUnitCommandType@BWAPI@@U?$less@V?$basic_string@DU?$char_traits@D@std@@V?$allocator@D@2@@std@@@2@V?$allocator@U?$pair@$$CBV?$basic_string@DU?$char_traits@D@std@@V?$allocator@D@2@@std@@VUnitCommandType@BWAPI@@@std@@@2@$0A@@std@@@std@@IAEPAU_Node@?$_Tree_nod@V?$_Tmap_traits@V?$basic_string@DU?$char_traits@D@std@@V?$allocator@D@2@@std@@VUnitCommandType@BWAPI@@U?$less@V?$basic_string@DU?$char_traits@D@std@@V?$allocator@D@2@@std@@@2@V?$allocator@U?$pair@$$CBV?$basic_string@DU?$char_traits@D@std@@V?$allocator@D@2@@std@@VUnitCommandType@BWAPI@@@std@@@2@$0A@@std@@@2@PAU342@00ABU?$pair@$$CBV?$basic_string@DU?$char_traits@D@std@@V?$allocator@D@2@@std@@VUnitCommandType@BWAPI@@@2@D@Z 0042bf80 f i BWAPI:UnitCommandType.obj
 0001:0002af80       ?_Buynode@?$_Tree@V?$_Tmap_traits@V?$basic_string@DU?$char_traits@D@std@@V?$allocator@D@2@@std@@VUpgradeType@BWAPI@@U?$less@V?$basic_string@DU?$char_traits@D@std@@V?$allocator@D@2@@std@@@2@V?$allocator@U?$pair@$$CBV?$basic_string@DU?$char_traits@D@std@@V?$allocator@D@2@@std@@VUpgradeType@BWAPI@@@std@@@2@$0A@@std@@@std@@IAEPAU_Node@?$_Tree_nod@V?$_Tmap_traits@V?$basic_string@DU?$char_traits@D@std@@V?$allocator@D@2@@std@@VUpgradeType@BWAPI@@U?$less@V?$basic_string@DU?$char_traits@D@std@@V?$allocator@D@2@@std@@@2@V?$allocator@U?$pair@$$CBV?$basic_string@DU?$char_traits@D@std@@V?$allocator@D@2@@std@@VUpgradeType@BWAPI@@@std@@@2@$0A@@std@@@2@PAU342@00ABU?$pair@$$CBV?$basic_string@DU?$char_traits@D@std@@V?$allocator@D@2@@std@@VUpgradeType@BWAPI@@@2@D@Z 0042bf80 f i BWAPI:UpgradeType.obj
 0001:0002af80       ?_Buynode@?$_Tree@V?$_Tmap_traits@V?$basic_string@DU?$char_traits@D@std@@V?$allocator@D@2@@std@@VWeaponType@BWAPI@@U?$less@V?$basic_string@DU?$char_traits@D@std@@V?$allocator@D@2@@std@@@2@V?$allocator@U?$pair@$$CBV?$basic_string@DU?$char_traits@D@std@@V?$allocator@D@2@@std@@VWeaponType@BWAPI@@@std@@@2@$0A@@std@@@std@@IAEPAU_Node@?$_Tree_nod@V?$_Tmap_traits@V?$basic_string@DU?$char_traits@D@std@@V?$allocator@D@2@@std@@VWeaponType@BWAPI@@U?$less@V?$basic_string@DU?$char_traits@D@std@@V?$allocator@D@2@@std@@@2@V?$allocator@U?$pair@$$CBV?$basic_string@DU?$char_traits@D@std@@V?$allocator@D@2@@std@@VWeaponType@BWAPI@@@std@@@2@$0A@@std@@@2@PAU342@00ABU?$pair@$$CBV?$basic_string@DU?$char_traits@D@std@@V?$allocator@D@2@@std@@VWeaponType@BWAPI@@@2@D@Z 0042bf80 f i BWAPI:WeaponType.obj
 0001:0002af80       ?_Buynode@?$_Tree@V?$_Tmap_traits@V?$basic_string@DU?$char_traits@D@std@@V?$allocator@D@2@@std@@VPlayerType@BWAPI@@U?$less@V?$basic_string@DU?$char_traits@D@std@@V?$allocator@D@2@@std@@@2@V?$allocator@U?$pair@$$CBV?$basic_string@DU?$char_traits@D@std@@V?$allocator@D@2@@std@@VPlayerType@BWAPI@@@std@@@2@$0A@@std@@@std@@IAEPAU_Node@?$_Tree_nod@V?$_Tmap_traits@V?$basic_string@DU?$char_traits@D@std@@V?$allocator@D@2@@std@@VPlayerType@BWAPI@@U?$less@V?$basic_string@DU?$char_traits@D@std@@V?$allocator@D@2@@std@@@2@V?$allocator@U?$pair@$$CBV?$basic_string@DU?$char_traits@D@std@@V?$allocator@D@2@@std@@VPlayerType@BWAPI@@@std@@@2@$0A@@std@@@2@PAU342@00ABU?$pair@$$CBV?$basic_string@DU?$char_traits@D@std@@V?$allocator@D@2@@std@@VPlayerType@BWAPI@@@2@D@Z 0042bf80 f i BWAPI:PlayerType.obj
 0001:0002af80       ?_Buynode@?$_Tree@V?$_Tmap_traits@V?$basic_string@DU?$char_traits@D@std@@V?$allocator@D@2@@std@@VGameType@BWAPI@@U?$less@V?$basic_string@DU?$char_traits@D@std@@V?$allocator@D@2@@std@@@2@V?$allocator@U?$pair@$$CBV?$basic_string@DU?$char_traits@D@std@@V?$allocator@D@2@@std@@VGameType@BWAPI@@@std@@@2@$0A@@std@@@std@@IAEPAU_Node@?$_Tree_nod@V?$_Tmap_traits@V?$basic_string@DU?$char_traits@D@std@@V?$allocator@D@2@@std@@VGameType@BWAPI@@U?$less@V?$basic_string@DU?$char_traits@D@std@@V?$allocator@D@2@@std@@@2@V?$allocator@U?$pair@$$CBV?$basic_string@DU?$char_traits@D@std@@V?$allocator@D@2@@std@@VGameType@BWAPI@@@std@@@2@$0A@@std@@@2@PAU342@00ABU?$pair@$$CBV?$basic_string@DU?$char_traits@D@std@@V?$allocator@D@2@@std@@VGameType@BWAPI@@@2@D@Z 0042bf80 f i BWAPI:GameType.obj
 0001:0002af80       ?_Buynode@?$_Tree@V?$_Tmap_traits@V?$basic_string@DU?$char_traits@D@std@@V?$allocator@D@2@@std@@VOrder@BWAPI@@U?$less@V?$basic_string@DU?$char_traits@D@std@@V?$allocator@D@2@@std@@@2@V?$allocator@U?$pair@$$CBV?$basic_string@DU?$char_traits@D@std@@V?$allocator@D@2@@std@@VOrder@BWAPI@@@std@@@2@$0A@@std@@@std@@IAEPAU_Node@?$_Tree_nod@V?$_Tmap_traits@V?$basic_string@DU?$char_traits@D@std@@V?$allocator@D@2@@std@@VOrder@BWAPI@@U?$less@V?$basic_string@DU?$char_traits@D@std@@V?$allocator@D@2@@std@@@2@V?$allocator@U?$pair@$$CBV?$basic_string@DU?$char_traits@D@std@@V?$allocator@D@2@@std@@VOrder@BWAPI@@@std@@@2@$0A@@std@@@2@PAU342@00ABU?$pair@$$CBV?$basic_string@DU?$char_traits@D@std@@V?$allocator@D@2@@std@@VOrder@BWAPI@@@2@D@Z 0042bf80 f i BWAPI:Order.obj
 0001:0002af80       ?_Buynode@?$_Tree@V?$_Tmap_traits@V?$basic_string@DU?$char_traits@D@std@@V?$allocator@D@2@@std@@VError@BWAPI@@U?$less@V?$basic_string@DU?$char_traits@D@std@@V?$allocator@D@2@@std@@@2@V?$allocator@U?$pair@$$CBV?$basic_string@DU?$char_traits@D@std@@V?$allocator@D@2@@std@@VError@BWAPI@@@std@@@2@$0A@@std@@@std@@IAEPAU_Node@?$_Tree_nod@V?$_Tmap_traits@V?$basic_string@DU?$char_traits@D@std@@V?$allocator@D@2@@std@@VError@BWAPI@@U?$less@V?$basic_string@DU?$char_traits@D@std@@V?$allocator@D@2@@std@@@2@V?$allocator@U?$pair@$$CBV?$basic_string@DU?$char_traits@D@std@@V?$allocator@D@2@@std@@VError@BWAPI@@@std@@@2@$0A@@std@@@2@PAU342@00ABU?$pair@$$CBV?$basic_string@DU?$char_traits@D@std@@V?$allocator@D@2@@std@@VError@BWAPI@@@2@D@Z 0042bf80 f i BWAPI:Error.obj
 0001:0002af80       ?_Buynode@?$_Tree@V?$_Tmap_traits@V?$basic_string@DU?$char_traits@D@std@@V?$allocator@D@2@@std@@VExplosionType@BWAPI@@U?$less@V?$basic_string@DU?$char_traits@D@std@@V?$allocator@D@2@@std@@@2@V?$allocator@U?$pair@$$CBV?$basic_string@DU?$char_traits@D@std@@V?$allocator@D@2@@std@@VExplosionType@BWAPI@@@std@@@2@$0A@@std@@@std@@IAEPAU_Node@?$_Tree_nod@V?$_Tmap_traits@V?$basic_string@DU?$char_traits@D@std@@V?$allocator@D@2@@std@@VExplosionType@BWAPI@@U?$less@V?$basic_string@DU?$char_traits@D@std@@V?$allocator@D@2@@std@@@2@V?$allocator@U?$pair@$$CBV?$basic_string@DU?$char_traits@D@std@@V?$allocator@D@2@@std@@VExplosionType@BWAPI@@@std@@@2@$0A@@std@@@2@PAU342@00ABU?$pair@$$CBV?$basic_string@DU?$char_traits@D@std@@V?$allocator@D@2@@std@@VExplosionType@BWAPI@@@2@D@Z 0042bf80 f i BWAPI:ExplosionType.obj
 0001:0002af80       ?_Buynode@?$_Tree@V?$_Tmap_traits@V?$basic_string@DU?$char_traits@D@std@@V?$allocator@D@2@@std@@VUnitType@BWAPI@@U?$less@V?$basic_string@DU?$char_traits@D@std@@V?$allocator@D@2@@std@@@2@V?$allocator@U?$pair@$$CBV?$basic_string@DU?$char_traits@D@std@@V?$allocator@D@2@@std@@VUnitType@BWAPI@@@std@@@2@$0A@@std@@@std@@IAEPAU_Node@?$_Tree_nod@V?$_Tmap_traits@V?$basic_string@DU?$char_traits@D@std@@V?$allocator@D@2@@std@@VUnitType@BWAPI@@U?$less@V?$basic_string@DU?$char_traits@D@std@@V?$allocator@D@2@@std@@@2@V?$allocator@U?$pair@$$CBV?$basic_string@DU?$char_traits@D@std@@V?$allocator@D@2@@std@@VUnitType@BWAPI@@@std@@@2@$0A@@std@@@2@PAU342@00ABU?$pair@$$CBV?$basic_string@DU?$char_traits@D@std@@V?$allocator@D@2@@std@@VUnitType@BWAPI@@@2@D@Z 0042bf80 f i BWAPI:UnitType.obj
 0001:0002af80       ?_Buynode@?$_Tree@V?$_Tmap_traits@V?$basic_string@DU?$char_traits@D@std@@V?$allocator@D@2@@std@@VRace@BWAPI@@U?$less@V?$basic_string@DU?$char_traits@D@std@@V?$allocator@D@2@@std@@@2@V?$allocator@U?$pair@$$CBV?$basic_string@DU?$char_traits@D@std@@V?$allocator@D@2@@std@@VRace@BWAPI@@@std@@@2@$0A@@std@@@std@@IAEPAU_Node@?$_Tree_nod@V?$_Tmap_traits@V?$basic_string@DU?$char_traits@D@std@@V?$allocator@D@2@@std@@VRace@BWAPI@@U?$less@V?$basic_string@DU?$char_traits@D@std@@V?$allocator@D@2@@std@@@2@V?$allocator@U?$pair@$$CBV?$basic_string@DU?$char_traits@D@std@@V?$allocator@D@2@@std@@VRace@BWAPI@@@std@@@2@$0A@@std@@@2@PAU342@00ABU?$pair@$$CBV?$basic_string@DU?$char_traits@D@std@@V?$allocator@D@2@@std@@VRace@BWAPI@@@2@D@Z 0042bf80 f i BWAPI:Race.obj
 0001:0002af80       ?_Buynode@?$_Tree@V?$_Tmap_traits@V?$basic_string@DU?$char_traits@D@std@@V?$allocator@D@2@@std@@VBulletType@BWAPI@@U?$less@V?$basic_string@DU?$char_traits@D@std@@V?$allocator@D@2@@std@@@2@V?$allocator@U?$pair@$$CBV?$basic_string@DU?$char_traits@D@std@@V?$allocator@D@2@@std@@VBulletType@BWAPI@@@std@@@2@$0A@@std@@@std@@IAEPAU_Node@?$_Tree_nod@V?$_Tmap_traits@V?$basic_string@DU?$char_traits@D@std@@V?$allocator@D@2@@std@@VBulletType@BWAPI@@U?$less@V?$basic_string@DU?$char_traits@D@std@@V?$allocator@D@2@@std@@@2@V?$allocator@U?$pair@$$CBV?$basic_string@DU?$char_traits@D@std@@V?$allocator@D@2@@std@@VBulletType@BWAPI@@@std@@@2@$0A@@std@@@2@PAU342@00ABU?$pair@$$CBV?$basic_string@DU?$char_traits@D@std@@V?$allocator@D@2@@std@@VBulletType@BWAPI@@@2@D@Z 0042bf80 f i BWAPI:BulletType.obj
 0001:0002af80       ?_Buynode@?$_Tree@V?$_Tmap_traits@V?$basic_string@DU?$char_traits@D@std@@V?$allocator@D@2@@std@@VDamageType@BWAPI@@U?$less@V?$basic_string@DU?$char_traits@D@std@@V?$allocator@D@2@@std@@@2@V?$allocator@U?$pair@$$CBV?$basic_string@DU?$char_traits@D@std@@V?$allocator@D@2@@std@@VDamageType@BWAPI@@@std@@@2@$0A@@std@@@std@@IAEPAU_Node@?$_Tree_nod@V?$_Tmap_traits@V?$basic_string@DU?$char_traits@D@std@@V?$allocator@D@2@@std@@VDamageType@BWAPI@@U?$less@V?$basic_string@DU?$char_traits@D@std@@V?$allocator@D@2@@std@@@2@V?$allocator@U?$pair@$$CBV?$basic_string@DU?$char_traits@D@std@@V?$allocator@D@2@@std@@VDamageType@BWAPI@@@std@@@2@$0A@@std@@@2@PAU342@00ABU?$pair@$$CBV?$basic_string@DU?$char_traits@D@std@@V?$allocator@D@2@@std@@VDamageType@BWAPI@@@2@D@Z 0042bf80 f i BWAPI:DamageType.obj
 0001:0002b020       ?init@UnitCommandTypes@BWAPI@@YAXXZ 0042c020 f   BWAPI:UnitCommandType.obj
 0001:0002bbe0       ??0?$_Tree@V?$_Tset_traits@VPlayerType@BWAPI@@U?$less@VPlayerType@BWAPI@@@std@@V?$allocator@VPlayerType@BWAPI@@@4@$0A@@std@@@std@@QAE@ABU?$less@VPlayerType@BWAPI@@@1@ABV?$allocator@VPlayerType@BWAPI@@@1@@Z 0042cbe0 f i BWAPI:PlayerType.obj
 0001:0002bbe0       ??0?$_Tree@V?$_Tset_traits@VExplosionType@BWAPI@@U?$less@VExplosionType@BWAPI@@@std@@V?$allocator@VExplosionType@BWAPI@@@4@$0A@@std@@@std@@QAE@ABU?$less@VExplosionType@BWAPI@@@1@ABV?$allocator@VExplosionType@BWAPI@@@1@@Z 0042cbe0 f i BWAPI:ExplosionType.obj
 0001:0002bbe0       ??0?$_Tree@V?$_Tset_traits@VUnitSizeType@BWAPI@@U?$less@VUnitSizeType@BWAPI@@@std@@V?$allocator@VUnitSizeType@BWAPI@@@4@$0A@@std@@@std@@QAE@ABU?$less@VUnitSizeType@BWAPI@@@1@ABV?$allocator@VUnitSizeType@BWAPI@@@1@@Z 0042cbe0 f i BWAPI:UnitSizeType.obj
 0001:0002bbe0       ??0?$_Tree@V?$_Tset_traits@VRace@BWAPI@@U?$less@VRace@BWAPI@@@std@@V?$allocator@VRace@BWAPI@@@4@$0A@@std@@@std@@QAE@ABU?$less@VRace@BWAPI@@@1@ABV?$allocator@VRace@BWAPI@@@1@@Z 0042cbe0 f i BWAPI:Race.obj
 0001:0002bbe0       ??0?$_Tree@V?$_Tset_traits@VWeaponType@BWAPI@@U?$less@VWeaponType@BWAPI@@@std@@V?$allocator@VWeaponType@BWAPI@@@4@$0A@@std@@@std@@QAE@ABU?$less@VWeaponType@BWAPI@@@1@ABV?$allocator@VWeaponType@BWAPI@@@1@@Z 0042cbe0 f i BWAPI:WeaponType.obj
 0001:0002bbe0       ??0?$_Tree@V?$_Tset_traits@VUnitType@BWAPI@@U?$less@VUnitType@BWAPI@@@std@@V?$allocator@VUnitType@BWAPI@@@4@$0A@@std@@@std@@QAE@ABU?$less@VUnitType@BWAPI@@@1@ABV?$allocator@VUnitType@BWAPI@@@1@@Z 0042cbe0 f i BWAPI:UnitType.obj
 0001:0002bbe0       ??0?$_Tree@V?$_Tset_traits@VBulletType@BWAPI@@U?$less@VBulletType@BWAPI@@@std@@V?$allocator@VBulletType@BWAPI@@@4@$0A@@std@@@std@@QAE@ABU?$less@VBulletType@BWAPI@@@1@ABV?$allocator@VBulletType@BWAPI@@@1@@Z 0042cbe0 f i BWAPI:BulletType.obj
 0001:0002bbe0       ??0?$_Tree@V?$_Tset_traits@VDamageType@BWAPI@@U?$less@VDamageType@BWAPI@@@std@@V?$allocator@VDamageType@BWAPI@@@4@$0A@@std@@@std@@QAE@ABU?$less@VDamageType@BWAPI@@@1@ABV?$allocator@VDamageType@BWAPI@@@1@@Z 0042cbe0 f i BWAPI:DamageType.obj
 0001:0002bbe0       ??0?$_Tree@V?$_Tset_traits@VUnitCommandType@BWAPI@@U?$less@VUnitCommandType@BWAPI@@@std@@V?$allocator@VUnitCommandType@BWAPI@@@4@$0A@@std@@@std@@QAE@ABU?$less@VUnitCommandType@BWAPI@@@1@ABV?$allocator@VUnitCommandType@BWAPI@@@1@@Z 0042cbe0 f i BWAPI:UnitCommandType.obj
 0001:0002bbe0       ??0?$_Tree@V?$_Tset_traits@VTechType@BWAPI@@U?$less@VTechType@BWAPI@@@std@@V?$allocator@VTechType@BWAPI@@@4@$0A@@std@@@std@@QAE@ABU?$less@VTechType@BWAPI@@@1@ABV?$allocator@VTechType@BWAPI@@@1@@Z 0042cbe0 f i BWAPI:UnitType.obj
 0001:0002bbe0       ??0?$_Tree@V?$_Tset_traits@VUpgradeType@BWAPI@@U?$less@VUpgradeType@BWAPI@@@std@@V?$allocator@VUpgradeType@BWAPI@@@4@$0A@@std@@@std@@QAE@ABU?$less@VUpgradeType@BWAPI@@@1@ABV?$allocator@VUpgradeType@BWAPI@@@1@@Z 0042cbe0 f i BWAPI:UnitType.obj
 0001:0002bbe0       ??0?$_Tree@V?$_Tset_traits@VGameType@BWAPI@@U?$less@VGameType@BWAPI@@@std@@V?$allocator@VGameType@BWAPI@@@4@$0A@@std@@@std@@QAE@ABU?$less@VGameType@BWAPI@@@1@ABV?$allocator@VGameType@BWAPI@@@1@@Z 0042cbe0 f i BWAPI:GameType.obj
 0001:0002bbe0       ??0?$_Tree@V?$_Tset_traits@VError@BWAPI@@U?$less@VError@BWAPI@@@std@@V?$allocator@VError@BWAPI@@@4@$0A@@std@@@std@@QAE@ABU?$less@VError@BWAPI@@@1@ABV?$allocator@VError@BWAPI@@@1@@Z 0042cbe0 f i BWAPI:Error.obj
 0001:0002bbe0       ??0?$_Tree@V?$_Tset_traits@VOrder@BWAPI@@U?$less@VOrder@BWAPI@@@std@@V?$allocator@VOrder@BWAPI@@@4@$0A@@std@@@std@@QAE@ABU?$less@VOrder@BWAPI@@@1@ABV?$allocator@VOrder@BWAPI@@@1@@Z 0042cbe0 f i BWAPI:Order.obj
 0001:0002bc60       ?_Rrotate@?$_Tree@V?$_Tmap_traits@V?$basic_string@DU?$char_traits@D@std@@V?$allocator@D@2@@std@@VOrder@BWAPI@@U?$less@V?$basic_string@DU?$char_traits@D@std@@V?$allocator@D@2@@std@@@2@V?$allocator@U?$pair@$$CBV?$basic_string@DU?$char_traits@D@std@@V?$allocator@D@2@@std@@VOrder@BWAPI@@@std@@@2@$0A@@std@@@std@@IAEXPAU_Node@?$_Tree_nod@V?$_Tmap_traits@V?$basic_string@DU?$char_traits@D@std@@V?$allocator@D@2@@std@@VOrder@BWAPI@@U?$less@V?$basic_string@DU?$char_traits@D@std@@V?$allocator@D@2@@std@@@2@V?$allocator@U?$pair@$$CBV?$basic_string@DU?$char_traits@D@std@@V?$allocator@D@2@@std@@VOrder@BWAPI@@@std@@@2@$0A@@std@@@2@@Z 0042cc60 f i BWAPI:Order.obj
 0001:0002bc60       ?_Rrotate@?$_Tree@V?$_Tmap_traits@V?$basic_string@DU?$char_traits@D@std@@V?$allocator@D@2@@std@@VWeaponType@BWAPI@@U?$less@V?$basic_string@DU?$char_traits@D@std@@V?$allocator@D@2@@std@@@2@V?$allocator@U?$pair@$$CBV?$basic_string@DU?$char_traits@D@std@@V?$allocator@D@2@@std@@VWeaponType@BWAPI@@@std@@@2@$0A@@std@@@std@@IAEXPAU_Node@?$_Tree_nod@V?$_Tmap_traits@V?$basic_string@DU?$char_traits@D@std@@V?$allocator@D@2@@std@@VWeaponType@BWAPI@@U?$less@V?$basic_string@DU?$char_traits@D@std@@V?$allocator@D@2@@std@@@2@V?$allocator@U?$pair@$$CBV?$basic_string@DU?$char_traits@D@std@@V?$allocator@D@2@@std@@VWeaponType@BWAPI@@@std@@@2@$0A@@std@@@2@@Z 0042cc60 f i BWAPI:WeaponType.obj
 0001:0002bc60       ?_Rrotate@?$_Tree@V?$_Tmap_traits@V?$basic_string@DU?$char_traits@D@std@@V?$allocator@D@2@@std@@VGameType@BWAPI@@U?$less@V?$basic_string@DU?$char_traits@D@std@@V?$allocator@D@2@@std@@@2@V?$allocator@U?$pair@$$CBV?$basic_string@DU?$char_traits@D@std@@V?$allocator@D@2@@std@@VGameType@BWAPI@@@std@@@2@$0A@@std@@@std@@IAEXPAU_Node@?$_Tree_nod@V?$_Tmap_traits@V?$basic_string@DU?$char_traits@D@std@@V?$allocator@D@2@@std@@VGameType@BWAPI@@U?$less@V?$basic_string@DU?$char_traits@D@std@@V?$allocator@D@2@@std@@@2@V?$allocator@U?$pair@$$CBV?$basic_string@DU?$char_traits@D@std@@V?$allocator@D@2@@std@@VGameType@BWAPI@@@std@@@2@$0A@@std@@@2@@Z 0042cc60 f i BWAPI:GameType.obj
 0001:0002bc60       ?_Rrotate@?$_Tree@V?$_Tmap_traits@V?$basic_string@DU?$char_traits@D@std@@V?$allocator@D@2@@std@@VUpgradeType@BWAPI@@U?$less@V?$basic_string@DU?$char_traits@D@std@@V?$allocator@D@2@@std@@@2@V?$allocator@U?$pair@$$CBV?$basic_string@DU?$char_traits@D@std@@V?$allocator@D@2@@std@@VUpgradeType@BWAPI@@@std@@@2@$0A@@std@@@std@@IAEXPAU_Node@?$_Tree_nod@V?$_Tmap_traits@V?$basic_string@DU?$char_traits@D@std@@V?$allocator@D@2@@std@@VUpgradeType@BWAPI@@U?$less@V?$basic_string@DU?$char_traits@D@std@@V?$allocator@D@2@@std@@@2@V?$allocator@U?$pair@$$CBV?$basic_string@DU?$char_traits@D@std@@V?$allocator@D@2@@std@@VUpgradeType@BWAPI@@@std@@@2@$0A@@std@@@2@@Z 0042cc60 f i BWAPI:UpgradeType.obj
 0001:0002bc60       ?_Rrotate@?$_Tree@V?$_Tmap_traits@V?$basic_string@DU?$char_traits@D@std@@V?$allocator@D@2@@std@@VDamageType@BWAPI@@U?$less@V?$basic_string@DU?$char_traits@D@std@@V?$allocator@D@2@@std@@@2@V?$allocator@U?$pair@$$CBV?$basic_string@DU?$char_traits@D@std@@V?$allocator@D@2@@std@@VDamageType@BWAPI@@@std@@@2@$0A@@std@@@std@@IAEXPAU_Node@?$_Tree_nod@V?$_Tmap_traits@V?$basic_string@DU?$char_traits@D@std@@V?$allocator@D@2@@std@@VDamageType@BWAPI@@U?$less@V?$basic_string@DU?$char_traits@D@std@@V?$allocator@D@2@@std@@@2@V?$allocator@U?$pair@$$CBV?$basic_string@DU?$char_traits@D@std@@V?$allocator@D@2@@std@@VDamageType@BWAPI@@@std@@@2@$0A@@std@@@2@@Z 0042cc60 f i BWAPI:DamageType.obj
 0001:0002bc60       ?_Rrotate@?$_Tree@V?$_Tmap_traits@V?$basic_string@DU?$char_traits@D@std@@V?$allocator@D@2@@std@@VBulletType@BWAPI@@U?$less@V?$basic_string@DU?$char_traits@D@std@@V?$allocator@D@2@@std@@@2@V?$allocator@U?$pair@$$CBV?$basic_string@DU?$char_traits@D@std@@V?$allocator@D@2@@std@@VBulletType@BWAPI@@@std@@@2@$0A@@std@@@std@@IAEXPAU_Node@?$_Tree_nod@V?$_Tmap_traits@V?$basic_string@DU?$char_traits@D@std@@V?$allocator@D@2@@std@@VBulletType@BWAPI@@U?$less@V?$basic_string@DU?$char_traits@D@std@@V?$allocator@D@2@@std@@@2@V?$allocator@U?$pair@$$CBV?$basic_string@DU?$char_traits@D@std@@V?$allocator@D@2@@std@@VBulletType@BWAPI@@@std@@@2@$0A@@std@@@2@@Z 0042cc60 f i BWAPI:BulletType.obj
 0001:0002bc60       ?_Rrotate@?$_Tree@V?$_Tmap_traits@V?$basic_string@DU?$char_traits@D@std@@V?$allocator@D@2@@std@@VRace@BWAPI@@U?$less@V?$basic_string@DU?$char_traits@D@std@@V?$allocator@D@2@@std@@@2@V?$allocator@U?$pair@$$CBV?$basic_string@DU?$char_traits@D@std@@V?$allocator@D@2@@std@@VRace@BWAPI@@@std@@@2@$0A@@std@@@std@@IAEXPAU_Node@?$_Tree_nod@V?$_Tmap_traits@V?$basic_string@DU?$char_traits@D@std@@V?$allocator@D@2@@std@@VRace@BWAPI@@U?$less@V?$basic_string@DU?$char_traits@D@std@@V?$allocator@D@2@@std@@@2@V?$allocator@U?$pair@$$CBV?$basic_string@DU?$char_traits@D@std@@V?$allocator@D@2@@std@@VRace@BWAPI@@@std@@@2@$0A@@std@@@2@@Z 0042cc60 f i BWAPI:Race.obj
 0001:0002bc60       ?_Rrotate@?$_Tree@V?$_Tmap_traits@V?$basic_string@DU?$char_traits@D@std@@V?$allocator@D@2@@std@@VUnitSizeType@BWAPI@@U?$less@V?$basic_string@DU?$char_traits@D@std@@V?$allocator@D@2@@std@@@2@V?$allocator@U?$pair@$$CBV?$basic_string@DU?$char_traits@D@std@@V?$allocator@D@2@@std@@VUnitSizeType@BWAPI@@@std@@@2@$0A@@std@@@std@@IAEXPAU_Node@?$_Tree_nod@V?$_Tmap_traits@V?$basic_string@DU?$char_traits@D@std@@V?$allocator@D@2@@std@@VUnitSizeType@BWAPI@@U?$less@V?$basic_string@DU?$char_traits@D@std@@V?$allocator@D@2@@std@@@2@V?$allocator@U?$pair@$$CBV?$basic_string@DU?$char_traits@D@std@@V?$allocator@D@2@@std@@VUnitSizeType@BWAPI@@@std@@@2@$0A@@std@@@2@@Z 0042cc60 f i BWAPI:UnitSizeType.obj
 0001:0002bc60       ?_Rrotate@?$_Tree@V?$_Tmap_traits@V?$basic_string@DU?$char_traits@D@std@@V?$allocator@D@2@@std@@VPlayerType@BWAPI@@U?$less@V?$basic_string@DU?$char_traits@D@std@@V?$allocator@D@2@@std@@@2@V?$allocator@U?$pair@$$CBV?$basic_string@DU?$char_traits@D@std@@V?$allocator@D@2@@std@@VPlayerType@BWAPI@@@std@@@2@$0A@@std@@@std@@IAEXPAU_Node@?$_Tree_nod@V?$_Tmap_traits@V?$basic_string@DU?$char_traits@D@std@@V?$allocator@D@2@@std@@VPlayerType@BWAPI@@U?$less@V?$basic_string@DU?$char_traits@D@std@@V?$allocator@D@2@@std@@@2@V?$allocator@U?$pair@$$CBV?$basic_string@DU?$char_traits@D@std@@V?$allocator@D@2@@std@@VPlayerType@BWAPI@@@std@@@2@$0A@@std@@@2@@Z 0042cc60 f i BWAPI:PlayerType.obj
 0001:0002bc60       ?_Rrotate@?$_Tree@V?$_Tmap_traits@V?$basic_string@DU?$char_traits@D@std@@V?$allocator@D@2@@std@@VError@BWAPI@@U?$less@V?$basic_string@DU?$char_traits@D@std@@V?$allocator@D@2@@std@@@2@V?$allocator@U?$pair@$$CBV?$basic_string@DU?$char_traits@D@std@@V?$allocator@D@2@@std@@VError@BWAPI@@@std@@@2@$0A@@std@@@std@@IAEXPAU_Node@?$_Tree_nod@V?$_Tmap_traits@V?$basic_string@DU?$char_traits@D@std@@V?$allocator@D@2@@std@@VError@BWAPI@@U?$less@V?$basic_string@DU?$char_traits@D@std@@V?$allocator@D@2@@std@@@2@V?$allocator@U?$pair@$$CBV?$basic_string@DU?$char_traits@D@std@@V?$allocator@D@2@@std@@VError@BWAPI@@@std@@@2@$0A@@std@@@2@@Z 0042cc60 f i BWAPI:Error.obj
 0001:0002bc60       ?_Rrotate@?$_Tree@V?$_Tmap_traits@V?$basic_string@DU?$char_traits@D@std@@V?$allocator@D@2@@std@@VTechType@BWAPI@@U?$less@V?$basic_string@DU?$char_traits@D@std@@V?$allocator@D@2@@std@@@2@V?$allocator@U?$pair@$$CBV?$basic_string@DU?$char_traits@D@std@@V?$allocator@D@2@@std@@VTechType@BWAPI@@@std@@@2@$0A@@std@@@std@@IAEXPAU_Node@?$_Tree_nod@V?$_Tmap_traits@V?$basic_string@DU?$char_traits@D@std@@V?$allocator@D@2@@std@@VTechType@BWAPI@@U?$less@V?$basic_string@DU?$char_traits@D@std@@V?$allocator@D@2@@std@@@2@V?$allocator@U?$pair@$$CBV?$basic_string@DU?$char_traits@D@std@@V?$allocator@D@2@@std@@VTechType@BWAPI@@@std@@@2@$0A@@std@@@2@@Z 0042cc60 f i BWAPI:TechType.obj
 0001:0002bc60       ?_Rrotate@?$_Tree@V?$_Tmap_traits@V?$basic_string@DU?$char_traits@D@std@@V?$allocator@D@2@@std@@VUnitType@BWAPI@@U?$less@V?$basic_string@DU?$char_traits@D@std@@V?$allocator@D@2@@std@@@2@V?$allocator@U?$pair@$$CBV?$basic_string@DU?$char_traits@D@std@@V?$allocator@D@2@@std@@VUnitType@BWAPI@@@std@@@2@$0A@@std@@@std@@IAEXPAU_Node@?$_Tree_nod@V?$_Tmap_traits@V?$basic_string@DU?$char_traits@D@std@@V?$allocator@D@2@@std@@VUnitType@BWAPI@@U?$less@V?$basic_string@DU?$char_traits@D@std@@V?$allocator@D@2@@std@@@2@V?$allocator@U?$pair@$$CBV?$basic_string@DU?$char_traits@D@std@@V?$allocator@D@2@@std@@VUnitType@BWAPI@@@std@@@2@$0A@@std@@@2@@Z 0042cc60 f i BWAPI:UnitType.obj
 0001:0002bc60       ?_Rrotate@?$_Tree@V?$_Tmap_traits@V?$basic_string@DU?$char_traits@D@std@@V?$allocator@D@2@@std@@VExplosionType@BWAPI@@U?$less@V?$basic_string@DU?$char_traits@D@std@@V?$allocator@D@2@@std@@@2@V?$allocator@U?$pair@$$CBV?$basic_string@DU?$char_traits@D@std@@V?$allocator@D@2@@std@@VExplosionType@BWAPI@@@std@@@2@$0A@@std@@@std@@IAEXPAU_Node@?$_Tree_nod@V?$_Tmap_traits@V?$basic_string@DU?$char_traits@D@std@@V?$allocator@D@2@@std@@VExplosionType@BWAPI@@U?$less@V?$basic_string@DU?$char_traits@D@std@@V?$allocator@D@2@@std@@@2@V?$allocator@U?$pair@$$CBV?$basic_string@DU?$char_traits@D@std@@V?$allocator@D@2@@std@@VExplosionType@BWAPI@@@std@@@2@$0A@@std@@@2@@Z 0042cc60 f i BWAPI:ExplosionType.obj
 0001:0002bc60       ?_Rrotate@?$_Tree@V?$_Tmap_traits@V?$basic_string@DU?$char_traits@D@std@@V?$allocator@D@2@@std@@VUnitCommandType@BWAPI@@U?$less@V?$basic_string@DU?$char_traits@D@std@@V?$allocator@D@2@@std@@@2@V?$allocator@U?$pair@$$CBV?$basic_string@DU?$char_traits@D@std@@V?$allocator@D@2@@std@@VUnitCommandType@BWAPI@@@std@@@2@$0A@@std@@@std@@IAEXPAU_Node@?$_Tree_nod@V?$_Tmap_traits@V?$basic_string@DU?$char_traits@D@std@@V?$allocator@D@2@@std@@VUnitCommandType@BWAPI@@U?$less@V?$basic_string@DU?$char_traits@D@std@@V?$allocator@D@2@@std@@@2@V?$allocator@U?$pair@$$CBV?$basic_string@DU?$char_traits@D@std@@V?$allocator@D@2@@std@@VUnitCommandType@BWAPI@@@std@@@2@$0A@@std@@@2@@Z 0042cc60 f i BWAPI:UnitCommandType.obj
 0001:0002bcc0       ?_Dec@const_iterator@?$_Tree@V?$_Tset_traits@VBulletType@BWAPI@@U?$less@VBulletType@BWAPI@@@std@@V?$allocator@VBulletType@BWAPI@@@4@$0A@@std@@@std@@QAEXXZ 0042ccc0 f i BWAPI:BulletType.obj
 0001:0002bcc0       ?_Dec@const_iterator@?$_Tree@V?$_Tset_traits@VUnitType@BWAPI@@U?$less@VUnitType@BWAPI@@@std@@V?$allocator@VUnitType@BWAPI@@@4@$0A@@std@@@std@@QAEXXZ 0042ccc0 f i BWAPI:UnitType.obj
 0001:0002bcc0       ?_Dec@const_iterator@?$_Tree@V?$_Tset_traits@VUnitSizeType@BWAPI@@U?$less@VUnitSizeType@BWAPI@@@std@@V?$allocator@VUnitSizeType@BWAPI@@@4@$0A@@std@@@std@@QAEXXZ 0042ccc0 f i BWAPI:UnitSizeType.obj
 0001:0002bcc0       ?_Dec@const_iterator@?$_Tree@V?$_Tset_traits@VUpgradeType@BWAPI@@U?$less@VUpgradeType@BWAPI@@@std@@V?$allocator@VUpgradeType@BWAPI@@@4@$0A@@std@@@std@@QAEXXZ 0042ccc0 f i BWAPI:UnitType.obj
 0001:0002bcc0       ?_Dec@const_iterator@?$_Tree@V?$_Tset_traits@VExplosionType@BWAPI@@U?$less@VExplosionType@BWAPI@@@std@@V?$allocator@VExplosionType@BWAPI@@@4@$0A@@std@@@std@@QAEXXZ 0042ccc0 f i BWAPI:ExplosionType.obj
 0001:0002bcc0       ?_Dec@const_iterator@?$_Tree@V?$_Tset_traits@VWeaponType@BWAPI@@U?$less@VWeaponType@BWAPI@@@std@@V?$allocator@VWeaponType@BWAPI@@@4@$0A@@std@@@std@@QAEXXZ 0042ccc0 f i BWAPI:WeaponType.obj
 0001:0002bcc0       ?_Dec@const_iterator@?$_Tree@V?$_Tset_traits@VPlayerType@BWAPI@@U?$less@VPlayerType@BWAPI@@@std@@V?$allocator@VPlayerType@BWAPI@@@4@$0A@@std@@@std@@QAEXXZ 0042ccc0 f i BWAPI:PlayerType.obj
 0001:0002bcc0       ?_Dec@const_iterator@?$_Tree@V?$_Tset_traits@VOrder@BWAPI@@U?$less@VOrder@BWAPI@@@std@@V?$allocator@VOrder@BWAPI@@@4@$0A@@std@@@std@@QAEXXZ 0042ccc0 f i BWAPI:Order.obj
 0001:0002bcc0       ?_Dec@const_iterator@?$_Tree@V?$_Tset_traits@VUnitCommandType@BWAPI@@U?$less@VUnitCommandType@BWAPI@@@std@@V?$allocator@VUnitCommandType@BWAPI@@@4@$0A@@std@@@std@@QAEXXZ 0042ccc0 f i BWAPI:UnitCommandType.obj
 0001:0002bcc0       ?_Dec@const_iterator@?$_Tree@V?$_Tset_traits@VTechType@BWAPI@@U?$less@VTechType@BWAPI@@@std@@V?$allocator@VTechType@BWAPI@@@4@$0A@@std@@@std@@QAEXXZ 0042ccc0 f i BWAPI:UnitType.obj
 0001:0002bcc0       ?_Dec@const_iterator@?$_Tree@V?$_Tset_traits@VError@BWAPI@@U?$less@VError@BWAPI@@@std@@V?$allocator@VError@BWAPI@@@4@$0A@@std@@@std@@QAEXXZ 0042ccc0 f i BWAPI:Error.obj
 0001:0002bcc0       ?_Dec@const_iterator@?$_Tree@V?$_Tset_traits@VDamageType@BWAPI@@U?$less@VDamageType@BWAPI@@@std@@V?$allocator@VDamageType@BWAPI@@@4@$0A@@std@@@std@@QAEXXZ 0042ccc0 f i BWAPI:DamageType.obj
 0001:0002bcc0       ?_Dec@const_iterator@?$_Tree@V?$_Tset_traits@VGameType@BWAPI@@U?$less@VGameType@BWAPI@@@std@@V?$allocator@VGameType@BWAPI@@@4@$0A@@std@@@std@@QAEXXZ 0042ccc0 f i BWAPI:GameType.obj
 0001:0002bcc0       ?_Dec@const_iterator@?$_Tree@V?$_Tset_traits@VRace@BWAPI@@U?$less@VRace@BWAPI@@@std@@V?$allocator@VRace@BWAPI@@@4@$0A@@std@@@std@@QAEXXZ 0042ccc0 f i BWAPI:Race.obj
 0001:0002bd50       ?init@PlayerTypes@BWAPI@@YAXXZ 0042cd50 f   BWAPI:PlayerType.obj
 0001:0002c150       ??0ExplosionType@BWAPI@@QAE@XZ 0042d150 f   BWAPI:ExplosionType.obj
 0001:0002c160       ?init@ExplosionTypes@BWAPI@@YAXXZ 0042d160 f   BWAPI:ExplosionType.obj
 0001:0002c880       ??0DamageType@BWAPI@@QAE@XZ 0042d880 f   BWAPI:DamageType.obj
 0001:0002c890       ??$make_pair@V?$basic_string@DU?$char_traits@D@std@@V?$allocator@D@2@@std@@VUpgradeType@BWAPI@@@std@@YA?AU?$pair@V?$basic_string@DU?$char_traits@D@std@@V?$allocator@D@2@@std@@VUpgradeType@BWAPI@@@0@V?$basic_string@DU?$char_traits@D@std@@V?$allocator@D@2@@0@VUpgradeType@BWAPI@@@Z 0042d890 f i BWAPI:UpgradeType.obj
 0001:0002c890       ??$make_pair@V?$basic_string@DU?$char_traits@D@std@@V?$allocator@D@2@@std@@VWeaponType@BWAPI@@@std@@YA?AU?$pair@V?$basic_string@DU?$char_traits@D@std@@V?$allocator@D@2@@std@@VWeaponType@BWAPI@@@0@V?$basic_string@DU?$char_traits@D@std@@V?$allocator@D@2@@0@VWeaponType@BWAPI@@@Z 0042d890 f i BWAPI:WeaponType.obj
 0001:0002c890       ??$make_pair@V?$basic_string@DU?$char_traits@D@std@@V?$allocator@D@2@@std@@VUnitType@BWAPI@@@std@@YA?AU?$pair@V?$basic_string@DU?$char_traits@D@std@@V?$allocator@D@2@@std@@VUnitType@BWAPI@@@0@V?$basic_string@DU?$char_traits@D@std@@V?$allocator@D@2@@0@VUnitType@BWAPI@@@Z 0042d890 f i BWAPI:UnitType.obj
 0001:0002c890       ??$make_pair@V?$basic_string@DU?$char_traits@D@std@@V?$allocator@D@2@@std@@VError@BWAPI@@@std@@YA?AU?$pair@V?$basic_string@DU?$char_traits@D@std@@V?$allocator@D@2@@std@@VError@BWAPI@@@0@V?$basic_string@DU?$char_traits@D@std@@V?$allocator@D@2@@0@VError@BWAPI@@@Z 0042d890 f i BWAPI:Error.obj
 0001:0002c890       ??$make_pair@V?$basic_string@DU?$char_traits@D@std@@V?$allocator@D@2@@std@@VBulletType@BWAPI@@@std@@YA?AU?$pair@V?$basic_string@DU?$char_traits@D@std@@V?$allocator@D@2@@std@@VBulletType@BWAPI@@@0@V?$basic_string@DU?$char_traits@D@std@@V?$allocator@D@2@@0@VBulletType@BWAPI@@@Z 0042d890 f i BWAPI:BulletType.obj
 0001:0002c890       ??$make_pair@V?$basic_string@DU?$char_traits@D@std@@V?$allocator@D@2@@std@@VExplosionType@BWAPI@@@std@@YA?AU?$pair@V?$basic_string@DU?$char_traits@D@std@@V?$allocator@D@2@@std@@VExplosionType@BWAPI@@@0@V?$basic_string@DU?$char_traits@D@std@@V?$allocator@D@2@@0@VExplosionType@BWAPI@@@Z 0042d890 f i BWAPI:ExplosionType.obj
 0001:0002c890       ??$make_pair@V?$basic_string@DU?$char_traits@D@std@@V?$allocator@D@2@@std@@VUnitCommandType@BWAPI@@@std@@YA?AU?$pair@V?$basic_string@DU?$char_traits@D@std@@V?$allocator@D@2@@std@@VUnitCommandType@BWAPI@@@0@V?$basic_string@DU?$char_traits@D@std@@V?$allocator@D@2@@0@VUnitCommandType@BWAPI@@@Z 0042d890 f i BWAPI:UnitCommandType.obj
 0001:0002c890       ??$make_pair@V?$basic_string@DU?$char_traits@D@std@@V?$allocator@D@2@@std@@VGameType@BWAPI@@@std@@YA?AU?$pair@V?$basic_string@DU?$char_traits@D@std@@V?$allocator@D@2@@std@@VGameType@BWAPI@@@0@V?$basic_string@DU?$char_traits@D@std@@V?$allocator@D@2@@0@VGameType@BWAPI@@@Z 0042d890 f i BWAPI:GameType.obj
 0001:0002c890       ??$make_pair@V?$basic_string@DU?$char_traits@D@std@@V?$allocator@D@2@@std@@VOrder@BWAPI@@@std@@YA?AU?$pair@V?$basic_string@DU?$char_traits@D@std@@V?$allocator@D@2@@std@@VOrder@BWAPI@@@0@V?$basic_string@DU?$char_traits@D@std@@V?$allocator@D@2@@0@VOrder@BWAPI@@@Z 0042d890 f i BWAPI:Order.obj
 0001:0002c890       ??$make_pair@V?$basic_string@DU?$char_traits@D@std@@V?$allocator@D@2@@std@@VRace@BWAPI@@@std@@YA?AU?$pair@V?$basic_string@DU?$char_traits@D@std@@V?$allocator@D@2@@std@@VRace@BWAPI@@@0@V?$basic_string@DU?$char_traits@D@std@@V?$allocator@D@2@@0@VRace@BWAPI@@@Z 0042d890 f i BWAPI:Race.obj
 0001:0002c890       ??$make_pair@V?$basic_string@DU?$char_traits@D@std@@V?$allocator@D@2@@std@@VTechType@BWAPI@@@std@@YA?AU?$pair@V?$basic_string@DU?$char_traits@D@std@@V?$allocator@D@2@@std@@VTechType@BWAPI@@@0@V?$basic_string@DU?$char_traits@D@std@@V?$allocator@D@2@@0@VTechType@BWAPI@@@Z 0042d890 f i BWAPI:TechType.obj
 0001:0002c890       ??$make_pair@V?$basic_string@DU?$char_traits@D@std@@V?$allocator@D@2@@std@@VPlayerType@BWAPI@@@std@@YA?AU?$pair@V?$basic_string@DU?$char_traits@D@std@@V?$allocator@D@2@@std@@VPlayerType@BWAPI@@@0@V?$basic_string@DU?$char_traits@D@std@@V?$allocator@D@2@@0@VPlayerType@BWAPI@@@Z 0042d890 f i BWAPI:PlayerType.obj
 0001:0002c890       ??$make_pair@V?$basic_string@DU?$char_traits@D@std@@V?$allocator@D@2@@std@@VUnitSizeType@BWAPI@@@std@@YA?AU?$pair@V?$basic_string@DU?$char_traits@D@std@@V?$allocator@D@2@@std@@VUnitSizeType@BWAPI@@@0@V?$basic_string@DU?$char_traits@D@std@@V?$allocator@D@2@@0@VUnitSizeType@BWAPI@@@Z 0042d890 f i BWAPI:UnitSizeType.obj
 0001:0002c890       ??$make_pair@V?$basic_string@DU?$char_traits@D@std@@V?$allocator@D@2@@std@@VDamageType@BWAPI@@@std@@YA?AU?$pair@V?$basic_string@DU?$char_traits@D@std@@V?$allocator@D@2@@std@@VDamageType@BWAPI@@@0@V?$basic_string@DU?$char_traits@D@std@@V?$allocator@D@2@@0@VDamageType@BWAPI@@@Z 0042d890 f i BWAPI:DamageType.obj
 0001:0002c900       ?init@DamageTypes@BWAPI@@YAXXZ 0042d900 f   BWAPI:DamageType.obj
 0001:0002cc17       @__security_check_cookie@4 0042dc17 f   MSVCRT:secchk.obj
 0001:0002cc26       ?what@exception@std@@UBEPBDXZ 0042dc26 f   MSVCRT:MSVCR90.dll
 0001:0002cc2c       ??0exception@std@@QAE@ABV01@@Z 0042dc2c f   MSVCRT:MSVCR90.dll
 0001:0002cc32       __onexit                   0042dc32 f   MSVCRT:atonexit.obj
 0001:0002ccd7       _atexit                    0042dcd7 f   MSVCRT:atonexit.obj
 0001:0002ccee       ??3@YAXPAX@Z               0042dcee f   MSVCRT:MSVCR90.dll
 0001:0002ccf4       ??_Etype_info@@UAEPAXI@Z   0042dcf4 f i MSVCRT:ti_inst.obj
 0001:0002cd40       ??2@YAPAXI@Z               0042dd40 f   MSVCRT:MSVCR90.dll
 0001:0002cd46       ?__ArrayUnwind@@YGXPAXIHP6EX0@Z@Z 0042dd46 f   MSVCRT:ehvecdtr.obj
 0001:0002cda4       ??_M@YGXPAXIHP6EX0@Z@Z     0042dda4 f   MSVCRT:ehvecdtr.obj
 0001:0002ce07       ??_L@YGXPAXIHP6EX0@Z1@Z    0042de07 f   MSVCRT:ehvecctr.obj
 0001:0002d10e       _mainCRTStartup            0042e10e f   MSVCRT:crtexe.obj
 0001:0002d118       ___CxxFrameHandler3        0042e118 f   MSVCRT:MSVCR90.dll
 0001:0002d11e       __CxxThrowException@8      0042e11e f   MSVCRT:MSVCR90.dll
 0001:0002d130       ___report_gsfailure        0042e130 f   MSVCRT:gs_report.obj
 0001:0002d236       __unlock                   0042e236 f   MSVCRT:MSVCR90.dll
 0001:0002d23c       ___dllonexit               0042e23c f   MSVCRT:MSVCR90.dll
 0001:0002d242       __lock                     0042e242 f   MSVCRT:MSVCR90.dll
 0001:0002d248       __SEH_prolog4              0042e248 f   MSVCRT:sehprolg4.obj
 0001:0002d28d       __SEH_epilog4              0042e28d f   MSVCRT:sehprolg4.obj
 0001:0002d2a1       __except_handler4          0042e2a1 f   MSVCRT:chandler4gs.obj
 0001:0002d2c6       ?terminate@@YAXXZ          0042e2c6 f   MSVCRT:MSVCR90.dll
 0001:0002d2cc       ?__CxxUnhandledExceptionFilter@@YGJPAU_EXCEPTION_POINTERS@@@Z 0042e2cc f   MSVCRT:unhandld.obj
 0001:0002d30e       ___CxxSetUnhandledExceptionFilter 0042e30e f   MSVCRT:unhandld.obj
 0001:0002d31c       __amsg_exit                0042e31c f   MSVCRT:MSVCR90.dll
 0001:0002d322       __RTC_Initialize           0042e322 f   MSVCRT:_initsect_.obj
 0001:0002d348       __RTC_Terminate            0042e348 f   MSVCRT:_initsect_.obj
 0001:0002d36e       __XcptFilter               0042e36e f   MSVCRT:MSVCR90.dll
 0001:0002d380       __ValidateImageBase        0042e380 f   MSVCRT:pesect.obj
 0001:0002d3c0       __FindPESection            0042e3c0 f   MSVCRT:pesect.obj
 0001:0002d410       __IsNonwritableInCurrentImage 0042e410 f   MSVCRT:pesect.obj
 0001:0002d4ce       __initterm                 0042e4ce f   MSVCRT:MSVCR90.dll
 0001:0002d4d4       __initterm_e               0042e4d4 f   MSVCRT:MSVCR90.dll
 0001:0002d4da       __setdefaultprecision      0042e4da f   MSVCRT:fp8.obj
 0001:0002d505       __setargv                  0042e505 f   MSVCRT:dllargv.obj
 0001:0002d505       __matherr                  0042e505 f   MSVCRT:merr.obj
 0001:0002d508       ___security_init_cookie    0042e508 f   MSVCRT:gs_support.obj
 0001:0002d59e       __crt_debugger_hook        0042e59e f   MSVCRT:MSVCR90.dll
 0001:0002d5a4       __except_handler4_common   0042e5a4 f   MSVCRT:MSVCR90.dll
 0001:0002d5aa       ??1type_info@@UAE@XZ       0042e5aa f   MSVCRT:MSVCR90.dll
 0001:0002d5aa       ?_type_info_dtor_internal_method@type_info@@QAEXXZ 0042e5aa f   MSVCRT:MSVCR90.dll
 0001:0002d5b0       __invoke_watson            0042e5b0 f   MSVCRT:MSVCR90.dll
 0001:0002d5b6       __controlfp_s              0042e5b6 f   MSVCRT:MSVCR90.dll
 0001:0002d5bc       _memset                    0042e5bc f   MSVCRT:MSVCR90.dll
 0001:0002d5d0       __ftol2_sse                0042e5d0 f   MSVCRT:ftol2.obj
 0001:0002d5d9       __ftol2_pentium4           0042e5d9 f   MSVCRT:ftol2.obj
 0001:0002d5ec       __ftol2_sse_excpt          0042e5ec f   MSVCRT:ftol2.obj
 0001:0002d606       __ftol2                    0042e606 f   MSVCRT:ftol2.obj
 0001:0002d680       __aullrem                  0042e680 f   MSVCRT:ullrem.obj
 0001:0002d700       __chkstk                   0042e700 f   MSVCRT:chkstk.obj
 0001:0002d700       __alloca_probe             0042e700     MSVCRT:chkstk.obj
 0001:0002d77b       __get_sse2_info            0042e77b f   MSVCRT:cpu_disp.obj
 0001:0002d7dd       ___sse2_available_init     0042e7dd f   MSVCRT:cpu_disp.obj
 0002:00000000       __imp__QueryPerformanceCounter@4 0043c000     kernel32:KERNEL32.dll
 0002:00000004       __imp__QueryPerformanceFrequency@4 0043c004     kernel32:KERNEL32.dll
 0002:00000008       __imp__GetCurrentProcessId@0 0043c008     kernel32:KERNEL32.dll
 0002:0000000c       __imp__GetCurrentThreadId@0 0043c00c     kernel32:KERNEL32.dll
 0002:00000010       __imp__GetTickCount@0      0043c010     kernel32:KERNEL32.dll
 0002:00000014       __imp__IsDebuggerPresent@0 0043c014     kernel32:KERNEL32.dll
 0002:00000018       __imp__SetUnhandledExceptionFilter@4 0043c018     kernel32:KERNEL32.dll
 0002:0000001c       __imp__UnhandledExceptionFilter@4 0043c01c     kernel32:KERNEL32.dll
 0002:00000020       __imp__GetCurrentProcess@0 0043c020     kernel32:KERNEL32.dll
 0002:00000024       __imp__TerminateProcess@8  0043c024     kernel32:KERNEL32.dll
 0002:00000028       __imp__InterlockedCompareExchange@12 0043c028     kernel32:KERNEL32.dll
 0002:0000002c       __imp__Sleep@4             0043c02c     kernel32:KERNEL32.dll
 0002:00000030       __imp__InterlockedExchange@8 0043c030     kernel32:KERNEL32.dll
 0002:00000034       __imp__GetSystemTimeAsFileTime@4 0043c034     kernel32:KERNEL32.dll
 0002:00000038       \177KERNEL32_NULL_THUNK_DATA 0043c038     kernel32:KERNEL32.dll
 0002:0000003c       __imp_?_Unlock@?$basic_streambuf@DU?$char_traits@D@std@@@std@@QAEXXZ 0043c03c     msvcprt:MSVCP90.dll
 0002:00000040       __imp_?sputc@?$basic_streambuf@DU?$char_traits@D@std@@@std@@QAEHD@Z 0043c040     msvcprt:MSVCP90.dll
 0002:00000044       __imp_?str@?$basic_stringstream@DU?$char_traits@D@std@@V?$allocator@D@2@@std@@QBE?AV?$basic_string@DU?$char_traits@D@std@@V?$allocator@D@2@@2@XZ 0043c044     msvcprt:MSVCP90.dll
 0002:00000048       __imp_??0?$basic_stringstream@DU?$char_traits@D@std@@V?$allocator@D@2@@std@@QAE@ABV?$basic_string@DU?$char_traits@D@std@@V?$allocator@D@2@@1@H@Z 0043c048     msvcprt:MSVCP90.dll
 0002:0000004c       __imp_?flush@?$basic_ostream@DU?$char_traits@D@std@@@std@@QAEAAV12@XZ 0043c04c     msvcprt:MSVCP90.dll
 0002:00000050       __imp_??6?$basic_ostream@DU?$char_traits@D@std@@@std@@QAEAAV01@P6AAAV01@AAV01@@Z@Z 0043c050     msvcprt:MSVCP90.dll
 0002:00000054       __imp_?setstate@?$basic_ios@DU?$char_traits@D@std@@@std@@QAEXH_N@Z 0043c054     msvcprt:MSVCP90.dll
 0002:00000058       __imp_??4?$basic_string@DU?$char_traits@D@std@@V?$allocator@D@2@@std@@QAEAAV01@ABV01@@Z 0043c058     msvcprt:MSVCP90.dll
 0002:0000005c       __imp_??_D?$basic_stringstream@DU?$char_traits@D@std@@V?$allocator@D@2@@std@@QAEXXZ 0043c05c     msvcprt:MSVCP90.dll
 0002:00000060       __imp_?endl@std@@YAAAV?$basic_ostream@DU?$char_traits@D@std@@@1@AAV21@@Z 0043c060     msvcprt:MSVCP90.dll
 0002:00000064       __imp_??4?$basic_string@DU?$char_traits@D@std@@V?$allocator@D@2@@std@@QAEAAV01@PBD@Z 0043c064     msvcprt:MSVCP90.dll
 0002:00000068       __imp_??0?$basic_string@DU?$char_traits@D@std@@V?$allocator@D@2@@std@@QAE@XZ 0043c068     msvcprt:MSVCP90.dll
 0002:0000006c       __imp_??$?MDU?$char_traits@D@std@@V?$allocator@D@1@@std@@YA_NABV?$basic_string@DU?$char_traits@D@std@@V?$allocator@D@2@@0@0@Z 0043c06c     msvcprt:MSVCP90.dll
 0002:00000070       __imp_??1?$basic_string@DU?$char_traits@D@std@@V?$allocator@D@2@@std@@QAE@XZ 0043c070     msvcprt:MSVCP90.dll
 0002:00000074       __imp_??0?$basic_string@DU?$char_traits@D@std@@V?$allocator@D@2@@std@@QAE@ABV01@@Z 0043c074     msvcprt:MSVCP90.dll
 0002:00000078       __imp_??0?$basic_string@DU?$char_traits@D@std@@V?$allocator@D@2@@std@@QAE@PBD@Z 0043c078     msvcprt:MSVCP90.dll
 0002:0000007c       __imp_??$?6DU?$char_traits@D@std@@V?$allocator@D@1@@std@@YAAAV?$basic_ostream@DU?$char_traits@D@std@@@0@AAV10@ABV?$basic_string@DU?$char_traits@D@std@@V?$allocator@D@2@@0@@Z 0043c07c     msvcprt:MSVCP90.dll
 0002:00000080       __imp_?cout@std@@3V?$basic_ostream@DU?$char_traits@D@std@@@1@A 0043c080     msvcprt:MSVCP90.dll
 0002:00000084       __imp_?uncaught_exception@std@@YA_NXZ 0043c084     msvcprt:MSVCP90.dll
 0002:00000088       __imp_?sputn@?$basic_streambuf@DU?$char_traits@D@std@@@std@@QAEHPBDH@Z 0043c088     msvcprt:MSVCP90.dll
 0002:0000008c       __imp_?_Lock@?$basic_streambuf@DU?$char_traits@D@std@@@std@@QAEXXZ 0043c08c     msvcprt:MSVCP90.dll
 0002:00000090       __imp_?_Osfx@?$basic_ostream@DU?$char_traits@D@std@@@std@@QAEXXZ 0043c090     msvcprt:MSVCP90.dll
 0002:00000094       \177MSVCP90_NULL_THUNK_DATA 0043c094     msvcprt:MSVCP90.dll
 0002:00000098       __imp__rand                0043c098     MSVCRT:MSVCR90.dll
 0002:0000009c       __imp____CxxFrameHandler3  0043c09c     MSVCRT:MSVCR90.dll
 0002:000000a0       __imp__printf              0043c0a0     MSVCRT:MSVCR90.dll
 0002:000000a4       __imp___unlock             0043c0a4     MSVCRT:MSVCR90.dll
 0002:000000a8       __imp____dllonexit         0043c0a8     MSVCRT:MSVCR90.dll
 0002:000000ac       __imp___encode_pointer     0043c0ac     MSVCRT:MSVCR90.dll
 0002:000000b0       __imp___lock               0043c0b0     MSVCRT:MSVCR90.dll
 0002:000000b4       __imp___onexit             0043c0b4     MSVCRT:MSVCR90.dll
 0002:000000b8       __imp___decode_pointer     0043c0b8     MSVCRT:MSVCR90.dll
 0002:000000bc       __imp_?terminate@@YAXXZ    0043c0bc     MSVCRT:MSVCR90.dll
 0002:000000c0       __imp___amsg_exit          0043c0c0     MSVCRT:MSVCR90.dll
 0002:000000c4       __imp____getmainargs       0043c0c4     MSVCRT:MSVCR90.dll
 0002:000000c8       __imp___cexit              0043c0c8     MSVCRT:MSVCR90.dll
 0002:000000cc       __imp___exit               0043c0cc     MSVCRT:MSVCR90.dll
 0002:000000d0       __imp___XcptFilter         0043c0d0     MSVCRT:MSVCR90.dll
 0002:000000d4       __imp__exit                0043c0d4     MSVCRT:MSVCR90.dll
 0002:000000d8       __imp____initenv           0043c0d8     MSVCRT:MSVCR90.dll
 0002:000000dc       __imp___initterm           0043c0dc     MSVCRT:MSVCR90.dll
 0002:000000e0       __imp___initterm_e         0043c0e0     MSVCRT:MSVCR90.dll
 0002:000000e4       __imp___configthreadlocale 0043c0e4     MSVCRT:MSVCR90.dll
 0002:000000e8       __imp____setusermatherr    0043c0e8     MSVCRT:MSVCR90.dll
 0002:000000ec       __imp___adjust_fdiv        0043c0ec     MSVCRT:MSVCR90.dll
 0002:000000f0       __imp____p__commode        0043c0f0     MSVCRT:MSVCR90.dll
 0002:000000f4       __imp____p__fmode          0043c0f4     MSVCRT:MSVCR90.dll
 0002:000000f8       __imp____set_app_type      0043c0f8     MSVCRT:MSVCR90.dll
 0002:000000fc       __imp___crt_debugger_hook  0043c0fc     MSVCRT:MSVCR90.dll
 0002:00000100       __imp___except_handler4_common 0043c100     MSVCRT:MSVCR90.dll
 0002:00000104       __imp_?_type_info_dtor_internal_method@type_info@@QAEXXZ 0043c104     MSVCRT:MSVCR90.dll
 0002:00000108       __imp___invoke_watson      0043c108     MSVCRT:MSVCR90.dll
 0002:0000010c       __imp___controlfp_s        0043c10c     MSVCRT:MSVCR90.dll
 0002:00000110       __imp___invalid_parameter_noinfo 0043c110     MSVCRT:MSVCR90.dll
 0002:00000114       __imp__memmove_s           0043c114     MSVCRT:MSVCR90.dll
 0002:00000118       __imp_??2@YAPAXI@Z         0043c118     MSVCRT:MSVCR90.dll
 0002:0000011c       __imp_??3@YAXPAX@Z         0043c11c     MSVCRT:MSVCR90.dll
 0002:00000120       __imp_??0exception@std@@QAE@ABV01@@Z 0043c120     MSVCRT:MSVCR90.dll
 0002:00000124       __imp_??0exception@std@@QAE@ABQBD@Z 0043c124     MSVCRT:MSVCR90.dll
 0002:00000128       __imp_??0exception@std@@QAE@XZ 0043c128     MSVCRT:MSVCR90.dll
 0002:0000012c       __imp_??1exception@std@@UAE@XZ 0043c12c     MSVCRT:MSVCR90.dll
 0002:00000130       __imp_?what@exception@std@@UBEPBDXZ 0043c130     MSVCRT:MSVCR90.dll
 0002:00000134       __imp___CxxThrowException@8 0043c134     MSVCRT:MSVCR90.dll
 0002:00000138       __imp__ceil                0043c138     MSVCRT:MSVCR90.dll
 0002:0000013c       __imp__memset              0043c13c     MSVCRT:MSVCR90.dll
 0002:00000140       \177MSVCR90_NULL_THUNK_DATA 0043c140     MSVCRT:MSVCR90.dll
 0002:00000144       ___xc_a                    0043c144     MSVCRT:cinitexe.obj
 0002:00000dc4       ___xc_z                    0043cdc4     MSVCRT:cinitexe.obj
 0002:00000dc8       ___xi_a                    0043cdc8     MSVCRT:cinitexe.obj
 0002:00000dd8       ___xi_z                    0043cdd8     MSVCRT:cinitexe.obj
 0002:00000dfc       ??_C@_0BE@JONHPENG@map?1set?$DMT?$DO?5too?5long?$AA@ 0043cdfc     BWAPI:Race.obj
 0002:00000e10       ??_C@_07NBCGADJA@Unknown?$AA@ 0043ce10     BWAPI:Race.obj
 0002:00000e18       ??_C@_04OHJIHAFH@None?$AA@ 0043ce18     BWAPI:Race.obj
 0002:00000e20       ??_C@_05BBOGGNLJ@Other?$AA@ 0043ce20     BWAPI:Race.obj
 0002:00000e28       ??_C@_06BEOPDEGP@Random?$AA@ 0043ce28     BWAPI:Race.obj
 0002:00000e30       ??_C@_07HABMPCLL@Protoss?$AA@ 0043ce30     BWAPI:Race.obj
 0002:00000e38       ??_C@_06BNHPEPEK@Terran?$AA@ 0043ce38     BWAPI:Race.obj
 0002:00000e40       ??_C@_04DKEPJJOH@Zerg?$AA@ 0043ce40     BWAPI:Race.obj
 0002:00000e48       ??_C@_09PEBKLDLO@Factories?$AA@ 0043ce48     BWAPI:UnitType.obj
 0002:00000e54       ??_C@_09CKIIHEFP@Buildings?$AA@ 0043ce54     BWAPI:UnitType.obj
 0002:00000e60       ??_C@_03CKHOPOB@Men?$AA@   0043ce60     BWAPI:UnitType.obj
 0002:00000e64       ??_C@_09PECGAHJH@All?5Units?$AA@ 0043ce64     BWAPI:UnitType.obj
 0002:00000e70       ??_C@_0BH@PKJAJJCD@Special?5Start?5Location?$AA@ 0043ce70     BWAPI:UnitType.obj
 0002:00000e88       ??_C@_0BE@JIELLDNE@Special?5Floor?5Hatch?$AA@ 0043ce88     BWAPI:UnitType.obj
 0002:00000e9c       ??_C@_0BH@FMDCKNNA@Special?5Right?5Pit?5Door?$AA@ 0043ce9c     BWAPI:UnitType.obj
 0002:00000eb4       ??_C@_0BB@GMDFDJGP@Special?5Pit?5Door?$AA@ 0043ceb4     BWAPI:UnitType.obj
 0002:00000ec8       ??_C@_0BP@OLHPLAEL@Special?5Right?5Upper?5Level?5Door?$AA@ 0043cec8     BWAPI:UnitType.obj
 0002:00000ee8       ??_C@_0BJ@EDAKKOFB@Special?5Upper?5Level?5Door?$AA@ 0043cee8     BWAPI:UnitType.obj
 0002:00000f04       ??_C@_0BO@EDGLENAA@Special?5Right?5Wall?5Flame?5Trap?$AA@ 0043cf04     BWAPI:UnitType.obj
 0002:00000f24       ??_C@_0BI@FBKKACKN@Special?5Wall?5Flame?5Trap?$AA@ 0043cf24     BWAPI:UnitType.obj
 0002:00000f3c       ??_C@_0CA@MKEMHOJE@Special?5Right?5Wall?5Missile?5Trap?$AA@ 0043cf3c     BWAPI:UnitType.obj
 0002:00000f5c       ??_C@_0BK@DHIGPCPA@Special?5Wall?5Missile?5Trap?$AA@ 0043cf5c     BWAPI:UnitType.obj
 0002:00000f78       ??_C@_0BH@KIBFGCE@Special?5Floor?5Gun?5Trap?$AA@ 0043cf78     BWAPI:UnitType.obj
 0002:00000f90       ??_C@_0BL@KFCBKJCG@Special?5Floor?5Missile?5Trap?$AA@ 0043cf90     BWAPI:UnitType.obj
 0002:00000fac       ??_C@_0BF@MPAMNNKD@Special?5Map?5Revealer?$AA@ 0043cfac     BWAPI:UnitType.obj
 0002:00000fc4       ??_C@_0BP@KPPJNAJE@Powerup?5Terran?5Gas?5Tank?5Type?52?$AA@ 0043cfc4     BWAPI:UnitType.obj
 0002:00000fe4       ??_C@_0BP@IENEIDFH@Powerup?5Terran?5Gas?5Tank?5Type?51?$AA@ 0043cfe4     BWAPI:UnitType.obj
 0002:00001004       ??_C@_0BM@GMGAJHIG@Powerup?5Zerg?5Gas?5Sac?5Type?52?$AA@ 0043d004     BWAPI:UnitType.obj
 0002:00001020       ??_C@_0BM@EHENMEEF@Powerup?5Zerg?5Gas?5Sac?5Type?51?$AA@ 0043d020     BWAPI:UnitType.obj
 0002:0000103c       ??_C@_0BP@GLOJNDID@Powerup?5Protoss?5Gas?5Orb?5Type?52?$AA@ 0043d03c     BWAPI:UnitType.obj
 0002:0000105c       ??_C@_0BP@EAMEIAEA@Powerup?5Protoss?5Gas?5Orb?5Type?51?$AA@ 0043d05c     BWAPI:UnitType.obj
 0002:0000107c       ??_C@_0BP@KIAIOPPF@Powerup?5Mineral?5Cluster?5Type?52?$AA@ 0043d07c     BWAPI:UnitType.obj
 0002:0000109c       ??_C@_0BP@IDCFLMDG@Powerup?5Mineral?5Cluster?5Type?51?$AA@ 0043d09c     BWAPI:UnitType.obj
 0002:000010bc       ??_C@_0BK@KDFFIPLG@Powerup?5Khaydarin?5Crystal?$AA@ 0043d0bc     BWAPI:UnitType.obj
 0002:000010d8       ??_C@_0BC@BFKLDBM@Powerup?5Data?5Disk?$AA@ 0043d0d8     BWAPI:UnitType.obj
 0002:000010ec       ??_C@_0BE@HNEDFDFC@Powerup?5Psi?5Emitter?$AA@ 0043d0ec     BWAPI:UnitType.obj
 0002:00001100       ??_C@_0BI@ONHIJNBP@Powerup?5Young?5Chrysalis?$AA@ 0043d100     BWAPI:UnitType.obj
 0002:00001118       ??_C@_0N@FHNLONKO@Powerup?5Flag?$AA@ 0043d118     BWAPI:UnitType.obj
 0002:00001128       ??_C@_0BH@MLHBNMFM@Powerup?5Khalis?5Crystal?$AA@ 0043d128     BWAPI:UnitType.obj
 0002:00001140       ??_C@_0BF@JOCLEANG@Powerup?5Uraj?5Crystal?$AA@ 0043d140     BWAPI:UnitType.obj
 0002:00001158       ??_C@_0BB@KKJLFDFC@Spell?5Dark?5Swarm?$AA@ 0043d158     BWAPI:UnitType.obj
 0002:0000116c       ??_C@_0BM@EKEMCHGE@Special?5Protoss?5Flag?5Beacon?$AA@ 0043d16c     BWAPI:UnitType.obj
 0002:00001188       ??_C@_0BL@IOIAIHIK@Special?5Terran?5Flag?5Beacon?$AA@ 0043d188     BWAPI:UnitType.obj
 0002:000011a4       ??_C@_0BJ@MOIBGOHL@Special?5Zerg?5Flag?5Beacon?$AA@ 0043d1a4     BWAPI:UnitType.obj
 0002:000011c0       ??_C@_0BH@ONNDDIJC@Special?5Protoss?5Beacon?$AA@ 0043d1c0     BWAPI:UnitType.obj
 0002:000011d8       ??_C@_0BG@LKIMFIIL@Special?5Terran?5Beacon?$AA@ 0043d1d8     BWAPI:UnitType.obj
 0002:000011f0       ??_C@_0BE@KBAKALDH@Special?5Zerg?5Beacon?$AA@ 0043d1f0     BWAPI:UnitType.obj
 0002:00001204       ??_C@_0BI@IBNGKEFM@Special?5Overmind?5Cocoon?$AA@ 0043d204     BWAPI:UnitType.obj
 0002:0000121c       ??_C@_0BI@NGIEFHLK@Special?5Power?5Generator?$AA@ 0043d21c     BWAPI:UnitType.obj
 0002:00001234       ??_C@_0BG@CMDNHMKO@Special?5Psi?5Disrupter?$AA@ 0043d234     BWAPI:UnitType.obj
 0002:0000124c       ??_C@_0BC@PPNDKNEL@Special?5Warp?5Gate?$AA@ 0043d24c     BWAPI:UnitType.obj
 0002:00001260       ??_C@_0BI@EJFFMIML@Resource?5Vespene?5Geyser?$AA@ 0043d260     BWAPI:UnitType.obj
 0002:00001278       ??_C@_0BN@GEOMKDBI@Special?5Independant?5Starport?$AA@ 0043d278     BWAPI:UnitType.obj
 0002:00001298       ??_C@_0BO@KOJBAOJP@Resource?5Mineral?5Field?5Type?53?$AA@ 0043d298     BWAPI:UnitType.obj
 0002:000012b8       ??_C@_0BO@LHIKDPNO@Resource?5Mineral?5Field?5Type?52?$AA@ 0043d2b8     BWAPI:UnitType.obj
 0002:000012d8       ??_C@_0BH@GDCEOBPD@Resource?5Mineral?5Field?$AA@ 0043d2d8     BWAPI:UnitType.obj
 0002:000012f0       ??_C@_0BH@POBEGLGH@Special?5XelNaga?5Temple?$AA@ 0043d2f0     BWAPI:UnitType.obj
 0002:00001308       ??_C@_0BH@IPDDODIE@Special?5Protoss?5Temple?$AA@ 0043d308     BWAPI:UnitType.obj
 0002:00001320       ??_C@_0BP@HKHCFOCF@Special?5Khaydarin?5Crystal?5Form?$AA@ 0043d320     BWAPI:UnitType.obj
 0002:00001340       ??_C@_0BH@KPECIODD@Protoss?5Shield?5Battery?$AA@ 0043d340     BWAPI:UnitType.obj
 0002:00001358       ??_C@_0BN@IIFAAHBJ@Protoss?5Robotics?5Support?5Bay?$AA@ 0043d358     BWAPI:UnitType.obj
 0002:00001378       ??_C@_0BJ@BNIECANI@Protoss?5Arbiter?5Tribunal?$AA@ 0043d378     BWAPI:UnitType.obj
 0002:00001394       ??_C@_0BF@LLHAPAPP@Protoss?5Fleet?5Beacon?$AA@ 0043d394     BWAPI:UnitType.obj
 0002:000013ac       ??_C@_0BL@OLJDMKIC@Special?5Stasis?5Cell?5Prison?$AA@ 0043d3ac     BWAPI:UnitType.obj
 0002:000013c8       ??_C@_0BB@HIGKNIML@Protoss?5Stargate?$AA@ 0043d3c8     BWAPI:UnitType.obj
 0002:000013dc       ??_C@_0O@JFDNHKNN@Protoss?5Forge?$AA@ 0043d3dc     BWAPI:UnitType.obj
 0002:000013ec       ??_C@_0BJ@INJJAFBM@Protoss?5Templar?5Archives?$AA@ 0043d3ec     BWAPI:UnitType.obj
 0002:00001408       ??_C@_0BJ@OIPNHENC@Protoss?5Cybernetics?5Core?$AA@ 0043d408     BWAPI:UnitType.obj
 0002:00001424       ??_C@_0BI@BEAOMID@Protoss?5Citadel?5of?5Adun?$AA@ 0043d424     BWAPI:UnitType.obj
 0002:0000143c       ??_C@_0BG@LLBCPHHL@Protoss?5Photon?5Cannon?$AA@ 0043d43c     BWAPI:UnitType.obj
 0002:00001454       ??_C@_0BA@PJLCIBEP@Protoss?5Gateway?$AA@ 0043d454     BWAPI:UnitType.obj
 0002:00001464       ??_C@_0BE@IPKDEHNB@Protoss?5Observatory?$AA@ 0043d464     BWAPI:UnitType.obj
 0002:00001478       ??_C@_0BE@LPFPIBCK@Protoss?5Assimilator?$AA@ 0043d478     BWAPI:UnitType.obj
 0002:0000148c       ??_C@_0O@PCDDFBKG@Protoss?5Pylon?$AA@ 0043d48c     BWAPI:UnitType.obj
 0002:0000149c       ??_C@_0BK@FJDLDPEJ@Protoss?5Robotics?5Facility?$AA@ 0043d49c     BWAPI:UnitType.obj
 0002:000014b8       ??_C@_0O@FPFJMCLM@Protoss?5Nexus?$AA@ 0043d4b8     BWAPI:UnitType.obj
 0002:000014c8       ??_C@_0BK@DGLPHOEB@Special?5Cerebrate?5Daggoth?$AA@ 0043d4c8     BWAPI:UnitType.obj
 0002:000014e4       ??_C@_0BC@JCMNPCCN@Special?5Cerebrate?$AA@ 0043d4e4     BWAPI:UnitType.obj
 0002:000014f8       ??_C@_0BJ@NAFBDLC@Special?5Mature?5Chrysalis?$AA@ 0043d4f8     BWAPI:UnitType.obj
 0002:00001514       ??_C@_0P@ONKMFGG@Zerg?5Extractor?$AA@ 0043d514     BWAPI:UnitType.obj
 0002:00001524       ??_C@_0BB@MONIGEIH@Special?5Overmind?$AA@ 0043d524     BWAPI:UnitType.obj
 0002:00001538       ??_C@_0BM@OELKEJJH@Special?5Overmind?5With?5Shell?$AA@ 0043d538     BWAPI:UnitType.obj
 0002:00001554       ??_C@_0BD@OCCALFKB@Zerg?5Sunken?5Colony?$AA@ 0043d554     BWAPI:UnitType.obj
 0002:00001568       ??_C@_0BC@JEPDAGNG@Zerg?5Spore?5Colony?$AA@ 0043d568     BWAPI:UnitType.obj
 0002:0000157c       ??_C@_0BC@NEFPLLI@Zerg?5Creep?5Colony?$AA@ 0043d57c     BWAPI:UnitType.obj
 0002:00001590       ??_C@_0BD@BOLLPFLM@Zerg?5Spawning?5Pool?$AA@ 0043d590     BWAPI:UnitType.obj
 0002:000015a4       ??_C@_0L@IIHIHOCJ@Zerg?5Spire?$AA@ 0043d5a4     BWAPI:UnitType.obj
 0002:000015b0       ??_C@_0BG@BMMFLHIC@Zerg?5Ultralisk?5Cavern?$AA@ 0043d5b0     BWAPI:UnitType.obj
 0002:000015c8       ??_C@_0BH@DEDIGLCN@Zerg?5Evolution?5Chamber?$AA@ 0043d5c8     BWAPI:UnitType.obj
 0002:000015e0       ??_C@_0BB@BJIEGNME@Zerg?5Queens?5Nest?$AA@ 0043d5e0     BWAPI:UnitType.obj
 0002:000015f4       ??_C@_0BD@JEJMMPAM@Zerg?5Greater?5Spire?$AA@ 0043d5f4     BWAPI:UnitType.obj
 0002:00001608       ??_C@_0BD@BFCJFIDG@Zerg?5Defiler?5Mound?$AA@ 0043d608     BWAPI:UnitType.obj
 0002:0000161c       ??_C@_0BD@KPEHFJIK@Zerg?5Hydralisk?5Den?$AA@ 0043d61c     BWAPI:UnitType.obj
 0002:00001630       ??_C@_0BB@FMNKNOHG@Zerg?5Nydus?5Canal?$AA@ 0043d630     BWAPI:UnitType.obj
 0002:00001644       ??_C@_09GFCEIEFC@Zerg?5Hive?$AA@ 0043d644     BWAPI:UnitType.obj
 0002:00001650       ??_C@_09EHOJGKKG@Zerg?5Lair?$AA@ 0043d650     BWAPI:UnitType.obj
 0002:0000165c       ??_C@_0O@NFBJKMLJ@Zerg?5Hatchery?$AA@ 0043d65c     BWAPI:UnitType.obj
 0002:0000166c       ??_C@_0BN@MODLCFJI@Zerg?5Infested?5Command?5Center?$AA@ 0043d66c     BWAPI:UnitType.obj
 0002:0000168c       ??_C@_0BD@DMNMIFOO@Special?5Ion?5Cannon?$AA@ 0043d68c     BWAPI:UnitType.obj
 0002:000016a0       ??_C@_0BJ@IAHKMGAN@Special?5Crashed?5Norad?5II?$AA@ 0043d6a0     BWAPI:UnitType.obj
 0002:000016bc       ??_C@_0O@CPLJFLDH@Terran?5Bunker?$AA@ 0043d6bc     BWAPI:UnitType.obj
 0002:000016cc       ??_C@_0BG@CGJPJEEN@Terran?5Missile?5Turret?$AA@ 0043d6cc     BWAPI:UnitType.obj
 0002:000016e4       ??_C@_0O@DBALPAKL@Terran?5Armory?$AA@ 0043d6e4     BWAPI:UnitType.obj
 0002:000016f4       ??_C@_0BH@PBECEKCF@Terran?5Engineering?5Bay?$AA@ 0043d6f4     BWAPI:UnitType.obj
 0002:0000170c       ??_C@_0BE@PDINBCKI@Terran?5Machine?5Shop?$AA@ 0043d70c     BWAPI:UnitType.obj
 0002:00001720       ??_C@_0BD@JFNIAMHJ@Terran?5Physics?5Lab?$AA@ 0043d720     BWAPI:UnitType.obj
 0002:00001734       ??_C@_0BC@EGCGHBAM@Terran?5Covert?5Ops?$AA@ 0043d734     BWAPI:UnitType.obj
 0002:00001748       ??_C@_0BI@HCJAEIOD@Terran?5Science?5Facility?$AA@ 0043d748     BWAPI:UnitType.obj
 0002:00001760       ??_C@_0BF@DJNGDEFK@Terran?5Control?5Tower?$AA@ 0043d760     BWAPI:UnitType.obj
 0002:00001778       ??_C@_0BA@NPGLOFJL@Terran?5Starport?$AA@ 0043d778     BWAPI:UnitType.obj
 0002:00001788       ??_C@_0P@GACHJLCF@Terran?5Factory?$AA@ 0043d788     BWAPI:UnitType.obj
 0002:00001798       ??_C@_0P@KIJCLBLF@Terran?5Academy?$AA@ 0043d798     BWAPI:UnitType.obj
 0002:000017a8       ??_C@_0BA@ENFNAFAH@Terran?5Barracks?$AA@ 0043d7a8     BWAPI:UnitType.obj
 0002:000017b8       ??_C@_0BA@NBHELLHB@Terran?5Refinery?$AA@ 0043d7b8     BWAPI:UnitType.obj
 0002:000017c8       ??_C@_0BE@NHAAJACK@Terran?5Supply?5Depot?$AA@ 0043d7c8     BWAPI:UnitType.obj
 0002:000017dc       ??_C@_0BE@KCHPJMMF@Terran?5Nuclear?5Silo?$AA@ 0043d7dc     BWAPI:UnitType.obj
 0002:000017f0       ??_C@_0BG@KHLHLOKE@Terran?5Comsat?5Station?$AA@ 0043d7f0     BWAPI:UnitType.obj
 0002:00001808       ??_C@_0BG@EGCFFEDP@Terran?5Command?5Center?$AA@ 0043d808     BWAPI:UnitType.obj
 0002:00001820       ??_C@_0BF@JNIMCHKN@Spell?5Disruption?5Web?$AA@ 0043d820     BWAPI:UnitType.obj
 0002:00001838       ??_C@_0M@KEEJDIHE@Zerg?5Lurker?$AA@ 0043d838     BWAPI:UnitType.obj
 0002:00001844       ??_C@_0BA@DEAKLHJA@Zerg?5Lurker?5Egg?$AA@ 0043d844     BWAPI:UnitType.obj
 0002:00001854       ??_C@_0BA@NHAIBLEB@Critter?5Ursadon?$AA@ 0043d854     BWAPI:UnitType.obj
 0002:00001864       ??_C@_0BC@PIKCAAPM@Critter?5Ragnasaur?$AA@ 0043d864     BWAPI:UnitType.obj
 0002:00001878       ??_C@_0P@OFHGINEC@Critter?5Kakaru?$AA@ 0043d878     BWAPI:UnitType.obj
 0002:00001888       ??_C@_0BA@LCPLHCFK@Critter?5Scantid?$AA@ 0043d888     BWAPI:UnitType.obj
 0002:00001898       ??_C@_0BK@DHHMOJIJ@Special?5Mercenary?5Gunship?$AA@ 0043d898     BWAPI:UnitType.obj
 0002:000018b4       ??_C@_0BD@MJBJHNOP@Special?5Cargo?5Ship?$AA@ 0043d8b4     BWAPI:UnitType.obj
 0002:000018c8       ??_C@_0BC@OILDLEFO@Critter?5Bengalaas?$AA@ 0043d8c8     BWAPI:UnitType.obj
 0002:000018dc       ??_C@_0BB@DIGNPAMD@Critter?5Rhynadon?$AA@ 0043d8dc     BWAPI:UnitType.obj
 0002:000018f0       ??_C@_0P@KKJGALAH@Protoss?5Scarab?$AA@ 0043d8f0     BWAPI:UnitType.obj
 0002:00001900       ??_C@_0BB@BLHBNEMD@Protoss?5Observer?$AA@ 0043d900     BWAPI:UnitType.obj
 0002:00001914       ??_C@_0BA@KBPCOFMJ@Hero?5Warbringer?$AA@ 0043d914     BWAPI:UnitType.obj
 0002:00001924       ??_C@_0P@BIBBMOHE@Protoss?5Reaver?$AA@ 0043d924     BWAPI:UnitType.obj
 0002:00001938       __real@3ffc7ae147ae147b    0043d938     BWAPI:UnitType.obj
 0002:00001940       ??_C@_0BE@KDLNAFEG@Protoss?5Interceptor?$AA@ 0043d940     BWAPI:UnitType.obj
 0002:00001958       __real@402aa8f5c28f5c29    0043d958     BWAPI:UnitType.obj
 0002:00001960       ??_C@_0BA@IAIALCGI@Hero?5Gantrithor?$AA@ 0043d960     BWAPI:UnitType.obj
 0002:00001970       ??_C@_0BA@CNFKHGIB@Protoss?5Carrier?$AA@ 0043d970     BWAPI:UnitType.obj
 0002:00001980       __real@400aa3d70a3d70a4    0043d980     BWAPI:UnitType.obj
 0002:00001988       ??_C@_0O@JMAOJGHJ@Hero?5Danimoth?$AA@ 0043d988     BWAPI:UnitType.obj
 0002:00001998       ??_C@_0BA@IPNMNMOF@Protoss?5Arbiter?$AA@ 0043d998     BWAPI:UnitType.obj
 0002:000019a8       ??_C@_0N@JBGLJODO@Hero?5Artanis?$AA@ 0043d9a8     BWAPI:UnitType.obj
 0002:000019b8       ??_C@_09HHMIPJNC@Hero?5Mojo?$AA@ 0043d9b8     BWAPI:UnitType.obj
 0002:000019c4       ??_C@_0O@ONNONPLI@Protoss?5Scout?$AA@ 0043d9c4     BWAPI:UnitType.obj
 0002:000019d4       ??_C@_0BA@POBNPHDK@Protoss?5Shuttle?$AA@ 0043d9d4     BWAPI:UnitType.obj
 0002:000019e8       __real@4011b851eb851eb8    0043d9e8     BWAPI:UnitType.obj
 0002:000019f0       ??_C@_0BN@HICOOKCN@Hero?5Tassadar?5Zeratul?5Archon?$AA@ 0043d9f0     BWAPI:UnitType.obj
 0002:00001a10       ??_C@_0P@HBBCNBED@Protoss?5Archon?$AA@ 0043da10     BWAPI:UnitType.obj
 0002:00001a20       ??_C@_0N@LPJDJDBB@Hero?5Aldaris?$AA@ 0043da20     BWAPI:UnitType.obj
 0002:00001a30       ??_C@_0O@CMLLPJLL@Hero?5Tassadar?$AA@ 0043da30     BWAPI:UnitType.obj
 0002:00001a40       ??_C@_0BF@HMEAGNHC@Protoss?5High?5Templar?$AA@ 0043da40     BWAPI:UnitType.obj
 0002:00001a58       __real@400999999999999a    0043da58     BWAPI:UnitType.obj
 0002:00001a60       ??_C@_0BD@CPJBDGKF@Hero?5Fenix?5Dragoon?$AA@ 0043da60     BWAPI:UnitType.obj
 0002:00001a74       ??_C@_0BA@JCGABGFL@Protoss?5Dragoon?$AA@ 0043da74     BWAPI:UnitType.obj
 0002:00001a84       ??_C@_0BC@DEFPHEI@Hero?5Fenix?5Zealot?$AA@ 0043da84     BWAPI:UnitType.obj
 0002:00001a98       ??_C@_0P@EPJHBFLI@Protoss?5Zealot?$AA@ 0043da98     BWAPI:UnitType.obj
 0002:00001aa8       ??_C@_0O@HMHKIFMB@Protoss?5Probe?$AA@ 0043daa8     BWAPI:UnitType.obj
 0002:00001ab8       ??_C@_0BE@OBDMONLO@Protoss?5Dark?5Archon?$AA@ 0043dab8     BWAPI:UnitType.obj
 0002:00001acc       ??_C@_0O@PIBJNACO@Zerg?5Devourer?$AA@ 0043dacc     BWAPI:UnitType.obj
 0002:00001adc       ??_C@_0N@CDFIBBGP@Hero?5Zeratul?$AA@ 0043dadc     BWAPI:UnitType.obj
 0002:00001aec       ??_C@_0BC@JCKKOACB@Hero?5Dark?5Templar?$AA@ 0043daec     BWAPI:UnitType.obj
 0002:00001b00       ??_C@_0BF@NEGAHBPN@Protoss?5Dark?5Templar?$AA@ 0043db00     BWAPI:UnitType.obj
 0002:00001b18       ??_C@_0O@LOFKEBMI@Hero?5Raszagal?$AA@ 0043db18     BWAPI:UnitType.obj
 0002:00001b28       ??_C@_0BA@IMKLPFOH@Protoss?5Corsair?$AA@ 0043db28     BWAPI:UnitType.obj
 0002:00001b38       ??_C@_0M@MJEOJIIO@Zerg?5Cocoon?$AA@ 0043db38     BWAPI:UnitType.obj
 0002:00001b44       ??_C@_0BA@IGACPLK@Terran?5Valkyrie?$AA@ 0043db44     BWAPI:UnitType.obj
 0002:00001b58       __real@401a666666666666    0043db58     BWAPI:UnitType.obj
 0002:00001b60       ??_C@_0BF@HGAFHCHN@Zerg?5Infested?5Terran?$AA@ 0043db60     BWAPI:UnitType.obj
 0002:00001b78       __real@401747ae147ae148    0043db78     BWAPI:UnitType.obj
 0002:00001b80       ??_C@_0N@FJGINPJH@Zerg?5Scourge?$AA@ 0043db80     BWAPI:UnitType.obj
 0002:00001b90       ??_C@_0BB@PAAPKLEM@Hero?5Unclean?5One?$AA@ 0043db90     BWAPI:UnitType.obj
 0002:00001ba4       ??_C@_0N@HIBIIJIA@Zerg?5Defiler?$AA@ 0043dba4     BWAPI:UnitType.obj
 0002:00001bb4       ??_C@_0P@PNEJKEPG@Hero?5Matriarch?$AA@ 0043dbb4     BWAPI:UnitType.obj
 0002:00001bc4       ??_C@_0L@LNBLIDNE@Zerg?5Queen?$AA@ 0043dbc4     BWAPI:UnitType.obj
 0002:00001bd0       ??_C@_0BG@CMNBMIPF@Hero?5Kukulza?5Guardian?$AA@ 0043dbd0     BWAPI:UnitType.obj
 0002:00001be8       ??_C@_0O@JLPIPFOI@Zerg?5Guardian?$AA@ 0043dbe8     BWAPI:UnitType.obj
 0002:00001bf8       ??_C@_0BG@FLPOEJKN@Hero?5Kukulza?5Mutalisk?$AA@ 0043dbf8     BWAPI:UnitType.obj
 0002:00001c10       ??_C@_0O@OMNHHELA@Zerg?5Mutalisk?$AA@ 0043dc10     BWAPI:UnitType.obj
 0002:00001c20       ??_C@_0BA@JBMOBCAM@Hero?5Yggdrasill?$AA@ 0043dc20     BWAPI:UnitType.obj
 0002:00001c30       ??_C@_0O@KLHEJFLO@Zerg?5Overlord?$AA@ 0043dc30     BWAPI:UnitType.obj
 0002:00001c40       __real@3fea8f5c28f5c28f    0043dc40     BWAPI:UnitType.obj
 0002:00001c48       ??_C@_0L@NMDMBKKC@Zerg?5Drone?$AA@ 0043dc48     BWAPI:UnitType.obj
 0002:00001c54       ??_C@_0P@BIGJIBPB@Zerg?5Broodling?$AA@ 0043dc54     BWAPI:UnitType.obj
 0002:00001c68       __real@4018000000000000    0043dc68     BWAPI:UnitType.obj
 0002:00001c70       ??_C@_0P@GBJMJECP@Hero?5Torrasque?$AA@ 0043dc70     BWAPI:UnitType.obj
 0002:00001c80       ??_C@_0P@HGEHLMGM@Zerg?5Ultralisk?$AA@ 0043dc80     BWAPI:UnitType.obj
 0002:00001c90       __real@40147ae147ae147b    0043dc90     BWAPI:UnitType.obj
 0002:00001c98       ??_C@_0BD@LABHKFEC@Hero?5Hunter?5Killer?$AA@ 0043dc98     BWAPI:UnitType.obj
 0002:00001cac       ??_C@_0P@DOPLIACB@Zerg?5Hydralisk?$AA@ 0043dcac     BWAPI:UnitType.obj
 0002:00001cc0       __real@400d47ae147ae148    0043dcc0     BWAPI:UnitType.obj
 0002:00001cc8       ??_C@_0BH@NJMPIMGM@Hero?5Infested?5Kerrigan?$AA@ 0043dcc8     BWAPI:UnitType.obj
 0002:00001ce0       ??_C@_0BD@DJIHLLLC@Hero?5Devouring?5One?$AA@ 0043dce0     BWAPI:UnitType.obj
 0002:00001cf4       ??_C@_0O@FFAPMDCL@Zerg?5Zergling?$AA@ 0043dcf4     BWAPI:UnitType.obj
 0002:00001d08       __real@4015f5c28f5c28f6    0043dd08     BWAPI:UnitType.obj
 0002:00001d10       ??_C@_08CKINHEI@Zerg?5Egg?$AA@ 0043dd10     BWAPI:UnitType.obj
 0002:00001d1c       ??_C@_0L@MDAFMNBD@Zerg?5Larva?$AA@ 0043dd1c     BWAPI:UnitType.obj
 0002:00001d28       ??_C@_0BA@HBELBBKF@Terran?5Civilian?$AA@ 0043dd28     BWAPI:UnitType.obj
 0002:00001d38       ??_C@_0N@MDPJBGPH@Terran?5Medic?$AA@ 0043dd38     BWAPI:UnitType.obj
 0002:00001d48       ??_C@_0BE@MDONONI@Spell?5Scanner?5Sweep?$AA@ 0043dd48     BWAPI:UnitType.obj
 0002:00001d5c       ??_C@_0BA@JOAOJJLD@Hero?5Gui?5Montag?$AA@ 0043dd5c     BWAPI:UnitType.obj
 0002:00001d6c       ??_C@_0P@JPGGABPH@Terran?5Firebat?$AA@ 0043dd6c     BWAPI:UnitType.obj
 0002:00001d7c       ??_C@_0BM@DCONFFNC@Hero?5Edmund?5Duke?5Siege?5Mode?$AA@ 0043dd7c     BWAPI:UnitType.obj
 0002:00001d98       ??_C@_0BN@OANCGIEG@Terran?5Siege?5Tank?5Siege?5Mode?$AA@ 0043dd98     BWAPI:UnitType.obj
 0002:00001db8       ??_C@_0BH@KLOCABEJ@Terran?5Nuclear?5Missile?$AA@ 0043ddb8     BWAPI:UnitType.obj
 0002:00001dd0       __real@4040aa3d70a3d70a    0043ddd0     BWAPI:UnitType.obj
 0002:00001dd8       ??_C@_0BL@ELBMAKBJ@Terran?5Vulture?5Spider?5Mine?$AA@ 0043ddd8     BWAPI:UnitType.obj
 0002:00001df8       __real@4030000000000000    0043ddf8     BWAPI:UnitType.obj
 0002:00001e00       ??_C@_0BE@CCLMOGIC@Hero?5Gerard?5DuGalle?$AA@ 0043de00     BWAPI:UnitType.obj
 0002:00001e14       ??_C@_0O@DOMMDDDI@Hero?5Norad?5II?$AA@ 0043de14     BWAPI:UnitType.obj
 0002:00001e24       ??_C@_0O@BELFNMID@Hero?5Hyperion?$AA@ 0043de24     BWAPI:UnitType.obj
 0002:00001e34       ??_C@_0BF@OLABDBKN@Hero?5Arcturus?5Mengsk?$AA@ 0043de34     BWAPI:UnitType.obj
 0002:00001e4c       ??_C@_0BF@LFOBLJJC@Terran?5Battlecruiser?$AA@ 0043de4c     BWAPI:UnitType.obj
 0002:00001e68       __real@4004000000000000    0043de68     BWAPI:UnitType.obj
 0002:00001e70       ??_C@_0BA@GCDKNCAO@Terran?5Dropship?$AA@ 0043de70     BWAPI:UnitType.obj
 0002:00001e80       __real@4015e147ae147ae1    0043de80     BWAPI:UnitType.obj
 0002:00001e88       ??_C@_0O@LBJFOFMJ@Hero?5Magellan?$AA@ 0043de88     BWAPI:UnitType.obj
 0002:00001e98       ??_C@_0BG@HLHKMKDM@Terran?5Science?5Vessel?$AA@ 0043de98     BWAPI:UnitType.obj
 0002:00001eb0       __real@4014000000000000    0043deb0     BWAPI:UnitType.obj
 0002:00001eb8       ??_C@_0BC@FIEOAFLE@Hero?5Tom?5Kazansky?$AA@ 0043deb8     BWAPI:UnitType.obj
 0002:00001ecc       ??_C@_0O@ICMKLECA@Terran?5Wraith?$AA@ 0043decc     BWAPI:UnitType.obj
 0002:00001ee0       __real@401aae147ae147ae    0043dee0     BWAPI:UnitType.obj
 0002:00001ee8       ??_C@_0L@MCIKDNEH@Terran?5SCV?$AA@ 0043dee8     BWAPI:UnitType.obj
 0002:00001ef8       __real@4013ae147ae147ae    0043def8     BWAPI:UnitType.obj
 0002:00001f00       ??_C@_0BL@OKGNPKIO@Hero?5Edmund?5Duke?5Tank?5Mode?$AA@ 0043df00     BWAPI:UnitType.obj
 0002:00001f1c       ??_C@_0BM@NINFJDKI@Terran?5Siege?5Tank?5Tank?5Mode?$AA@ 0043df1c     BWAPI:UnitType.obj
 0002:00001f38       ??_C@_0BC@CELNIGHD@Hero?5Alan?5Schezar?$AA@ 0043df38     BWAPI:UnitType.obj
 0002:00001f4c       ??_C@_0P@CCBPCJJB@Terran?5Goliath?$AA@ 0043df4c     BWAPI:UnitType.obj
 0002:00001f60       __real@401247ae147ae148    0043df60     BWAPI:UnitType.obj
 0002:00001f68       ??_C@_0BI@KICFDIJN@Hero?5Jim?5Raynor?5Vulture?$AA@ 0043df68     BWAPI:UnitType.obj
 0002:00001f80       ??_C@_0P@KHIIEKKA@Terran?5Vulture?$AA@ 0043df80     BWAPI:UnitType.obj
 0002:00001f90       __real@401999999999999a    0043df90     BWAPI:UnitType.obj
 0002:00001f98       ??_C@_0BD@KGLFCCB@Hero?5Alexei?5Stukov?$AA@ 0043df98     BWAPI:UnitType.obj
 0002:00001fac       ??_C@_0BE@EFOPKHNH@Hero?5Infested?5Duran?$AA@ 0043dfac     BWAPI:UnitType.obj
 0002:00001fc0       ??_C@_0BB@PALLBBAI@Hero?5Samir?5Duran?$AA@ 0043dfc0     BWAPI:UnitType.obj
 0002:00001fd4       ??_C@_0BE@FIKBPLFJ@Hero?5Sarah?5Kerrigan?$AA@ 0043dfd4     BWAPI:UnitType.obj
 0002:00001fe8       ??_C@_0N@FJMBNEBB@Terran?5Ghost?$AA@ 0043dfe8     BWAPI:UnitType.obj
 0002:00001ff8       ??_C@_0BH@OKPCLLGF@Hero?5Jim?5Raynor?5Marine?$AA@ 0043dff8     BWAPI:UnitType.obj
 0002:00002010       ??_C@_0O@EHHJLCCM@Terran?5Marine?$AA@ 0043e010     BWAPI:UnitType.obj
 0002:00002020       __real@4010000000000000    0043e020     BWAPI:UnitType.obj
 0002:00002028       ??_C@_0BA@BPCMJIAB@Charon?5Boosters?$AA@ 0043e028     BWAPI:UpgradeType.obj
 0002:00002038       ??_C@_0BD@LHHPGDOF@Anabolic?5Synthesis?$AA@ 0043e038     BWAPI:UpgradeType.obj
 0002:0000204c       ??_C@_0BC@FBLDECKF@Chitinous?5Plating?$AA@ 0043e04c     BWAPI:UpgradeType.obj
 0002:00002060       ??_C@_0BB@HDDBNILE@Caduceus?5Reactor?$AA@ 0043e060     BWAPI:UpgradeType.obj
 0002:00002074       ??_C@_0P@CCJOKMAG@Argus?5Talisman?$AA@ 0043e074     BWAPI:UpgradeType.obj
 0002:00002084       ??_C@_0M@GDGCHLDD@Argus?5Jewel?$AA@ 0043e084     BWAPI:UpgradeType.obj
 0002:00002090       ??_C@_0P@MJDEAGJD@Khaydarin?5Core?$AA@ 0043e090     BWAPI:UpgradeType.obj
 0002:000020a0       ??_C@_0BB@DLJNDHKJ@Carrier?5Capacity?$AA@ 0043e0a0     BWAPI:UpgradeType.obj
 0002:000020b4       ??_C@_0BD@NIGKKDHG@Gravitic?5Thrusters?$AA@ 0043e0b4     BWAPI:UpgradeType.obj
 0002:000020c8       ??_C@_0O@JLAEIHAL@Apial?5Sensors?$AA@ 0043e0c8     BWAPI:UpgradeType.obj
 0002:000020d8       ??_C@_0BB@KDDPCDFJ@Khaydarin?5Amulet?$AA@ 0043e0d8     BWAPI:UpgradeType.obj
 0002:000020ec       ??_C@_0BC@PBDMMIIB@Gravitic?5Boosters?$AA@ 0043e0ec     BWAPI:UpgradeType.obj
 0002:00002100       ??_C@_0N@HIDMPKKC@Sensor?5Array?$AA@ 0043e100     BWAPI:UpgradeType.obj
 0002:00002110       ??_C@_0P@MGOEDEGA@Gravitic?5Drive?$AA@ 0043e110     BWAPI:UpgradeType.obj
 0002:00002120       ??_C@_0BA@JOACLICN@Reaver?5Capacity?$AA@ 0043e120     BWAPI:UpgradeType.obj
 0002:00002130       ??_C@_0O@KCKOFNMJ@Scarab?5Damage?$AA@ 0043e130     BWAPI:UpgradeType.obj
 0002:00002140       ??_C@_0BB@GGBOPENG@Leg?5Enhancements?$AA@ 0043e140     BWAPI:UpgradeType.obj
 0002:00002154       ??_C@_0BD@GJMCAHKG@Singularity?5Charge?$AA@ 0043e154     BWAPI:UpgradeType.obj
 0002:00002168       ??_C@_0BC@KHMPEBMO@Metasynaptic?5Node?$AA@ 0043e168     BWAPI:UpgradeType.obj
 0002:0000217c       ??_C@_0P@PPPPEGG@Gamete?5Meiosis?$AA@ 0043e17c     BWAPI:UpgradeType.obj
 0002:0000218c       ??_C@_0P@MEPIKOOG@Grooved?5Spines?$AA@ 0043e18c     BWAPI:UpgradeType.obj
 0002:0000219c       ??_C@_0BC@EOLHIHFE@Muscular?5Augments?$AA@ 0043e19c     BWAPI:UpgradeType.obj
 0002:000021b0       ??_C@_0P@BBFPFPCM@Adrenal?5Glands?$AA@ 0043e1b0     BWAPI:UpgradeType.obj
 0002:000021c0       ??_C@_0BA@OPLLNPBN@Metabolic?5Boost?$AA@ 0043e1c0     BWAPI:UpgradeType.obj
 0002:000021d0       ??_C@_0BF@ODBHOEGO@Pneumatized?5Carapace?$AA@ 0043e1d0     BWAPI:UpgradeType.obj
 0002:000021e8       ??_C@_08PJAEFDKE@Antennae?$AA@ 0043e1e8     BWAPI:UpgradeType.obj
 0002:000021f4       ??_C@_0N@CPBBMAPF@Ventral?5Sacs?$AA@ 0043e1f4     BWAPI:UpgradeType.obj
 0002:00002204       ??_C@_0BB@HPJNOKKJ@Colossus?5Reactor?$AA@ 0043e204     BWAPI:UpgradeType.obj
 0002:00002218       ??_C@_0P@CECDPOLC@Apollo?5Reactor?$AA@ 0043e218     BWAPI:UpgradeType.obj
 0002:00002228       ??_C@_0BA@IIHOPKAP@Moebius?5Reactor?$AA@ 0043e228     BWAPI:UpgradeType.obj
 0002:00002238       ??_C@_0BA@MCDCFHLA@Ocular?5Implants?$AA@ 0043e238     BWAPI:UpgradeType.obj
 0002:00002248       ??_C@_0O@LCELBCC@Titan?5Reactor?$AA@ 0043e248     BWAPI:UpgradeType.obj
 0002:00002258       ??_C@_0O@HGMNHFJG@Ion?5Thrusters?$AA@ 0043e258     BWAPI:UpgradeType.obj
 0002:00002268       ??_C@_0N@GOIKPKJJ@U?9238?5Shells?$AA@ 0043e268     BWAPI:UpgradeType.obj
 0002:00002278       ??_C@_0BH@GBBPEHHH@Protoss?5Plasma?5Shields?$AA@ 0043e278     BWAPI:UpgradeType.obj
 0002:00002290       ??_C@_0BE@MDIHMAMC@Protoss?5Air?5Weapons?$AA@ 0043e290     BWAPI:UpgradeType.obj
 0002:000022a4       ??_C@_0BH@MHKJGFEG@Protoss?5Ground?5Weapons?$AA@ 0043e2a4     BWAPI:UpgradeType.obj
 0002:000022bc       ??_C@_0BD@JMIBLOCK@Zerg?5Flyer?5Attacks?$AA@ 0043e2bc     BWAPI:UpgradeType.obj
 0002:000022d0       ??_C@_0BF@JIMKBEBL@Zerg?5Missile?5Attacks?$AA@ 0043e2d0     BWAPI:UpgradeType.obj
 0002:000022e8       ??_C@_0BD@FOFIPFC@Zerg?5Melee?5Attacks?$AA@ 0043e2e8     BWAPI:UpgradeType.obj
 0002:000022fc       ??_C@_0BE@OLPNGLJB@Terran?5Ship?5Weapons?$AA@ 0043e2fc     BWAPI:UpgradeType.obj
 0002:00002310       ??_C@_0BH@NAGKGFON@Terran?5Vehicle?5Weapons?$AA@ 0043e310     BWAPI:UpgradeType.obj
 0002:00002328       ??_C@_0BI@CBLCIGFB@Terran?5Infantry?5Weapons?$AA@ 0043e328     BWAPI:UpgradeType.obj
 0002:00002340       ??_C@_0BC@PPFOMGIL@Protoss?5Air?5Armor?$AA@ 0043e340     BWAPI:UpgradeType.obj
 0002:00002354       ??_C@_0BF@HDALBHNM@Protoss?5Ground?5Armor?$AA@ 0043e354     BWAPI:UpgradeType.obj
 0002:0000236c       ??_C@_0BE@OOALFLDP@Zerg?5Flyer?5Carapace?$AA@ 0043e36c     BWAPI:UpgradeType.obj
 0002:00002380       ??_C@_0O@FNDFHJFL@Zerg?5Carapace?$AA@ 0043e380     BWAPI:UpgradeType.obj
 0002:00002390       ??_C@_0BE@IKOFAJBC@Terran?5Ship?5Plating?$AA@ 0043e390     BWAPI:UpgradeType.obj
 0002:000023a4       ??_C@_0BH@LBHCAHGO@Terran?5Vehicle?5Plating?$AA@ 0043e3a4     BWAPI:UpgradeType.obj
 0002:000023bc       ??_C@_0BG@MLNEPKJE@Terran?5Infantry?5Armor?$AA@ 0043e3bc     BWAPI:UpgradeType.obj
 0002:000023d4       ??_C@_0P@NMDGAFOI@Nuclear?5Strike?$AA@ 0043e3d4     BWAPI:TechType.obj
 0002:000023e4       ??_C@_07IJKHPPM@Healing?$AA@ 0043e3e4     BWAPI:TechType.obj
 0002:000023ec       ??_C@_0O@NCJIEIIC@Lurker?5Aspect?$AA@ 0043e3ec     BWAPI:TechType.obj
 0002:000023fc       ??_C@_09DLDOMOLA@Maelstrom?$AA@ 0043e3fc     BWAPI:TechType.obj
 0002:00002408       ??_C@_0O@PPNPMNPG@Optical?5Flare?$AA@ 0043e408     BWAPI:TechType.obj
 0002:00002418       ??_C@_08MKGOGCFD@Feedback?$AA@ 0043e418     BWAPI:TechType.obj
 0002:00002424       ??_C@_0BB@LIPMMPLG@Dark?5Archon?5Meld?$AA@ 0043e424     BWAPI:TechType.obj
 0002:00002438       ??_C@_0N@EIDLJECA@Mind?5Control?$AA@ 0043e438     BWAPI:TechType.obj
 0002:00002448       ??_C@_0P@FPHEIFPJ@Disruption?5Web?$AA@ 0043e448     BWAPI:TechType.obj
 0002:00002458       ??_C@_0M@IGMFPAGD@Restoration?$AA@ 0043e458     BWAPI:TechType.obj
 0002:00002464       ??_C@_0M@PAMEHDBO@Archon?5Warp?$AA@ 0043e464     BWAPI:TechType.obj
 0002:00002470       ??_C@_0N@PDIGNAKB@Stasis?5Field?$AA@ 0043e470     BWAPI:TechType.obj
 0002:00002480       ??_C@_06FLGNMNOC@Recall?$AA@ 0043e480     BWAPI:TechType.obj
 0002:00002488       ??_C@_0O@KINFNOIK@Hallucination?$AA@ 0043e488     BWAPI:TechType.obj
 0002:00002498       ??_C@_0O@LELKIGKH@Psionic?5Storm?$AA@ 0043e498     BWAPI:TechType.obj
 0002:000024a8       ??_C@_08HMJEGKAH@Parasite?$AA@ 0043e4a8     BWAPI:TechType.obj
 0002:000024b4       ??_C@_07EHPINOFO@Ensnare?$AA@ 0043e4b4     BWAPI:TechType.obj
 0002:000024bc       ??_C@_07MINJLKJO@Consume?$AA@ 0043e4bc     BWAPI:TechType.obj
 0002:000024c4       ??_C@_06HGGDKCAJ@Plague?$AA@ 0043e4c4     BWAPI:TechType.obj
 0002:000024cc       ??_C@_0L@JFPBFKCG@Dark?5Swarm?$AA@ 0043e4cc     BWAPI:TechType.obj
 0002:000024d8       ??_C@_0BB@JIKPFMGM@Spawn?5Broodlings?$AA@ 0043e4d8     BWAPI:TechType.obj
 0002:000024ec       ??_C@_0M@OKJGDDBF@Infestation?$AA@ 0043e4ec     BWAPI:TechType.obj
 0002:000024f8       ??_C@_09DFAHLDPC@Burrowing?$AA@ 0043e4f8     BWAPI:TechType.obj
 0002:00002504       ??_C@_0BD@CABJAIAO@Personnel?5Cloaking?$AA@ 0043e504     BWAPI:TechType.obj
 0002:00002518       ??_C@_0P@BBEEEPEB@Cloaking?5Field?$AA@ 0043e518     BWAPI:TechType.obj
 0002:00002528       ??_C@_0L@JHAAOOIP@Yamato?5Gun?$AA@ 0043e528     BWAPI:TechType.obj
 0002:00002534       ??_C@_09KMJEBGHE@Irradiate?$AA@ 0043e534     BWAPI:TechType.obj
 0002:00002540       ??_C@_0BB@CAIBPHIH@Defensive?5Matrix?$AA@ 0043e540     BWAPI:TechType.obj
 0002:00002554       ??_C@_0BA@IIANCPP@Tank?5Siege?5Mode?$AA@ 0043e554     BWAPI:TechType.obj
 0002:00002564       ??_C@_0O@CDGDCNGE@Scanner?5Sweep?$AA@ 0043e564     BWAPI:TechType.obj
 0002:00002574       ??_C@_0N@BCDLKLFL@Spider?5Mines?$AA@ 0043e574     BWAPI:TechType.obj
 0002:00002584       ??_C@_0O@EPLIBJBC@EMP?5Shockwave?$AA@ 0043e584     BWAPI:TechType.obj
 0002:00002594       ??_C@_08FFMBAOJA@Lockdown?$AA@ 0043e594     BWAPI:TechType.obj
 0002:000025a0       ??_C@_0L@DPMKGLMO@Stim?5Packs?$AA@ 0043e5a0     BWAPI:TechType.obj
 0002:000025ac       ??_C@_0BL@KJPIIFNP@XBWAPIXBUILDXSTAMPXRELEASE?$AA@ 0043e5ac     BWAPI:BWAPI.obj
 0002:000025c8       ??_C@_0BL@INAMLPPF@XBWAPIXREVISIONXSTAMPX4160?$AA@ 0043e5c8     BWAPI:BWAPI.obj
 0002:000025e4       ??_C@_0BK@EDMLPCHF@Flame?5Thrower?5?$CIWall?5Trap?$CJ?$AA@ 0043e5e4     BWAPI:WeaponType.obj
 0002:00002600       ??_C@_0CD@DAGJPMOC@Hellfire?5Missile?5Pack?5?$CIFloor?5Tra@ 0043e600     BWAPI:WeaponType.obj
 0002:00002624       ??_C@_0CC@ONHMICNI@Hellfire?5Missile?5Pack?5?$CIWall?5Trap@ 0043e624     BWAPI:WeaponType.obj
 0002:00002648       ??_C@_0BO@IPALAIBI@Twin?5Autocannons?5?$CIFloor?5Trap?$CJ?$AA@ 0043e648     BWAPI:WeaponType.obj
 0002:00002668       ??_C@_0BK@IKAHECJM@Independant?5Laser?5Battery?$AA@ 0043e668     BWAPI:WeaponType.obj
 0002:00002684       ??_C@_0BG@PMGCMGOH@Warp?5Blades?5?$CIZeratul?$CJ?$AA@ 0043e684     BWAPI:WeaponType.obj
 0002:0000269c       ??_C@_0BD@DGLDHMAL@Warp?5Blades?5?$CIHero?$CJ?$AA@ 0043e69c     BWAPI:WeaponType.obj
 0002:000026b0       ??_C@_0M@FAEAIBOL@Warp?5Blades?$AA@ 0043e6b0     BWAPI:WeaponType.obj
 0002:000026bc       ??_C@_0BE@KDCEJBKM@Subterranean?5Spines?$AA@ 0043e6bc     BWAPI:WeaponType.obj
 0002:000026d0       ??_C@_0P@KLCCOCIG@Corrosive?5Acid?$AA@ 0043e6d0     BWAPI:WeaponType.obj
 0002:000026e0       ??_C@_0N@NEMBMOK@Halo?5Rockets?$AA@ 0043e6e0     BWAPI:WeaponType.obj
 0002:000026f0       ??_C@_0O@HHLEMKND@Neutron?5Flare?$AA@ 0043e6f0     BWAPI:WeaponType.obj
 0002:00002700       ??_C@_06IFHEDAIH@Scarab?$AA@ 0043e700     BWAPI:WeaponType.obj
 0002:00002708       ??_C@_0BC@ODIAEBD@STA?5Photon?5Cannon?$AA@ 0043e708     BWAPI:WeaponType.obj
 0002:0000271c       ??_C@_0BC@GPLPBPOO@STS?5Photon?5Cannon?$AA@ 0043e71c     BWAPI:WeaponType.obj
 0002:00002730       ??_C@_0N@BOJPNEAC@Pulse?5Cannon?$AA@ 0043e730     BWAPI:WeaponType.obj
 0002:00002740       ??_C@_0CC@NMGEJJDK@Phase?5Disruptor?5Cannon?5?$CIDanimoth@ 0043e740     BWAPI:WeaponType.obj
 0002:00002764       ??_C@_0BH@JBJAOLG@Phase?5Disruptor?5Cannon?$AA@ 0043e764     BWAPI:WeaponType.obj
 0002:0000277c       ??_C@_0BP@EPEJAFKE@Anti?9Matter?5Missiles?5?$CIArtanis?$CJ?$AA@ 0043e77c     BWAPI:WeaponType.obj
 0002:0000279c       ??_C@_0BM@FEIKILDL@Anti?9Matter?5Missiles?5?$CIMojo?$CJ?$AA@ 0043e79c     BWAPI:WeaponType.obj
 0002:000027b8       ??_C@_0BF@ECEBMFJO@Anti?9Matter?5Missiles?$AA@ 0043e7b8     BWAPI:WeaponType.obj
 0002:000027d0       ??_C@_0BP@BADGMDBB@Dual?5Photon?5Blasters?5?$CIArtanis?$CJ?$AA@ 0043e7d0     BWAPI:WeaponType.obj
 0002:000027f0       ??_C@_0BM@HLIKGMI@Dual?5Photon?5Blasters?5?$CIMojo?$CJ?$AA@ 0043e7f0     BWAPI:WeaponType.obj
 0002:0000280c       ??_C@_0BF@KDBNDBPJ@Dual?5Photon?5Blasters?$AA@ 0043e80c     BWAPI:WeaponType.obj
 0002:00002824       ??_C@_0CM@JOFJPBNF@Psionic?5Shockwave?5?$CITassadar?1Zera@ 0043e824     BWAPI:WeaponType.obj
 0002:00002850       ??_C@_0BC@DKLIJFJC@Psionic?5Shockwave?$AA@ 0043e850     BWAPI:WeaponType.obj
 0002:00002864       ??_C@_0M@DHLOANDI@Psi?5Assault?$AA@ 0043e864     BWAPI:WeaponType.obj
 0002:00002870       ??_C@_0BI@LGNBFLHO@Phase?5Disruptor?5?$CIFenix?$CJ?$AA@ 0043e870     BWAPI:WeaponType.obj
 0002:00002888       ??_C@_0BA@FAHAAEDL@Phase?5Disruptor?$AA@ 0043e888     BWAPI:WeaponType.obj
 0002:00002898       ??_C@_0BD@PEKOHGNP@Psi?5Blades?5?$CIFenix?$CJ?$AA@ 0043e898     BWAPI:WeaponType.obj
 0002:000028ac       ??_C@_0L@OLEEOCD@Psi?5Blades?$AA@ 0043e8ac     BWAPI:WeaponType.obj
 0002:000028b8       ??_C@_0O@PKFHIJNK@Particle?5Beam?$AA@ 0043e8b8     BWAPI:WeaponType.obj
 0002:000028c8       ??_C@_0BA@ILDGMOGL@Suicide?5Scourge?$AA@ 0043e8c8     BWAPI:WeaponType.obj
 0002:000028d8       ??_C@_0BI@NKNJKBLM@Suicide?5Infested?5Terran?$AA@ 0043e8d8     BWAPI:WeaponType.obj
 0002:000028f0       ??_C@_0BG@EOLEOCBP@Subterranean?5Tentacle?$AA@ 0043e8f0     BWAPI:WeaponType.obj
 0002:00002908       ??_C@_0O@DMFOBIPI@Seeker?5Spores?$AA@ 0043e908     BWAPI:WeaponType.obj
 0002:00002918       ??_C@_0BF@MGOMPCKM@Glave?5Wurm?5?$CIKukulza?$CJ?$AA@ 0043e918     BWAPI:WeaponType.obj
 0002:00002930       ??_C@_0L@OCBCHKE@Glave?5Wurm?$AA@ 0043e930     BWAPI:WeaponType.obj
 0002:0000293c       ??_C@_0BF@JAJDICEL@Acid?5Spore?5?$CIKukulza?$CJ?$AA@ 0043e93c     BWAPI:WeaponType.obj
 0002:00002954       ??_C@_0L@INMAMJHC@Acid?5Spore?$AA@ 0043e954     BWAPI:WeaponType.obj
 0002:00002960       ??_C@_06HOFJGIJI@Spines?$AA@ 0043e960     BWAPI:WeaponType.obj
 0002:00002968       ??_C@_0N@BPLAABEG@Toxic?5Spores?$AA@ 0043e968     BWAPI:WeaponType.obj
 0002:00002978       ??_C@_0BK@MCJEAPJI@Kaiser?5Blades?5?$CITorrasque?$CJ?$AA@ 0043e978     BWAPI:WeaponType.obj
 0002:00002994       ??_C@_0O@MHMMNLID@Kaiser?5Blades?$AA@ 0043e994     BWAPI:WeaponType.obj
 0002:000029a4       ??_C@_0BO@ILOANNGG@Needle?5Spines?5?$CIHunter?5Killer?$CJ?$AA@ 0043e9a4     BWAPI:WeaponType.obj
 0002:000029c4       ??_C@_0O@NPNFLJPM@Needle?5Spines?$AA@ 0043e9c4     BWAPI:WeaponType.obj
 0002:000029d4       ??_C@_0BK@JFJDANFP@Claws?5?$CIInfested?5Kerrigan?$CJ?$AA@ 0043e9d4     BWAPI:WeaponType.obj
 0002:000029f0       ??_C@_0BG@ODMLPEHF@Claws?5?$CIDevouring?5One?$CJ?$AA@ 0043e9f0     BWAPI:WeaponType.obj
 0002:00002a08       ??_C@_05ENAFHIFE@Claws?$AA@ 0043ea08     BWAPI:WeaponType.obj
 0002:00002a10       ??_C@_0BB@JMFHIAKC@Longbolt?5Missile?$AA@ 0043ea10     BWAPI:WeaponType.obj
 0002:00002a24       ??_C@_0CD@GLDCPGNL@Arclite?5Shock?5Cannon?5?$CIEdmund?5Duk@ 0043ea24     BWAPI:WeaponType.obj
 0002:00002a48       ??_C@_0BF@PBBKAKEF@Arclite?5Shock?5Cannon?$AA@ 0043ea48     BWAPI:WeaponType.obj
 0002:00002a60       ??_C@_0BL@HONLOKI@Flame?5Thrower?5?$CIGui?5Montag?$CJ?$AA@ 0043ea60     BWAPI:WeaponType.obj
 0002:00002a7c       ??_C@_0O@PLONGGH@Flame?5Thrower?$AA@ 0043ea7c     BWAPI:WeaponType.obj
 0002:00002a8c       ??_C@_0BN@BFPJHBHO@ATA?5Laser?5Battery?5?$CIHyperion?$CJ?$AA@ 0043ea8c     BWAPI:WeaponType.obj
 0002:00002aac       ??_C@_0BJ@IABKMPK@ATA?5Laser?5Battery?5?$CIHero?$CJ?$AA@ 0043eaac     BWAPI:WeaponType.obj
 0002:00002ac8       ??_C@_0BC@DJCMFNFG@ATA?5Laser?5Battery?$AA@ 0043eac8     BWAPI:WeaponType.obj
 0002:00002adc       ??_C@_0BN@JGJFOMKJ@ATS?5Laser?5Battery?5?$CIHyperion?$CJ?$AA@ 0043eadc     BWAPI:WeaponType.obj
 0002:00002afc       ??_C@_0BJ@OEOFPJFP@ATS?5Laser?5Battery?5?$CIHero?$CJ?$AA@ 0043eafc     BWAPI:WeaponType.obj
 0002:00002b18       ??_C@_0BC@FIKLEGKL@ATS?5Laser?5Battery?$AA@ 0043eb18     BWAPI:WeaponType.obj
 0002:00002b2c       ??_C@_0BM@CIEMKEBA@Burst?5Lasers?5?$CITom?5Kazansky?$CJ?$AA@ 0043eb2c     BWAPI:WeaponType.obj
 0002:00002b48       ??_C@_0N@NPFEIGII@Burst?5Lasers?$AA@ 0043eb48     BWAPI:WeaponType.obj
 0002:00002b58       ??_C@_0BP@JNIJJGGM@Gemini?5Missiles?5?$CITom?5Kazansky?$CJ?$AA@ 0043eb58     BWAPI:WeaponType.obj
 0002:00002b78       ??_C@_0BA@LJAPOOJC@Gemini?5Missiles?$AA@ 0043eb78     BWAPI:WeaponType.obj
 0002:00002b88       ??_C@_0O@JAIEPJCB@Fusion?5Cutter?$AA@ 0043eb88     BWAPI:WeaponType.obj
 0002:00002b98       ??_C@_0BN@DBMEKICM@Arclite?5Cannon?5?$CIEdmund?5Duke?$CJ?$AA@ 0043eb98     BWAPI:WeaponType.obj
 0002:00002bb8       ??_C@_0P@GLAKHKN@Arclite?5Cannon?$AA@ 0043ebb8     BWAPI:WeaponType.obj
 0002:00002bc8       ??_C@_0CF@DBOKIABP@Hellfire?5Missile?5Pack?5?$CIAlan?5Sche@ 0043ebc8     BWAPI:WeaponType.obj
 0002:00002bf0       ??_C@_0BG@EJAKIAFH@Hellfire?5Missile?5Pack?$AA@ 0043ebf0     BWAPI:WeaponType.obj
 0002:00002c08       ??_C@_0CA@GFGJAAEP@Twin?5Autocannons?5?$CIAlan?5Schezar?$CJ?$AA@ 0043ec08     BWAPI:WeaponType.obj
 0002:00002c28       ??_C@_0BB@PHGIFPEE@Twin?5Autocannons?$AA@ 0043ec28     BWAPI:WeaponType.obj
 0002:00002c3c       ??_C@_0CD@LIMNBENE@Fragmentation?5Grenade?5?$CIJim?5Rayno@ 0043ec3c     BWAPI:WeaponType.obj
 0002:00002c60       ??_C@_0BG@OMLECFBH@Fragmentation?5Grenade?$AA@ 0043ec60     BWAPI:WeaponType.obj
 0002:00002c78       ??_C@_0CE@IHFBNOFG@C?910?5Canister?5Rifle?5?$CIAlexei?5Stuk@ 0043ec78     BWAPI:WeaponType.obj
 0002:00002c9c       ??_C@_0CF@OAFNMABL@C?910?5Canister?5Rifle?5?$CIInfested?5Du@ 0043ec9c     BWAPI:WeaponType.obj
 0002:00002cc4       ??_C@_0CC@OPCICMBD@C?910?5Canister?5Rifle?5?$CISamir?5Duran@ 0043ecc4     BWAPI:WeaponType.obj
 0002:00002ce8       ??_C@_0CF@OKEACAGA@C?910?5Canister?5Rifle?5?$CISarah?5Kerri@ 0043ece8     BWAPI:WeaponType.obj
 0002:00002d10       ??_C@_0BE@HPCENBKJ@C?910?5Canister?5Rifle?$AA@ 0043ed10     BWAPI:WeaponType.obj
 0002:00002d24       ??_C@_0BJ@BPLGNEN@Gauss?5Rifle?5?$CIJim?5Raynor?$CJ?$AA@ 0043ed24     BWAPI:WeaponType.obj
 0002:00002d40       ??_C@_0M@PHMJIJIN@Gauss?5Rifle?$AA@ 0043ed40     BWAPI:WeaponType.obj
 0002:00002d4c       ??_C@_05GNBOAOG@Large?$AA@ 0043ed4c     BWAPI:UnitSizeType.obj
 0002:00002d54       ??_C@_06LHIDHMIE@Medium?$AA@ 0043ed54     BWAPI:UnitSizeType.obj
 0002:00002d5c       ??_C@_05KOJKBBHA@Small?$AA@ 0043ed5c     BWAPI:UnitSizeType.obj
 0002:00002d64       ??_C@_0M@MLMKHJLC@Independent?$AA@ 0043ed64     BWAPI:UnitSizeType.obj
 0002:00002d70       ??_C@_05FHGOFLKH@Fatal?$AA@ 0043ed70     BWAPI:Order.obj
 0002:00002d78       ??_C@_0M@PAKCNPOG@JunkYardDog?$AA@ 0043ed78     BWAPI:Order.obj
 0002:00002d84       ??_C@_0O@PKJNHMIF@CastMaelstrom?$AA@ 0043ed84     BWAPI:Order.obj
 0002:00002d94       ??_C@_0BB@OKKGJAFM@CastOpticalFlare?$AA@ 0043ed94     BWAPI:Order.obj
 0002:00002da8       ??_C@_0N@IMBPMGN@CastFeedback?$AA@ 0043eda8     BWAPI:Order.obj
 0002:00002db8       ??_C@_0P@NKEMENHN@DarkArchonMeld?$AA@ 0043edb8     BWAPI:Order.obj
 0002:00002dc8       ??_C@_0BA@OHDFADGL@CastMindControl?$AA@ 0043edc8     BWAPI:Order.obj
 0002:00002dd8       ??_C@_0BC@CEJBPBLA@CastDisruptionWeb?$AA@ 0043edd8     BWAPI:Order.obj
 0002:00002dec       ??_C@_0BA@BJLCBNG@CastRestoration?$AA@ 0043edec     BWAPI:Order.obj
 0002:00002dfc       ??_C@_0L@FHOBGOOA@MedicHeal2?$AA@ 0043edfc     BWAPI:Order.obj
 0002:00002e08       ??_C@_08DNJAJMEM@HealMove?$AA@ 0043ee08     BWAPI:Order.obj
 0002:00002e14       ??_C@_0L@HMMMDNCD@MedicHeal1?$AA@ 0043ee14     BWAPI:Order.obj
 0002:00002e20       ??_C@_05BBLLBHEM@Medic?$AA@ 0043ee20     BWAPI:Order.obj
 0002:00002e28       ??_C@_06BDBMIOPC@Warpin?$AA@ 0043ee28     BWAPI:Order.obj
 0002:00002e30       ??_C@_0O@KLAOGGLP@Disabledoodad?$AA@ 0043ee30     BWAPI:Order.obj
 0002:00002e40       ??_C@_0N@JGKHDPAM@Enabledoodad?$AA@ 0043ee40     BWAPI:Order.obj
 0002:00002e50       ??_C@_0L@KAKOKAMP@RevealTrap?$AA@ 0043ee50     BWAPI:Order.obj
 0002:00002e5c       ??_C@_08POFHNODM@HideTrap?$AA@ 0043ee5c     BWAPI:Order.obj
 0002:00002e68       ??_C@_09MPGJDBGH@CloseDoor?$AA@ 0043ee68     BWAPI:Order.obj
 0002:00002e74       ??_C@_08MPEJDFMK@OpenDoor?$AA@ 0043ee74     BWAPI:Order.obj
 0002:00002e80       ??_C@_09JLDMPKEG@HiddenGun?$AA@ 0043ee80     BWAPI:Order.obj
 0002:00002e8c       ??_C@_07NCNJBJHD@Critter?$AA@ 0043ee8c     BWAPI:Order.obj
 0002:00002e94       ??_C@_0P@IMKKAPFH@SelfDestrucing?$AA@ 0043ee94     BWAPI:Order.obj
 0002:00002ea4       ??_C@_0P@NMOLOOID@ComputerReturn?$AA@ 0043eea4     BWAPI:Order.obj
 0002:00002eb4       ??_C@_07GJJCKENN@Neutral?$AA@ 0043eeb4     BWAPI:Order.obj
 0002:00002ebc       ??_C@_0O@CCHAKLCB@RescuePassive?$AA@ 0043eebc     BWAPI:Order.obj
 0002:00002ecc       ??_C@_09GIEGGDME@GuardPost?$AA@ 0043eecc     BWAPI:Order.obj
 0002:00002ed8       ??_C@_08EBBHJGDF@AIPatrol?$AA@ 0043eed8     BWAPI:Order.obj
 0002:00002ee4       ??_C@_0L@NPCENHPF@HarassMove?$AA@ 0043eee4     BWAPI:Order.obj
 0002:00002ef0       ??_C@_09CHDNHMDE@AtkMoveEP?$AA@ 0043eef0     BWAPI:Order.obj
 0002:00002efc       ??_C@_0L@BEKGKKKJ@ComputerAI?$AA@ 0043eefc     BWAPI:Order.obj
 0002:00002f08       ??_C@_07GOLMNBHO@CTFCOP2?$AA@ 0043ef08     BWAPI:Order.obj
 0002:00002f10       ??_C@_0O@HPFMIGLO@CTFCOPStarted?$AA@ 0043ef10     BWAPI:Order.obj
 0002:00002f20       ??_C@_0L@FNDFFDHO@CTFCOPInit?$AA@ 0043ef20     BWAPI:Order.obj
 0002:00002f2c       ??_C@_06MFEJJDGH@Patrol?$AA@ 0043ef2c     BWAPI:Order.obj
 0002:00002f34       ??_C@_0P@KNCOLFFP@ResetCollision?$AA@ 0043ef34     BWAPI:Order.obj
 0002:00002f44       ??_C@_0P@OALFOLJB@Hallucination2?$AA@ 0043ef44     BWAPI:Order.obj
 0002:00002f54       ??_C@_0BC@MALDOBGL@CastHallucination?$AA@ 0043ef54     BWAPI:Order.obj
 0002:00002f68       ??_C@_0BA@OCMCMHEL@CastStasisField?$AA@ 0043ef68     BWAPI:Order.obj
 0002:00002f78       ??_C@_0M@DPJJEHOC@CastEnsnare?$AA@ 0043ef78     BWAPI:Order.obj
 0002:00002f84       ??_C@_0M@LALICDCC@CastConsume?$AA@ 0043ef84     BWAPI:Order.obj
 0002:00002f90       ??_C@_0L@BADDLMEB@CastPlague?$AA@ 0043ef90     BWAPI:Order.obj
 0002:00002f9c       ??_C@_0O@GNDHKEEB@CastIrradiate?$AA@ 0043ef9c     BWAPI:Order.obj
 0002:00002fac       ??_C@_0BB@JJFMPGJD@CastPsionicStorm?$AA@ 0043efac     BWAPI:Order.obj
 0002:00002fc0       ??_C@_0BE@BFGBIKEK@CastDefensiveMatrix?$AA@ 0043efc0     BWAPI:Order.obj
 0002:00002fd4       ??_C@_07JGGMAFJH@Scanner?$AA@ 0043efd4     BWAPI:Order.obj
 0002:00002fdc       ??_C@_0BB@CFJBDMLC@CastScannerSweep?$AA@ 0043efdc     BWAPI:Order.obj
 0002:00002ff0       ??_C@_0BD@MBPFDKKD@TeleporttoLocation?$AA@ 0043eff0     BWAPI:Order.obj
 0002:00003004       ??_C@_0L@DNDNNDKK@CastRecall?$AA@ 0043f004     BWAPI:Order.obj
 0002:00003010       ??_C@_0BB@BGMMFEOD@RightClickAction?$AA@ 0043f010     BWAPI:Order.obj
 0002:00003024       ??_C@_09FNJOFGHM@PlaceMine?$AA@ 0043f024     BWAPI:Order.obj
 0002:00003030       ??_C@_0BB@NAOLAJEO@CloakNearbyUnits?$AA@ 0043f030     BWAPI:Order.obj
 0002:00003044       ??_C@_09CJDCFHJC@NukeTrack?$AA@ 0043f044     BWAPI:Order.obj
 0002:00003050       ??_C@_0BC@OHMAKOPO@CastNuclearStrike?$AA@ 0043f050     BWAPI:Order.obj
 0002:00003064       ??_C@_08BNMBKGBA@NukeUnit?$AA@ 0043f064     BWAPI:Order.obj
 0002:00003070       ??_C@_09JFNFENPE@NukePaint?$AA@ 0043f070     BWAPI:Order.obj
 0002:0000307c       ??_C@_0L@LGGDLCL@NukeLaunch?$AA@ 0043f07c     BWAPI:Order.obj
 0002:00003088       ??_C@_09FJNCCGAB@NukeTrain?$AA@ 0043f088     BWAPI:Order.obj
 0002:00003094       ??_C@_08DPGCOFCG@NukeWait?$AA@ 0043f094     BWAPI:Order.obj
 0002:000030a0       ??_C@_0BB@NJHHMLJF@CastEMPShockwave?$AA@ 0043f0a0     BWAPI:Order.obj
 0002:000030b4       ??_C@_0BE@OCKLPCFB@CastSpawnBroodlings?$AA@ 0043f0b4     BWAPI:Order.obj
 0002:000030c8       ??_C@_0N@LODLPEDJ@CastParasite?$AA@ 0043f0c8     BWAPI:Order.obj
 0002:000030d8       ??_C@_0O@KDAPOGEH@CastDarkSwarm?$AA@ 0043f0d8     BWAPI:Order.obj
 0002:000030e8       ??_C@_0M@EEHPIOBJ@Unburrowing?$AA@ 0043f0e8     BWAPI:Order.obj
 0002:000030f4       ??_C@_08JCDIONDN@Burrowed?$AA@ 0043f0f4     BWAPI:Order.obj
 0002:00003100       ??_C@_0N@JHGOJAKO@CastLockdown?$AA@ 0043f100     BWAPI:Order.obj
 0002:00003110       ??_C@_0O@LLMLCGNL@FireYamatoGun?$AA@ 0043f110     BWAPI:Order.obj
 0002:00003120       ??_C@_0L@IGOKILBB@MoveUnload?$AA@ 0043f120     BWAPI:Order.obj
 0002:0000312c       ??_C@_06FGIDPKBG@Unload?$AA@ 0043f12c     BWAPI:Order.obj
 0002:00003134       ??_C@_07JAHPJMFF@Decloak?$AA@ 0043f134     BWAPI:Order.obj
 0002:0000313c       ??_C@_05DHGKEIPM@Cloak?$AA@ 0043f13c     BWAPI:Order.obj
 0002:00003144       ??_C@_0N@LEGKPLMA@HoldPosition?$AA@ 0043f144     BWAPI:Order.obj
 0002:00003154       ??_C@_0BH@CKANMBBA@CompletingArchonsummon?$AA@ 0043f154     BWAPI:Order.obj
 0002:0000316c       ??_C@_0L@CJABMPKF@ArchonWarp?$AA@ 0043f16c     BWAPI:Order.obj
 0002:00003178       ??_C@_0P@NEKKILFO@GuardianAspect?$AA@ 0043f178     BWAPI:Order.obj
 0002:00003188       ??_C@_0BE@JDOGBPE@StoppingCreepGrowth?$AA@ 0043f188     BWAPI:Order.obj
 0002:0000319c       ??_C@_0M@NBBIAGGD@SpreadCreep?$AA@ 0043f19c     BWAPI:Order.obj
 0002:000031a8       ??_C@_0BA@KPADNNLJ@InitCreepGrowth?$AA@ 0043f1a8     BWAPI:Order.obj
 0002:000031b8       ??_C@_09LGOIIJIB@Unsieging?$AA@ 0043f1b8     BWAPI:Order.obj
 0002:000031c4       ??_C@_07CKKELPC@Sieging?$AA@ 0043f1c4     BWAPI:Order.obj
 0002:000031cc       ??_C@_0M@JKPLMIAC@PowerupIdle?$AA@ 0043f1cc     BWAPI:Order.obj
 0002:000031d8       ??_C@_07CGNCKMH@Pickup4?$AA@ 0043f1d8     BWAPI:Order.obj
 0002:000031e0       ??_C@_0N@KLOEJDJC@PickupBunker?$AA@ 0043f1e0     BWAPI:Order.obj
 0002:000031f0       ??_C@_0BA@BGHJGHJP@PickupTransport?$AA@ 0043f1f0     BWAPI:Order.obj
 0002:00003200       ??_C@_0L@CEMJLIIG@PickupIdle?$AA@ 0043f200     BWAPI:Order.obj
 0002:0000320c       ??_C@_0P@FIIBCHLK@EnterTransport?$AA@ 0043f20c     BWAPI:Order.obj
 0002:0000321c       ??_C@_0M@FOHLFDDH@Interrupted?$AA@ 0043f21c     BWAPI:Order.obj
 0002:00003228       ??_C@_0P@IPBHLKNB@ReturnMinerals?$AA@ 0043f228     BWAPI:Order.obj
 0002:00003238       ??_C@_08GPLABIB@Harvest4?$AA@ 0043f238     BWAPI:Order.obj
 0002:00003244       ??_C@_08EJLKJHEG@Harvest3?$AA@ 0043f244     BWAPI:Order.obj
 0002:00003250       ??_C@_0P@GKLLGKGJ@MiningMinerals?$AA@ 0043f250     BWAPI:Order.obj
 0002:00003260       ??_C@_0BA@ENLHJEKJ@WaitForMinerals?$AA@ 0043f260     BWAPI:Order.obj
 0002:00003270       ??_C@_0P@KAGFEKIF@MoveToMinerals?$AA@ 0043f270     BWAPI:Order.obj
 0002:00003280       ??_C@_09KAGOLLB@ReturnGas?$AA@ 0043f280     BWAPI:Order.obj
 0002:0000328c       ??_C@_0L@GBBCBLDH@HarvestGas?$AA@ 0043f28c     BWAPI:Order.obj
 0002:00003298       ??_C@_0L@DFKNOEKK@WaitForGas?$AA@ 0043f298     BWAPI:Order.obj
 0002:000032a4       ??_C@_09IAODOPGC@MoveToGas?$AA@ 0043f2a4     BWAPI:Order.obj
 0002:000032b0       ??_C@_08FAKBKGAH@Harvest2?$AA@ 0043f2b0     BWAPI:Order.obj
 0002:000032bc       ??_C@_08HLIMPFME@Harvest1?$AA@ 0043f2bc     BWAPI:Order.obj
 0002:000032c8       ??_C@_0O@COMOACMK@SpawningLarva?$AA@ 0043f2c8     BWAPI:Order.obj
 0002:000032d8       ??_C@_05HPFJOMKF@Larva?$AA@ 0043f2d8     BWAPI:Order.obj
 0002:000032e0       ??_C@_07CJFOONCK@Upgrade?$AA@ 0043f2e0     BWAPI:Order.obj
 0002:000032e8       ??_C@_0N@KEOIPJDA@ResearchTech?$AA@ 0043f2e8     BWAPI:Order.obj
 0002:000032f8       ??_C@_0L@NJPDHCFM@LiftingOff?$AA@ 0043f2f8     BWAPI:Order.obj
 0002:00003304       ??_C@_0N@FBFBIIPJ@DroneLiftOff?$AA@ 0043f304     BWAPI:Order.obj
 0002:00003314       ??_C@_0BA@MAALHALI@BuildingLiftOff?$AA@ 0043f314     BWAPI:Order.obj
 0002:00003324       ??_C@_0N@CMODCJPP@BuildingLand?$AA@ 0043f324     BWAPI:Order.obj
 0002:00003334       ??_C@_0BC@OGGIAMHJ@InterceptorReturn?$AA@ 0043f334     BWAPI:Order.obj
 0002:00003348       ??_C@_0O@BKMLFB@ShieldBattery?$AA@ 0043f348     BWAPI:Order.obj
 0002:00003358       ??_C@_0BH@IKIPPKEC@RechargeShieldsBattery?$AA@ 0043f358     BWAPI:Order.obj
 0002:00003370       ??_C@_0BE@CJPLACAN@RechargeShieldsUnit?$AA@ 0043f370     BWAPI:Order.obj
 0002:00003384       ??_C@_0N@JAKIFCCA@ScarabAttack?$AA@ 0043f384     BWAPI:Order.obj
 0002:00003394       ??_C@_0BC@MHDMKGNO@InterceptorAttack?$AA@ 0043f394     BWAPI:Order.obj
 0002:000033a8       ??_C@_0N@CDOHCDMD@TrainFighter?$AA@ 0043f3a8     BWAPI:Order.obj
 0002:000033b8       ??_C@_06DHPDPFPE@Reaver?$AA@ 0043f3b8     BWAPI:Order.obj
 0002:000033c0       ??_C@_0P@BKGMJIL@CarrierIgnore2?$AA@ 0043f3c0     BWAPI:Order.obj
 0002:000033d0       ??_C@_0BC@MOFCOALD@ReaverCarrierMove?$AA@ 0043f3d0     BWAPI:Order.obj
 0002:000033e4       ??_C@_07MAMNBHJK@Carrier?$AA@ 0043f3e4     BWAPI:Order.obj
 0002:000033ec       ??_C@_06LCCNGMJG@Follow?$AA@ 0043f3ec     BWAPI:Order.obj
 0002:000033f4       ??_C@_0BA@KHLCEK@EnterNydusCanal?$AA@ 0043f3f4     BWAPI:Order.obj
 0002:00003404       ??_C@_0P@OJFHIAHB@BuildNydusExit?$AA@ 0043f404     BWAPI:Order.obj
 0002:00003414       ??_C@_0BD@OBPJGJPF@IncompleteBuilding?$AA@ 0043f414     BWAPI:Order.obj
 0002:00003428       ??_C@_0BC@MDDPFLDI@ZergBuildingMorph?$AA@ 0043f428     BWAPI:Order.obj
 0002:0000343c       ??_C@_0O@PFGCCCPH@ZergUnitMorph?$AA@ 0043f43c     BWAPI:Order.obj
 0002:0000344c       ??_C@_09ONILFGAK@ZergBirth?$AA@ 0043f44c     BWAPI:Order.obj
 0002:00003458       ??_C@_0P@EPDFJOFI@RallyPointTile?$AA@ 0043f458     BWAPI:Order.obj
 0002:00003468       ??_C@_0P@LKJAGOKK@RallyPointUnit?$AA@ 0043f468     BWAPI:Order.obj
 0002:00003478       ??_C@_05GFNCIBPC@Train?$AA@ 0043f478     BWAPI:Order.obj
 0002:00003480       ??_C@_0L@KGEGOIDI@BuildAddon?$AA@ 0043f480     BWAPI:Order.obj
 0002:0000348c       ??_C@_0L@EPOIIEBA@PlaceAddon?$AA@ 0043f48c     BWAPI:Order.obj
 0002:00003498       ??_C@_06KOKHNNIE@Repair?$AA@ 0043f498     BWAPI:Order.obj
 0002:000034a0       ??_C@_0BF@PNBHODFJ@ConstructingBuilding?$AA@ 0043f4a0     BWAPI:Order.obj
 0002:000034b8       ??_C@_0O@LGDEEFEJ@BuildProtoss2?$AA@ 0043f4b8     BWAPI:Order.obj
 0002:000034c8       ??_C@_0O@OHKMDBEG@PlaceBuilding?$AA@ 0043f4c8     BWAPI:Order.obj
 0002:000034d8       ??_C@_0BH@LLACIADD@InfestingCommandCenter?$AA@ 0043f4d8     BWAPI:Order.obj
 0002:000034f0       ??_C@_0BA@GNMIOCKA@CastInfestation?$AA@ 0043f4f0     BWAPI:Order.obj
 0002:00003500       ??_C@_08MMFNFEF@Nothing3?$AA@ 0043f500     BWAPI:Order.obj
 0002:0000350c       ??_C@_07MMBOBMNN@Nothing?$AA@ 0043f50c     BWAPI:Order.obj
 0002:00003514       ??_C@_0M@MFHNNDEM@VultureMine?$AA@ 0043f514     BWAPI:Order.obj
 0002:00003520       ??_C@_0L@PNNMKJBJ@TowerGuard?$AA@ 0043f520     BWAPI:Order.obj
 0002:0000352c       ??_C@_0O@EHIPJJHI@UnusedPowerup?$AA@ 0043f52c     BWAPI:Order.obj
 0002:0000353c       ??_C@_0O@MCFCBEOH@UnusedNothing?$AA@ 0043f53c     BWAPI:Order.obj
 0002:0000354c       ??_C@_0BG@LJGPAMLM@InfestedCommandCenter?$AA@ 0043f54c     BWAPI:Order.obj
 0002:00003564       ??_C@_0L@JOKPMGGO@AttackMove?$AA@ 0043f564     BWAPI:Order.obj
 0002:00003570       ??_C@_05KLBFNLDO@Hover?$AA@ 0043f570     BWAPI:Order.obj
 0002:00003578       ??_C@_0L@MHIFEKOH@AttackTile?$AA@ 0043f578     BWAPI:Order.obj
 0002:00003584       ??_C@_0L@DCCALKBF@AttackUnit?$AA@ 0043f584     BWAPI:Order.obj
 0002:00003590       ??_C@_04LCANPIEP@Move?$AA@ 0043f590     BWAPI:Order.obj
 0002:00003598       ??_C@_0M@NDPCHNLJ@BunkerGuard?$AA@ 0043f598     BWAPI:Order.obj
 0002:000035a4       ??_C@_0M@GOPGJFND@TurretGuard?$AA@ 0043f5a4     BWAPI:Order.obj
 0002:000035b0       ??_C@_0M@JFFHMFOO@PlayerGuard?$AA@ 0043f5b0     BWAPI:Order.obj
 0002:000035bc       ??_C@_05LICMIJMM@Guard?$AA@ 0043f5bc     BWAPI:Order.obj
 0002:000035c4       ??_C@_04MOIHHPNJ@Stop?$AA@ 0043f5c4     BWAPI:Order.obj
 0002:000035cc       ??_C@_03JFEBIAME@Die?$AA@  0043f5cc     BWAPI:Order.obj
 0002:000035d0       ??_C@_0BB@JEDGJFHH@Pro?5Gamer?5League?$AA@ 0043f5d0     BWAPI:GameType.obj
 0002:000035e4       ??_C@_0O@BFIJKID@Top?5vs?5Bottom?$AA@ 0043f5e4     BWAPI:GameType.obj
 0002:000035f4       ??_C@_0BG@JHCAHLBK@Team?5Capture?5The?5Flag?$AA@ 0043f5f4     BWAPI:GameType.obj
 0002:0000360c       ??_C@_0BC@JLPLFIIA@Team?5Free?5For?5All?$AA@ 0043f60c     BWAPI:GameType.obj
 0002:00003620       ??_C@_0L@GBOIAJIN@Team?5Melee?$AA@ 0043f620     BWAPI:GameType.obj
 0002:0000362c       ??_C@_0BB@GHOCBAJC@Use?5Map?5Settings?$AA@ 0043f62c     BWAPI:GameType.obj
 0002:00003640       ??_C@_06KJHDEABF@Ladder?$AA@ 0043f640     BWAPI:GameType.obj
 0002:00003648       ??_C@_0N@GEFGBLGK@Sudden?5Death?$AA@ 0043f648     BWAPI:GameType.obj
 0002:00003658       ??_C@_09FNOLKBMB@Slaughter?$AA@ 0043f658     BWAPI:GameType.obj
 0002:00003664       ??_C@_05JMAHHHHO@Greed?$AA@ 0043f664     BWAPI:GameType.obj
 0002:0000366c       ??_C@_0BB@GMHGFHKF@Capture?5The?5Flag?$AA@ 0043f66c     BWAPI:GameType.obj
 0002:00003680       ??_C@_0L@OGBBHNMF@One?5on?5One?$AA@ 0043f680     BWAPI:GameType.obj
 0002:0000368c       ??_C@_0N@PCEMCJC@Free?5For?5All?$AA@ 0043f68c     BWAPI:GameType.obj
 0002:0000369c       ??_C@_05ILEPGBEB@Melee?$AA@ 0043f69c     BWAPI:GameType.obj
 0002:000036a4       ??_C@_0BC@HOFHKGJN@Invalid?5Parameter?$AA@ 0043f6a4     BWAPI:Error.obj
 0002:000036b8       ??_C@_0P@HJNGBKMO@File?5Not?5Found?$AA@ 0043f6b8     BWAPI:Error.obj
 0002:000036c8       ??_C@_0O@NFHOBIDO@Access?5Denied?$AA@ 0043f6c8     BWAPI:Error.obj
 0002:000036d8       ??_C@_0O@FLODNLFL@Unable?5To?5Hit?$AA@ 0043f6d8     BWAPI:Error.obj
 0002:000036e8       ??_C@_0N@GENEEAKG@Out?5Of?5Range?$AA@ 0043f6e8     BWAPI:Error.obj
 0002:000036f8       ??_C@_0BF@FKPOJOEC@Unreachable?5Location?$AA@ 0043f6f8     BWAPI:Error.obj
 0002:00003710       ??_C@_0BF@EKBAHIBA@Unbuildable?5Location?$AA@ 0043f710     BWAPI:Error.obj
 0002:00003728       ??_C@_0BG@HHGCNFPL@Invalid?5Tile?5Position?$AA@ 0043f728     BWAPI:Error.obj
 0002:00003740       ??_C@_0BD@NFCCCGKG@Insufficient?5Space?$AA@ 0043f740     BWAPI:Error.obj
 0002:00003754       ??_C@_0BC@GCEDCKDN@Insufficient?5Ammo?$AA@ 0043f754     BWAPI:Error.obj
 0002:00003768       ??_C@_0BC@EKCIKBON@Insufficient?5Tech?$AA@ 0043f768     BWAPI:Error.obj
 0002:0000377c       ??_C@_0BE@OCOOGOAP@Insufficient?5Energy?$AA@ 0043f77c     BWAPI:Error.obj
 0002:00003790       ??_C@_0BE@IBKNAKDL@Insufficient?5Supply?$AA@ 0043f790     BWAPI:Error.obj
 0002:000037a4       ??_C@_0BB@LLAKAHPC@Insufficient?5Gas?$AA@ 0043f7a4     BWAPI:Error.obj
 0002:000037b8       ??_C@_0BG@PICJAAFF@Insufficient?5Minerals?$AA@ 0043f7b8     BWAPI:Error.obj
 0002:000037d0       ??_C@_0BE@GLCNCKNL@Currently?5Upgrading?$AA@ 0043f7d0     BWAPI:Error.obj
 0002:000037e4       ??_C@_0BG@FGFFCCEI@Currently?5Researching?$AA@ 0043f7e4     BWAPI:Error.obj
 0002:000037fc       ??_C@_0P@BODHHBPM@Fully?5Upgraded?$AA@ 0043f7fc     BWAPI:Error.obj
 0002:0000380c       ??_C@_0BD@LOMELCKO@Already?5Researched?$AA@ 0043f80c     BWAPI:Error.obj
 0002:00003820       ??_C@_0BD@CCDCCMCM@Incompatible?5State?$AA@ 0043f820     BWAPI:Error.obj
 0002:00003834       ??_C@_0BG@DBEHIDKP@Incompatible?5TechType?$AA@ 0043f834     BWAPI:Error.obj
 0002:0000384c       ??_C@_0BG@KLDCBGBE@Incompatible?5UnitType?$AA@ 0043f84c     BWAPI:Error.obj
 0002:00003864       ??_C@_09NBFOIFBM@Unit?5Busy?$AA@ 0043f864     BWAPI:Error.obj
 0002:00003870       ??_C@_0P@DPEEOFEM@Unit?5Not?5Owned?$AA@ 0043f870     BWAPI:Error.obj
 0002:00003880       ??_C@_0BB@NOCNOKBH@Unit?5Not?5Visible?$AA@ 0043f880     BWAPI:Error.obj
 0002:00003894       ??_C@_0BE@JLINNMOE@Unit?5Does?5Not?5Exist?$AA@ 0043f894     BWAPI:Error.obj
 0002:000038a8       ??_C@_0BE@LKLPGEAD@Corrosive?5Acid?5Shot?$AA@ 0043f8a8     BWAPI:BulletType.obj
 0002:000038bc       ??_C@_0BG@MNGJDJBI@Optical?5Flare?5Grenade?$AA@ 0043f8bc     BWAPI:BulletType.obj
 0002:000038d4       ??_C@_09EPJGIIIJ@Invisible?$AA@ 0043f8d4     BWAPI:BulletType.obj
 0002:000038e0       ??_C@_0BB@FCCGDAFF@Needle?5Spine?5Hit?$AA@ 0043f8e0     BWAPI:BulletType.obj
 0002:000038f4       ??_C@_0N@HOFKOJGO@Plague?5Cloud?$AA@ 0043f8f4     BWAPI:BulletType.obj
 0002:00003904       ??_C@_0BE@LNAPDHI@Queen?5Spell?5Carrier?$AA@ 0043f904     BWAPI:BulletType.obj
 0002:00003918       ??_C@_0BH@MKINOJPD@Sunken?5Colony?5Tentacle?$AA@ 0043f918     BWAPI:BulletType.obj
 0002:00003930       ??_C@_0BH@MOBCJOKF@STA?5STS?5Cannon?5Overlay?$AA@ 0043f930     BWAPI:BulletType.obj
 0002:00003948       ??_C@_0BG@JFLFLNLN@Psionic?5Shockwave?5Hit?$AA@ 0043f948     BWAPI:BulletType.obj
 0002:00003960       ??_C@_0BE@DKFBNCKP@Anti?9Matter?5Missile?$AA@ 0043f960     BWAPI:BulletType.obj
 0002:00003974       ??_C@_0BC@JMKLLKOI@Particle?5Beam?5Hit?$AA@ 0043f974     BWAPI:BulletType.obj
 0002:00003988       ??_C@_0BJ@PNEAFLEP@Dual?5Photon?5Blasters?5Hit?$AA@ 0043f988     BWAPI:BulletType.obj
 0002:000039a4       ??_C@_0M@IKMIIHCG@EMP?5Missile?$AA@ 0043f9a4     BWAPI:BulletType.obj
 0002:000039b0       ??_C@_0BJ@EIPOAGAD@Arclite?5Shock?5Cannon?5Hit?$AA@ 0043f9b0     BWAPI:BulletType.obj
 0002:000039cc       ??_C@_0BG@NKJHAPLH@ATS?5ATA?5Laser?5Battery?$AA@ 0043f9cc     BWAPI:BulletType.obj
 0002:000039e4       ??_C@_0BI@BOEOJHAI@C?910?5Canister?5Rifle?5Hit?$AA@ 0043f9e4     BWAPI:BulletType.obj
 0002:000039fc       ??_C@_0BA@FLACFGNK@Gauss?5Rifle?5Hit?$AA@ 0043f9fc     BWAPI:BulletType.obj
 0002:00003a0c       ??_C@_0BC@JOEPFNIE@Fusion?5Cutter?5Hit?$AA@ 0043fa0c     BWAPI:BulletType.obj
 0002:00003a20       ??_C@_09GIANEELL@Place?5COP?$AA@ 0043fa20     BWAPI:UnitCommandType.obj
 0002:00003a2c       ??_C@_0O@NMHKGJKO@Use?5Tech?5Unit?$AA@ 0043fa2c     BWAPI:UnitCommandType.obj
 0002:00003a3c       ??_C@_0BC@LIFFDCLM@Use?5Tech?5Position?$AA@ 0043fa3c     BWAPI:UnitCommandType.obj
 0002:00003a50       ??_C@_08PLBAOFID@Use?5Tech?$AA@ 0043fa50     BWAPI:UnitCommandType.obj
 0002:00003a5c       ??_C@_0P@JCILHKMO@Cancel?5Upgrade?$AA@ 0043fa5c     BWAPI:UnitCommandType.obj
 0002:00003a6c       ??_C@_0BA@HNONCJOL@Cancel?5Research?$AA@ 0043fa6c     BWAPI:UnitCommandType.obj
 0002:00003a7c       ??_C@_0N@LFADDGHH@Cancel?5Morph?$AA@ 0043fa7c     BWAPI:UnitCommandType.obj
 0002:00003a8c       ??_C@_0BC@JGPDCGOH@Cancel?5Train?5Slot?$AA@ 0043fa8c     BWAPI:UnitCommandType.obj
 0002:00003aa0       ??_C@_0N@OKLPBBP@Cancel?5Train?$AA@ 0043faa0     BWAPI:UnitCommandType.obj
 0002:00003ab0       ??_C@_0N@IBEDIMJF@Cancel?5Addon?$AA@ 0043fab0     BWAPI:UnitCommandType.obj
 0002:00003ac0       ??_C@_0BE@EFOFLOJA@Cancel?5Construction?$AA@ 0043fac0     BWAPI:UnitCommandType.obj
 0002:00003ad4       ??_C@_0BC@NKICNEIM@Halt?5Construction?$AA@ 0043fad4     BWAPI:UnitCommandType.obj
 0002:00003ae8       ??_C@_0BB@MLFBGNBB@Right?5Click?5Unit?$AA@ 0043fae8     BWAPI:UnitCommandType.obj
 0002:00003afc       ??_C@_0BF@POOLMAC@Right?5Click?5Position?$AA@ 0043fafc     BWAPI:UnitCommandType.obj
 0002:00003b14       ??_C@_0BE@OIOJPEE@Unload?5All?5Position?$AA@ 0043fb14     BWAPI:UnitCommandType.obj
 0002:00003b28       ??_C@_0L@DFGLMHLP@Unload?5All?$AA@ 0043fb28     BWAPI:UnitCommandType.obj
 0002:00003b34       ??_C@_04IPBPFFEL@Load?$AA@ 0043fb34     BWAPI:UnitCommandType.obj
 0002:00003b3c       ??_C@_04GEJMGFEF@Land?$AA@ 0043fb3c     BWAPI:UnitCommandType.obj
 0002:00003b44       ??_C@_04OFPJAOED@Lift?$AA@ 0043fb44     BWAPI:UnitCommandType.obj
 0002:00003b4c       ??_C@_07BMOMMFKJ@Unsiege?$AA@ 0043fb4c     BWAPI:UnitCommandType.obj
 0002:00003b54       ??_C@_05JOPHEEP@Siege?$AA@ 0043fb54     BWAPI:UnitCommandType.obj
 0002:00003b5c       ??_C@_08MCEFCEML@Unburrow?$AA@ 0043fb5c     BWAPI:UnitCommandType.obj
 0002:00003b68       ??_C@_06ILDJGADH@Burrow?$AA@ 0043fb68     BWAPI:UnitCommandType.obj
 0002:00003b70       ??_C@_0N@OAOLMLFB@Return?5Cargo?$AA@ 0043fb70     BWAPI:UnitCommandType.obj
 0002:00003b80       ??_C@_06IBECDMNF@Gather?$AA@ 0043fb80     BWAPI:UnitCommandType.obj
 0002:00003b88       ??_C@_0O@IMEEPEIA@Hold?5Position?$AA@ 0043fb88     BWAPI:UnitCommandType.obj
 0002:00003b98       ??_C@_0P@KHCNIOAK@Set?5Rally?5Unit?$AA@ 0043fb98     BWAPI:UnitCommandType.obj
 0002:00003ba8       ??_C@_0BD@OENMBJOM@Set?5Rally?5Position?$AA@ 0043fba8     BWAPI:UnitCommandType.obj
 0002:00003bbc       ??_C@_08NKDBNKBN@Research?$AA@ 0043fbbc     BWAPI:UnitCommandType.obj
 0002:00003bc8       ??_C@_05NOHKEGJK@Morph?$AA@ 0043fbc8     BWAPI:UnitCommandType.obj
 0002:00003bd0       ??_C@_0M@HPLJIGLN@Build?5Addon?$AA@ 0043fbd0     BWAPI:UnitCommandType.obj
 0002:00003bdc       ??_C@_05DLONLOOK@Build?$AA@ 0043fbdc     BWAPI:UnitCommandType.obj
 0002:00003be4       ??_C@_0M@CCILGFNM@Attack?5Unit?$AA@ 0043fbe4     BWAPI:UnitCommandType.obj
 0002:00003bf0       ??_C@_0M@IOAEBJKH@Attack?5Move?$AA@ 0043fbf0     BWAPI:UnitCommandType.obj
 0002:00003bfc       ??_C@_0N@FMLLIGKH@ComputerLeft?$AA@ 0043fbfc     BWAPI:PlayerType.obj
 0002:00003c0c       ??_C@_0L@NGIMBOAE@PlayerLeft?$AA@ 0043fc0c     BWAPI:PlayerType.obj
 0002:00003c18       ??_C@_06EFCDMIMC@Closed?$AA@ 0043fc18     BWAPI:PlayerType.obj
 0002:00003c20       ??_C@_0BC@EIJGGKDA@EitherPreferHuman?$AA@ 0043fc20     BWAPI:PlayerType.obj
 0002:00003c34       ??_C@_0BF@KFMJLBGD@EitherPreferComputer?$AA@ 0043fc34     BWAPI:PlayerType.obj
 0002:00003c4c       ??_C@_06NPAAKFED@Player?$AA@ 0043fc4c     BWAPI:PlayerType.obj
 0002:00003c54       ??_C@_08JABLAMKL@Computer?$AA@ 0043fc54     BWAPI:PlayerType.obj
 0002:00003c60       ??_C@_0L@LELLONOE@Air?5Splash?$AA@ 0043fc60     BWAPI:ExplosionType.obj
 0002:00003c6c       ??_C@_0L@GEGPICLB@Broodlings?$AA@ 0043fc6c     BWAPI:ExplosionType.obj
 0002:00003c78       ??_C@_0BA@JNGLLCDI@Nuclear?5Missile?$AA@ 0043fc78     BWAPI:ExplosionType.obj
 0002:00003c88       ??_C@_0N@MHCEFNG@Enemy?5Splash?$AA@ 0043fc88     BWAPI:ExplosionType.obj
 0002:00003c98       ??_C@_0O@HLFJMJNG@Radial?5Splash?$AA@ 0043fc98     BWAPI:ExplosionType.obj
 0002:00003ca8       ??_C@_06EFAGIKOH@Normal?$AA@ 0043fca8     BWAPI:ExplosionType.obj
 0002:00003cb0       ??_C@_0N@ONCMOLLL@Ignore?5Armor?$AA@ 0043fcb0     BWAPI:DamageType.obj
 0002:00003cc0       ??_C@_0L@LCLHLKBL@Concussive?$AA@ 0043fcc0     BWAPI:DamageType.obj
 0002:00003ccc       ??_C@_09IGNDJJLI@Explosive?$AA@ 0043fccc     BWAPI:DamageType.obj
 0002:00003cdc       ??_7type_info@@6B@         0043fcdc     MSVCRT:ti_inst.obj
 0002:00003ce8       ??_C@_0P@GHFPNOJB@bad?5allocation?$AA@ 0043fce8     StarcraftData.obj
 0002:00003cf8       ??_C@_0BD@OLBABOEK@vector?$DMT?$DO?5too?5long?$AA@ 0043fcf8     StarcraftData.obj
 0002:00003d10       ??_7bad_alloc@std@@6B@     0043fd10     StarcraftData.obj
 0002:00003d1c       ??_7logic_error@std@@6B@   0043fd1c     StarcraftData.obj
 0002:00003d28       ??_7length_error@std@@6B@  0043fd28     StarcraftData.obj
 0002:00003d30       ??_C@_01EEMJAFIK@?6?$AA@   0043fd30     test.obj
 0002:00003d32       ??_C@_00CNPNBAHC@?$AA@     0043fd32     test.obj
 0002:00003d34       ??_C@_01CLKCMJKC@?5?$AA@   0043fd34     test.obj
 0002:00003d38       ??_C@_03JDANDILB@?$CFd?5?$AA@ 0043fd38     test.obj
 0002:00003d3c       ??_C@_0BK@JAJPPPE@Adding?5Pre?5?$CFd?5of?5?$CFd?5?3?5?$CFs?6?$AA@ 0043fd3c     test.obj
 0002:00003d58       ??_C@_0O@IGMGKDDH@DEBUG?3?5Hello?6?$AA@ 0043fd58     test.obj
 0002:00003d68       ??_C@_0BE@PBGPNKFI@DEBUG?3?5?$CFd?5?5?7?$CFs?5?7?$CFs?6?$AA@ 0043fd68     test.obj
 0002:00003d7c       ??_C@_09MMJGDJBA@?7PRE?3?5?$CFs?6?$AA@ 0043fd7c     test.obj
 0002:00003d88       ??_C@_0BE@MMNNJAIM@Error?5Incoming?3?5?$CFs?6?$AA@ 0043fd88     test.obj
 0002:00003d9c       ??_C@_0BL@OKPCJGF@?6Search?5Goal?5Information?6?6?$AA@ 0043fd9c     test.obj
 0002:00003db8       ??_C@_0BE@EIGNFEKL@?5?5?5?5?5?5?5?5REQ?5?$CF7d?5?$CFs?6?$AA@ 0043fdb8     test.obj
 0002:00003dcc       ??_C@_0BE@HKCNHOGO@?5?5?5?5?5?5?5?5MAX?5?$CF7d?5?$CFs?6?$AA@ 0043fdcc     test.obj
 0002:00003de0       ??_C@_0CF@GLNNALKI@?$CF12d?$CF12d?$CF12d?$CF14llu?$CF12?44lf?$CF12d?5?5?5@ 0043fde0     test.obj
 0002:00003e08       ??_C@_0DJ@NJFNLCFJ@Assert?5Incoming?3?5?$CFs?5which?5needed@ 0043fe08     test.obj
 0002:00003e44       ??_C@_0CP@KIBDOEFH@?7?7?7Building?5?$CFs?5reduced?5to?5?$CFd?5fra@ 0043fe44     test.obj
 0002:00003e74       ??_C@_0CF@DHFECOAA@BUILDING?5INFO?3?5?$CFs?5is?5free?5to?5ass@ 0043fe74     test.obj
 0002:00003e9c       ??_C@_0CN@DIPJPMPM@BUILDING?5INFO?3?5?$CFs?5will?5be?5free?5i@ 0043fe9c     test.obj
 0002:00003ecc       ??_C@_0DO@DMDPGJOD@?9?9?9?9?9?9?9?9?9?9?9?9?9?9?9?9?9?9?9?9?9?9?9?9?9?9?9?9?9?9?9?9@ 0043fecc     test.obj
 0002:00003f0c       ??_C@_0BG@GFNMLH@?7Specific?5When?5Ready?6?$AA@ 0043ff0c     test.obj
 0002:00003f24       ??_C@_0BI@HCJBAMAD@?7?7Zerg?5Larva?5Not?5Ready?6?$AA@ 0043ff24     test.obj
 0002:00003f3c       ??_C@_0CG@CABIDEKP@?7Specific?5When?5Ready?5End?5?$CIreturn@ 0043ff3c     test.obj
 0002:00003f64       ??_C@_0BI@KEOLJBKB@?7Specific?5Do?5Action?5?$CFd?6?$AA@ 0043ff64     test.obj
 0002:00003f7c       ??_C@_0BM@GCNCEDGC@?7?7Zerg?5Unit?5?9?5Remove?5Larva?6?$AA@ 0043ff7c     test.obj
 0002:00003f98       ??_C@_0CA@LPDELDNL@?7?7Zerg?5Building?5?9?5Remove?5Drone?6?$AA@ 0043ff98     test.obj
 0002:00003fb8       ??_C@_0BJ@OPFMOBGG@?7Specific?5Do?5Action?5End?6?$AA@ 0043ffb8     test.obj
 0002:00003fd4       ??_C@_0BJ@MMIJEEMH@?7?7Specific?5Fast?5Forward?6?$AA@ 0043ffd4     test.obj
 0002:00003ff0       ??_C@_0BA@KGEGJFGP@Do?5Action?5?9?5?$CFs?6?$AA@ 0043fff0     test.obj
 0002:00004000       ??_C@_0BL@JINMMLJP@Resource?5Error?3?5m?3?$CFd?5g?3?$CFd?6?$AA@ 00440000     test.obj
 0002:0000401c       ??_C@_0P@EHDLNHHB@Do?5Action?5End?6?$AA@ 0044001c     test.obj
 0002:0000402c       ??_C@_0CO@INMDMNDC@?7Fast?5Forward?5to?5?$CFd?5from?5?$CFd?5prog@ 0044002c     test.obj
 0002:0000405c       ??_C@_0BD@NKHKEBHA@?7Fast?5Forward?5End?6?$AA@ 0044005c     test.obj
 0002:00004070       ??_C@_0BH@BCOMHNBM@?7?7Finishing?5Action?5?$CFs?6?$AA@ 00440070     test.obj
 0002:00004088       ??_C@_0BF@LIPEGJEN@?7?7Finish?5Action?5End?6?$AA@ 00440088     test.obj
 0002:000040a0       ??_C@_0EI@KPHLAHLL@?$DO?6?$DO?6?$DO?5NEW?5ACTION?3?5?$CFs?6?$DO?6?$DO?5Progres@ 004400a0     test.obj
 0002:000040e8       ??_C@_0EE@CFOGAPPG@?7Minerals?5?5?7?$CFd?6?7Gas?5?5?7?7?$CFd?6?7Speci@ 004400e8     test.obj
 0002:0000412c       ??_C@_0CH@JLACPNEI@Resource?5Calculation?5End?5?$CIreturn@ 0044012c     test.obj
 0002:00004154       ??_C@_0BE@OPOLKPPI@?7When?5Supply?5Ready?6?$AA@ 00440154     test.obj
 0002:00004168       ??_C@_0CI@MEBCJNFG@?7?7Supply?5Check?3?5?$CFs?5?$CFd?5Progress?5S@ 00440168     test.obj
 0002:00004190       ??_C@_0BM@JHMJCGHM@?7Calculating?5Prerequisites?6?$AA@ 00440190     test.obj
 0002:000041ac       ??_C@_0BJ@JIGLJELJ@?7?7Action?5Needs?5Building?6?$AA@ 004401ac     test.obj
 0002:000041c8       ??_C@_0CB@CHNJPEOB@?7?7Action?5Does?5Not?5Need?5Building?6@ 004401c8     test.obj
 0002:000041ec       ??_C@_0CI@IKCEIONP@?7?7Action?5Has?5Prerequisites?5In?5Pr@ 004401ec     test.obj
 0002:00004214       ??_C@_0CM@CKGINAJP@?7Calculating?5Prerequisites?5End?5?$CI@ 00440214     test.obj
 0002:00004240       ??_C@_0BO@LNNCHMFN@?7?7When?5Building?5Prereq?5Ready?6?$AA@ 00440240     test.obj
 0002:00004260       ??_C@_0CP@BGDNMMNO@?7?7?7Building?5Constructed?5?$CFd?5and?5I@ 00440260     test.obj
 0002:00004290       ??_C@_0BO@PGGJGCIJ@?7?7?7Building?5Constructed?5Only?6?$AA@ 00440290     test.obj
 0002:000042b0       ??_C@_0BO@BBHEDEJG@?7?7?7Building?5In?5Progress?5Only?6?$AA@ 004402b0     test.obj
 0002:000042d0       ??_C@_0CO@NKACIJAF@?7?7When?5Building?5Prereq?5Ready?5End@ 004402d0     test.obj
 0002:00004300       ??_C@_0CE@PNADMNKF@?7?7?7When?5Constructed?5Building?5Rea@ 00440300     test.obj
 0002:00004324       ??_C@_0DE@JFKLJGIH@?7?7?7When?5Constructed?5Building?5Rea@ 00440324     test.obj
 0002:00004358       ??_C@_04HJHJJKDE@WTF?6?$AA@ 00440358     test.obj
 0002:00004360       ??_C@_0DO@BKCPNPIL@?6?9?9?9?9?9?9?9?9?9?9?9?9?9?9?9?9?9?9?9?9?9?9?9?9?9?9?9?9?9?9?9@ 00440360     test.obj
 0002:000043a0       ??_C@_08DBALHFBH@TEST?5?$CFd?6?$AA@ 004403a0     test.obj
 0002:000043ac       ??_C@_0BO@HGPBEBBC@Current?5Frame?3?5?$CFd?5?$CI?$CFdm?5?$CFds?$CJ?6?6?$AA@ 004403ac     test.obj
 0002:000043cc       ??_C@_0N@KBBNPLGM@Completed?3?6?6?$AA@ 004403cc     test.obj
 0002:000043dc       ??_C@_07LNNGGDDE@?7?$CFd?7?$CFs?6?$AA@ 004403dc     test.obj
 0002:000043e4       ??_C@_0BA@EBEMJECA@?6In?5Progress?3?6?6?$AA@ 004403e4     test.obj
 0002:000043f4       ??_C@_0DJ@FLDIENOF@?6?$CF6d?5Minerals?6?$CF6d?5Gas?6?$CF6d?5Max?5Su@ 004403f4     test.obj
 0002:00004430       ??_C@_0CE@JKJIJFKC@?6?$CF6d?5Mineral?5Drones?6?$CF6d?5Gas?5Dron@ 00440430     test.obj
 0002:00004454       ??_C@_02PHMGELLB@?6?6?$AA@ 00440454     test.obj
 0002:00004458       ??_C@_0BM@PAPJHAGI@invalid?5map?1set?$DMT?$DO?5iterator?$AA@ 00440458     test.obj
 0002:00004474       ??_C@_0BG@EOMJEIFA@vector?$DMbool?$DO?5too?5long?$AA@ 00440474     test.obj
 0002:00004490       ??_7out_of_range@std@@6B@  00440490     test.obj
 0002:0000449c       ??_7DFBBStarcraftSearch@BuildOrderSearch@@6B@ 0044049c     test.obj
 0002:000044a0       __real@412e848000000000    004404a0      CIL library: CIL module
 0002:000044a8       __real@3f50624dd2f1a9fc    004404a8      CIL library: CIL module
 0002:000044b0       __real@4008000000000000    004404b0      CIL library: CIL module
 0002:000044b8       __real@3ff0000000000000    004404b8      CIL library: CIL module
 0002:000044c0       __real@3fb1eb851eb851ec    004404c0      CIL library: CIL module
 0002:000044c8       __real@3fa70a3d70a3d70a    004404c8      CIL library: CIL module
 0002:000044d0       __load_config_used         004404d0     MSVCRT:loadcfg.obj
 0002:000045ac       ??_R4type_info@@6B@        004405ac     MSVCRT:ti_inst.obj
 0002:000045c0       ??_R3type_info@@8          004405c0     MSVCRT:ti_inst.obj
 0002:000045d0       ??_R2type_info@@8          004405d0     MSVCRT:ti_inst.obj
 0002:000045d8       ??_R1A@?0A@EA@type_info@@8 004405d8     MSVCRT:ti_inst.obj
 0002:000045f4       ??_R4length_error@std@@6B@ 004405f4     StarcraftData.obj
 0002:00004608       ??_R3length_error@std@@8   00440608     StarcraftData.obj
 0002:00004618       ??_R2length_error@std@@8   00440618     StarcraftData.obj
 0002:00004628       ??_R1A@?0A@EA@length_error@std@@8 00440628     StarcraftData.obj
 0002:00004644       ??_R4logic_error@std@@6B@  00440644     StarcraftData.obj
 0002:00004658       ??_R3logic_error@std@@8    00440658     StarcraftData.obj
 0002:00004668       ??_R2logic_error@std@@8    00440668     StarcraftData.obj
 0002:00004674       ??_R1A@?0A@EA@logic_error@std@@8 00440674     StarcraftData.obj
 0002:00004690       ??_R4bad_alloc@std@@6B@    00440690     StarcraftData.obj
 0002:000046a4       ??_R3bad_alloc@std@@8      004406a4     StarcraftData.obj
 0002:000046b4       ??_R2bad_alloc@std@@8      004406b4     StarcraftData.obj
 0002:000046c0       ??_R1A@?0A@EA@exception@std@@8 004406c0     StarcraftData.obj
 0002:000046dc       ??_R3exception@std@@8      004406dc     StarcraftData.obj
 0002:000046ec       ??_R2exception@std@@8      004406ec     StarcraftData.obj
 0002:000046f4       ??_R1A@?0A@EA@bad_alloc@std@@8 004406f4     StarcraftData.obj
 0002:00004710       ??_R4DFBBStarcraftSearch@BuildOrderSearch@@6B@ 00440710     test.obj
 0002:00004724       ??_R3DFBBStarcraftSearch@BuildOrderSearch@@8 00440724     test.obj
 0002:00004734       ??_R2DFBBStarcraftSearch@BuildOrderSearch@@8 00440734     test.obj
 0002:00004740       ??_R17?0A@EA@StarcraftSearch@BuildOrderSearch@@8 00440740     test.obj
 0002:0000475c       ??_R3StarcraftSearch@BuildOrderSearch@@8 0044075c     test.obj
 0002:0000476c       ??_R2StarcraftSearch@BuildOrderSearch@@8 0044076c     test.obj
 0002:00004774       ??_R1A@?0A@EA@StarcraftSearch@BuildOrderSearch@@8 00440774     test.obj
 0002:00004790       ??_R1A@?0A@EA@DFBBStarcraftSearch@BuildOrderSearch@@8 00440790     test.obj
 0002:000047ac       ??_R4out_of_range@std@@6B@ 004407ac     test.obj
 0002:000047c0       ??_R3out_of_range@std@@8   004407c0     test.obj
 0002:000047d0       ??_R2out_of_range@std@@8   004407d0     test.obj
 0002:000047e0       ??_R1A@?0A@EA@out_of_range@std@@8 004407e0     test.obj
 0002:00004800       ___safe_se_handler_table   00440800     <linker-defined>
 0002:00004998       ___rtc_iaa                 00440998     MSVCRT:_initsect_.obj
 0002:0000499c       ___rtc_izz                 0044099c     MSVCRT:_initsect_.obj
 0002:000049a0       ___rtc_taa                 004409a0     MSVCRT:_initsect_.obj
 0002:000049a4       ___rtc_tzz                 004409a4     MSVCRT:_initsect_.obj
 0002:00004d94       __CT??_R0?AVexception@std@@@8??0exception@std@@QAE@ABV01@@Z12 00440d94     StarcraftData.obj
 0002:00004db0       __CT??_R0?AVlogic_error@std@@@8??0logic_error@std@@QAE@ABV01@@Z40 00440db0     StarcraftData.obj
 0002:00004dcc       __CT??_R0?AVlength_error@std@@@8??0length_error@std@@QAE@ABV01@@Z40 00440dcc     StarcraftData.obj
 0002:00004de8       __CTA3?AVlength_error@std@@ 00440de8     StarcraftData.obj
 0002:00004df8       __TI3?AVlength_error@std@@ 00440df8     StarcraftData.obj
 0002:00004e08       __CT??_R0?AVbad_alloc@std@@@8??0bad_alloc@std@@QAE@ABV01@@Z12 00440e08     StarcraftData.obj
 0002:00004e24       __CTA2?AVbad_alloc@std@@   00440e24     StarcraftData.obj
 0002:00004e30       __TI2?AVbad_alloc@std@@    00440e30     StarcraftData.obj
 0002:00004e40       __CT??_R0?AVout_of_range@std@@@8??0out_of_range@std@@QAE@ABV01@@Z40 00440e40     test.obj
 0002:00004e5c       __CTA3?AVout_of_range@std@@ 00440e5c     test.obj
 0002:00004e6c       __TI3?AVout_of_range@std@@ 00440e6c     test.obj
 0002:00004e7c       __CT??_R0H@84              00440e7c     test.obj
 0002:00004e98       __CTA1H                    00440e98     test.obj
 0002:00004ea0       __TI1H                     00440ea0     test.obj
 0002:00006854       __IMPORT_DESCRIPTOR_KERNEL32 00442854     kernel32:KERNEL32.dll
 0002:00006868       __IMPORT_DESCRIPTOR_MSVCP90 00442868     msvcprt:MSVCP90.dll
 0002:0000687c       __IMPORT_DESCRIPTOR_MSVCR90 0044287c     MSVCRT:MSVCR90.dll
 0002:00006890       __NULL_IMPORT_DESCRIPTOR   00442890     kernel32:KERNEL32.dll
 0003:00000004       ?initializingRace@BWAPI@@3_NA 00444004     BWAPI:Race.obj
 0003:0000000c       ?initializingUnitType@BWAPI@@3_NA 0044400c     BWAPI:UnitType.obj
 0003:00000014       ?initializingUpgradeType@BWAPI@@3_NA 00444014     BWAPI:UpgradeType.obj
 0003:0000001c       ?initializingTechType@BWAPI@@3_NA 0044401c     BWAPI:TechType.obj
 0003:00000024       ?__revisionInfo@@3PBDB     00444024     BWAPI:BWAPI.obj
 0003:00000028       ?__buildInfo@@3PBDB        00444028     BWAPI:BWAPI.obj
 0003:00000038       ?initializingWeaponType@BWAPI@@3_NA 00444038     BWAPI:WeaponType.obj
 0003:00000040       ?initializingUnitSizeType@BWAPI@@3_NA 00444040     BWAPI:UnitSizeType.obj
 0003:00000048       ?initializingOrder@BWAPI@@3_NA 00444048     BWAPI:Order.obj
 0003:00000050       ?initializingGameType@BWAPI@@3_NA 00444050     BWAPI:GameType.obj
 0003:00000060       ?palette@BWAPI@@3PAIA      00444060     BWAPI:Color.obj
 0003:00000464       ?initializingError@BWAPI@@3_NA 00444464     BWAPI:Error.obj
 0003:0000046c       ?initializingBulletType@BWAPI@@3_NA 0044446c     BWAPI:BulletType.obj
 0003:00000474       ?initializingUnitCommandType@BWAPI@@3_NA 00444474     BWAPI:UnitCommandType.obj
 0003:0000047c       ?initializingPlayerType@BWAPI@@3_NA 0044447c     BWAPI:PlayerType.obj
 0003:00000484       ?initializingExplosionType@BWAPI@@3_NA 00444484     BWAPI:ExplosionType.obj
 0003:0000048c       ?initializingDamageType@BWAPI@@3_NA 0044448c     BWAPI:DamageType.obj
 0003:00000490       ??_R0?AVtype_info@@@8      00444490     MSVCRT:ti_inst.obj
 0003:000004b0       ___security_cookie         004444b0     MSVCRT:gs_cookie.obj
 0003:000004b4       ___security_cookie_complement 004444b4     MSVCRT:gs_cookie.obj
 0003:000004b8       ___native_dllmain_reason   004444b8     MSVCRT:natstart.obj
 0003:000004bc       ___native_vcclrit_reason   004444bc     MSVCRT:natstart.obj
 0003:000004c0       ___globallocalestatus      004444c0     MSVCRT:xthdloc.obj
 0003:000004c4       ___defaultmatherr          004444c4     MSVCRT:merr.obj
 0003:000004d0       ??_R0?AVexception@std@@@8  004444d0     StarcraftData.obj
 0003:000004ec       ??_R0?AVlogic_error@std@@@8 004444ec     StarcraftData.obj
 0003:0000050c       ??_R0?AVlength_error@std@@@8 0044450c     StarcraftData.obj
 0003:0000052c       ??_R0?AVbad_alloc@std@@@8  0044452c     StarcraftData.obj
 0003:00000548       ??_R0?AVStarcraftSearch@BuildOrderSearch@@@8 00444548     test.obj
 0003:00000578       ??_R0?AVDFBBStarcraftSearch@BuildOrderSearch@@@8 00444578     test.obj
 0003:000005ac       ??_R0?AVout_of_range@std@@@8 004445ac     test.obj
 0003:000005cc       ??_R0H@8                   004445cc     test.obj
 0003:000005e0       ?raceData@BWAPI@@3PAVRaceInternal@1@A 004445e0     BWAPI:Race.obj
 0003:00000730       ?raceMap@BWAPI@@3V?$map@V?$basic_string@DU?$char_traits@D@std@@V?$allocator@D@2@@std@@VRace@BWAPI@@U?$less@V?$basic_string@DU?$char_traits@D@std@@V?$allocator@D@2@@std@@@2@V?$allocator@U?$pair@$$CBV?$basic_string@DU?$char_traits@D@std@@V?$allocator@D@2@@std@@VRace@BWAPI@@@std@@@2@@std@@A 00444730     BWAPI:Race.obj
 0003:00000750       ?raceSet@BWAPI@@3V?$set@VRace@BWAPI@@U?$less@VRace@BWAPI@@@std@@V?$allocator@VRace@BWAPI@@@4@@std@@A 00444750     BWAPI:Race.obj
 0003:00000770       ?Unknown@Races@BWAPI@@3VRace@2@B 00444770     BWAPI:Race.obj
 0003:00000774       ?None@Races@BWAPI@@3VRace@2@B 00444774     BWAPI:Race.obj
 0003:00000778       ?Terran@Races@BWAPI@@3VRace@2@B 00444778     BWAPI:Race.obj
 0003:0000077c       ?Other@Races@BWAPI@@3VRace@2@B 0044477c     BWAPI:Race.obj
 0003:00000780       ?Protoss@Races@BWAPI@@3VRace@2@B 00444780     BWAPI:Race.obj
 0003:00000784       ?Random@Races@BWAPI@@3VRace@2@B 00444784     BWAPI:Race.obj
 0003:00000788       ?Zerg@Races@BWAPI@@3VRace@2@B 00444788     BWAPI:Race.obj
 0003:00000790       ?maxHeight@BWAPI@@3HA      00444790     BWAPI:UnitType.obj
 0003:00000794       ?maxWidth@BWAPI@@3HA       00444794     BWAPI:UnitType.obj
 0003:00000798       ?Hero_Artanis@UnitTypes@BWAPI@@3VUnitType@2@B 00444798     BWAPI:UnitType.obj
 0003:0000079c       ?Protoss_Corsair@UnitTypes@BWAPI@@3VUnitType@2@B 0044479c     BWAPI:UnitType.obj
 0003:000007a0       ?Terran_Academy@UnitTypes@BWAPI@@3VUnitType@2@B 004447a0     BWAPI:UnitType.obj
 0003:000007a4       ?Unknown@UnitTypes@BWAPI@@3VUnitType@2@B 004447a4     BWAPI:UnitType.obj
 0003:000007a8       ?Protoss_Nexus@UnitTypes@BWAPI@@3VUnitType@2@B 004447a8     BWAPI:UnitType.obj
 0003:000007ac       ?Powerup_Psi_Emitter@UnitTypes@BWAPI@@3VUnitType@2@B 004447ac     BWAPI:UnitType.obj
 0003:000007b0       ?Hero_Jim_Raynor_Marine@UnitTypes@BWAPI@@3VUnitType@2@B 004447b0     BWAPI:UnitType.obj
 0003:000007b4       ?Hero_Torrasque@UnitTypes@BWAPI@@3VUnitType@2@B 004447b4     BWAPI:UnitType.obj
 0003:000007b8       ?Special_XelNaga_Temple@UnitTypes@BWAPI@@3VUnitType@2@B 004447b8     BWAPI:UnitType.obj
 0003:000007bc       ?Powerup_Uraj_Crystal@UnitTypes@BWAPI@@3VUnitType@2@B 004447bc     BWAPI:UnitType.obj
 0003:000007c0       ?Hero_Gerard_DuGalle@UnitTypes@BWAPI@@3VUnitType@2@B 004447c0     BWAPI:UnitType.obj
 0003:000007c4       ?Terran_Marine@UnitTypes@BWAPI@@3VUnitType@2@B 004447c4     BWAPI:UnitType.obj
 0003:000007c8       ?Special_Terran_Beacon@UnitTypes@BWAPI@@3VUnitType@2@B 004447c8     BWAPI:UnitType.obj
 0003:000007cc       ?Hero_Alan_Schezar@UnitTypes@BWAPI@@3VUnitType@2@B 004447cc     BWAPI:UnitType.obj
 0003:000007d0       ?Buildings@UnitTypes@BWAPI@@3VUnitType@2@B 004447d0     BWAPI:UnitType.obj
 0003:000007d4       ?None@UnitTypes@BWAPI@@3VUnitType@2@B 004447d4     BWAPI:UnitType.obj
 0003:000007d8       ?Terran_Nuclear_Silo@UnitTypes@BWAPI@@3VUnitType@2@B 004447d8     BWAPI:UnitType.obj
 0003:000007dc       ?Hero_Samir_Duran@UnitTypes@BWAPI@@3VUnitType@2@B 004447dc     BWAPI:UnitType.obj
 0003:000007e0       ?Zerg_Hive@UnitTypes@BWAPI@@3VUnitType@2@B 004447e0     BWAPI:UnitType.obj
 0003:000007e4       ?Men@UnitTypes@BWAPI@@3VUnitType@2@B 004447e4     BWAPI:UnitType.obj
 0003:000007e8       ?Protoss_Observer@UnitTypes@BWAPI@@3VUnitType@2@B 004447e8     BWAPI:UnitType.obj
 0003:000007ec       ?Terran_Nuclear_Missile@UnitTypes@BWAPI@@3VUnitType@2@B 004447ec     BWAPI:UnitType.obj
 0003:000007f0       ?Hero_Infested_Duran@UnitTypes@BWAPI@@3VUnitType@2@B 004447f0     BWAPI:UnitType.obj
 0003:000007f4       ?Hero_Yggdrasill@UnitTypes@BWAPI@@3VUnitType@2@B 004447f4     BWAPI:UnitType.obj
 0003:000007f8       ?Zerg_Drone@UnitTypes@BWAPI@@3VUnitType@2@B 004447f8     BWAPI:UnitType.obj
 0003:000007fc       ?Hero_Danimoth@UnitTypes@BWAPI@@3VUnitType@2@B 004447fc     BWAPI:UnitType.obj
 0003:00000800       ?Hero_Hyperion@UnitTypes@BWAPI@@3VUnitType@2@B 00444800     BWAPI:UnitType.obj
 0003:00000804       ?Protoss_Arbiter_Tribunal@UnitTypes@BWAPI@@3VUnitType@2@B 00444804     BWAPI:UnitType.obj
 0003:00000808       ?Protoss_Photon_Cannon@UnitTypes@BWAPI@@3VUnitType@2@B 00444808     BWAPI:UnitType.obj
 0003:0000080c       ?Critter_Ragnasaur@UnitTypes@BWAPI@@3VUnitType@2@B 0044480c     BWAPI:UnitType.obj
 0003:00000810       ?Hero_Alexei_Stukov@UnitTypes@BWAPI@@3VUnitType@2@B 00444810     BWAPI:UnitType.obj
 0003:00000814       ?Terran_Battlecruiser@UnitTypes@BWAPI@@3VUnitType@2@B 00444814     BWAPI:UnitType.obj
 0003:00000818       ?Hero_Zeratul@UnitTypes@BWAPI@@3VUnitType@2@B 00444818     BWAPI:UnitType.obj
 0003:0000081c       ?Hero_Unclean_One@UnitTypes@BWAPI@@3VUnitType@2@B 0044481c     BWAPI:UnitType.obj
 0003:00000820       ?Powerup_Terran_Gas_Tank_Type_2@UnitTypes@BWAPI@@3VUnitType@2@B 00444820     BWAPI:UnitType.obj
 0003:00000824       ?Protoss_Zealot@UnitTypes@BWAPI@@3VUnitType@2@B 00444824     BWAPI:UnitType.obj
 0003:00000828       ?Zerg_Ultralisk@UnitTypes@BWAPI@@3VUnitType@2@B 00444828     BWAPI:UnitType.obj
 0003:0000082c       ?Protoss_Interceptor@UnitTypes@BWAPI@@3VUnitType@2@B 0044482c     BWAPI:UnitType.obj
 0003:00000830       ?Protoss_Fleet_Beacon@UnitTypes@BWAPI@@3VUnitType@2@B 00444830     BWAPI:UnitType.obj
 0003:00000834       ?Special_Zerg_Beacon@UnitTypes@BWAPI@@3VUnitType@2@B 00444834     BWAPI:UnitType.obj
 0003:00000838       ?Powerup_Flag@UnitTypes@BWAPI@@3VUnitType@2@B 00444838     BWAPI:UnitType.obj
 0003:0000083c       ?Powerup_Mineral_Cluster_Type_2@UnitTypes@BWAPI@@3VUnitType@2@B 0044483c     BWAPI:UnitType.obj
 0003:00000840       ?Terran_Medic@UnitTypes@BWAPI@@3VUnitType@2@B 00444840     BWAPI:UnitType.obj
 0003:00000844       ?Zerg_Nydus_Canal@UnitTypes@BWAPI@@3VUnitType@2@B 00444844     BWAPI:UnitType.obj
 0003:00000848       ?Hero_Fenix_Zealot@UnitTypes@BWAPI@@3VUnitType@2@B 00444848     BWAPI:UnitType.obj
 0003:0000084c       ?Powerup_Zerg_Gas_Sac_Type_2@UnitTypes@BWAPI@@3VUnitType@2@B 0044484c     BWAPI:UnitType.obj
 0003:00000850       ?Spell_Disruption_Web@UnitTypes@BWAPI@@3VUnitType@2@B 00444850     BWAPI:UnitType.obj
 0003:00000854       ?Special_Zerg_Flag_Beacon@UnitTypes@BWAPI@@3VUnitType@2@B 00444854     BWAPI:UnitType.obj
 0003:00000858       ?Special_Cerebrate_Daggoth@UnitTypes@BWAPI@@3VUnitType@2@B 00444858     BWAPI:UnitType.obj
 0003:0000085c       ?Zerg_Hydralisk_Den@UnitTypes@BWAPI@@3VUnitType@2@B 0044485c     BWAPI:UnitType.obj
 0003:00000860       ?Zerg_Infested_Terran@UnitTypes@BWAPI@@3VUnitType@2@B 00444860     BWAPI:UnitType.obj
 0003:00000864       ?Terran_Dropship@UnitTypes@BWAPI@@3VUnitType@2@B 00444864     BWAPI:UnitType.obj
 0003:00000868       ?Terran_Factory@UnitTypes@BWAPI@@3VUnitType@2@B 00444868     BWAPI:UnitType.obj
 0003:0000086c       ?Special_Right_Wall_Flame_Trap@UnitTypes@BWAPI@@3VUnitType@2@B 0044486c     BWAPI:UnitType.obj
 0003:00000870       ?Zerg_Queens_Nest@UnitTypes@BWAPI@@3VUnitType@2@B 00444870     BWAPI:UnitType.obj
 0003:00000874       ?Zerg_Spire@UnitTypes@BWAPI@@3VUnitType@2@B 00444874     BWAPI:UnitType.obj
 0003:00000878       ?Resource_Mineral_Field@UnitTypes@BWAPI@@3VUnitType@2@B 00444878     BWAPI:UnitType.obj
 0003:0000087c       ?Powerup_Protoss_Gas_Orb_Type_1@UnitTypes@BWAPI@@3VUnitType@2@B 0044487c     BWAPI:UnitType.obj
 0003:00000880       ?Hero_Hunter_Killer@UnitTypes@BWAPI@@3VUnitType@2@B 00444880     BWAPI:UnitType.obj
 0003:00000884       ?Protoss_Shield_Battery@UnitTypes@BWAPI@@3VUnitType@2@B 00444884     BWAPI:UnitType.obj
 0003:00000888       ?Special_Mercenary_Gunship@UnitTypes@BWAPI@@3VUnitType@2@B 00444888     BWAPI:UnitType.obj
 0003:0000088c       ?Zerg_Lurker_Egg@UnitTypes@BWAPI@@3VUnitType@2@B 0044488c     BWAPI:UnitType.obj
 0003:00000890       ?Critter_Scantid@UnitTypes@BWAPI@@3VUnitType@2@B 00444890     BWAPI:UnitType.obj
 0003:00000894       ?Terran_Starport@UnitTypes@BWAPI@@3VUnitType@2@B 00444894     BWAPI:UnitType.obj
 0003:00000898       ?Critter_Kakaru@UnitTypes@BWAPI@@3VUnitType@2@B 00444898     BWAPI:UnitType.obj
 0003:0000089c       ?Protoss_Shuttle@UnitTypes@BWAPI@@3VUnitType@2@B 0044489c     BWAPI:UnitType.obj
 0003:000008a0       ?Terran_Science_Facility@UnitTypes@BWAPI@@3VUnitType@2@B 004448a0     BWAPI:UnitType.obj
 0003:000008a4       ?Hero_Infested_Kerrigan@UnitTypes@BWAPI@@3VUnitType@2@B 004448a4     BWAPI:UnitType.obj
 0003:000008a8       ?Terran_Armory@UnitTypes@BWAPI@@3VUnitType@2@B 004448a8     BWAPI:UnitType.obj
 0003:000008ac       ?Zerg_Evolution_Chamber@UnitTypes@BWAPI@@3VUnitType@2@B 004448ac     BWAPI:UnitType.obj
 0003:000008b0       ?Zerg_Extractor@UnitTypes@BWAPI@@3VUnitType@2@B 004448b0     BWAPI:UnitType.obj
 0003:000008b4       ?Special_Mature_Chrysalis@UnitTypes@BWAPI@@3VUnitType@2@B 004448b4     BWAPI:UnitType.obj
 0003:000008b8       ?Protoss_Cybernetics_Core@UnitTypes@BWAPI@@3VUnitType@2@B 004448b8     BWAPI:UnitType.obj
 0003:000008bc       ?Hero_Dark_Templar@UnitTypes@BWAPI@@3VUnitType@2@B 004448bc     BWAPI:UnitType.obj
 0003:000008c0       ?Protoss_Arbiter@UnitTypes@BWAPI@@3VUnitType@2@B 004448c0     BWAPI:UnitType.obj
 0003:000008c4       ?Powerup_Khaydarin_Crystal@UnitTypes@BWAPI@@3VUnitType@2@B 004448c4     BWAPI:UnitType.obj
 0003:000008c8       ?Special_Ion_Cannon@UnitTypes@BWAPI@@3VUnitType@2@B 004448c8     BWAPI:UnitType.obj
 0003:000008cc       ?Special_Right_Upper_Level_Door@UnitTypes@BWAPI@@3VUnitType@2@B 004448cc     BWAPI:UnitType.obj
 0003:000008d0       ?Hero_Edmund_Duke_Tank_Mode@UnitTypes@BWAPI@@3VUnitType@2@B 004448d0     BWAPI:UnitType.obj
 0003:000008d4       ?Terran_Refinery@UnitTypes@BWAPI@@3VUnitType@2@B 004448d4     BWAPI:UnitType.obj
 0003:000008d8       ?Hero_Warbringer@UnitTypes@BWAPI@@3VUnitType@2@B 004448d8     BWAPI:UnitType.obj
 0003:000008dc       ?Zerg_Larva@UnitTypes@BWAPI@@3VUnitType@2@B 004448dc     BWAPI:UnitType.obj
 0003:000008e0       ?Protoss_Stargate@UnitTypes@BWAPI@@3VUnitType@2@B 004448e0     BWAPI:UnitType.obj
 0003:000008e4       ?Terran_Vulture@UnitTypes@BWAPI@@3VUnitType@2@B 004448e4     BWAPI:UnitType.obj
 0003:000008e8       ?Terran_Command_Center@UnitTypes@BWAPI@@3VUnitType@2@B 004448e8     BWAPI:UnitType.obj
 0003:000008ec       ?Protoss_High_Templar@UnitTypes@BWAPI@@3VUnitType@2@B 004448ec     BWAPI:UnitType.obj
 0003:000008f0       ?Hero_Tassadar_Zeratul_Archon@UnitTypes@BWAPI@@3VUnitType@2@B 004448f0     BWAPI:UnitType.obj
 0003:000008f4       ?Special_Floor_Missile_Trap@UnitTypes@BWAPI@@3VUnitType@2@B 004448f4     BWAPI:UnitType.obj
 0003:000008f8       ?Hero_Tom_Kazansky@UnitTypes@BWAPI@@3VUnitType@2@B 004448f8     BWAPI:UnitType.obj
 0003:000008fc       ?Zerg_Guardian@UnitTypes@BWAPI@@3VUnitType@2@B 004448fc     BWAPI:UnitType.obj
 0003:00000900       ?Zerg_Cocoon@UnitTypes@BWAPI@@3VUnitType@2@B 00444900     BWAPI:UnitType.obj
 0003:00000904       ?Powerup_Khalis_Crystal@UnitTypes@BWAPI@@3VUnitType@2@B 00444904     BWAPI:UnitType.obj
 0003:00000908       ?Special_Cerebrate@UnitTypes@BWAPI@@3VUnitType@2@B 00444908     BWAPI:UnitType.obj
 0003:0000090c       ?Terran_Science_Vessel@UnitTypes@BWAPI@@3VUnitType@2@B 0044490c     BWAPI:UnitType.obj
 0003:00000910       ?Zerg_Infested_Command_Center@UnitTypes@BWAPI@@3VUnitType@2@B 00444910     BWAPI:UnitType.obj
 0003:00000914       ?Special_Warp_Gate@UnitTypes@BWAPI@@3VUnitType@2@B 00444914     BWAPI:UnitType.obj
 0003:00000918       ?Protoss_Forge@UnitTypes@BWAPI@@3VUnitType@2@B 00444918     BWAPI:UnitType.obj
 0003:0000091c       ?Terran_SCV@UnitTypes@BWAPI@@3VUnitType@2@B 0044491c     BWAPI:UnitType.obj
 0003:00000920       ?Powerup_Young_Chrysalis@UnitTypes@BWAPI@@3VUnitType@2@B 00444920     BWAPI:UnitType.obj
 0003:00000924       ?Terran_Goliath@UnitTypes@BWAPI@@3VUnitType@2@B 00444924     BWAPI:UnitType.obj
 0003:00000928       ?Terran_Wraith@UnitTypes@BWAPI@@3VUnitType@2@B 00444928     BWAPI:UnitType.obj
 0003:0000092c       ?Protoss_Dark_Archon@UnitTypes@BWAPI@@3VUnitType@2@B 0044492c     BWAPI:UnitType.obj
 0003:00000930       ?Resource_Mineral_Field_Type_2@UnitTypes@BWAPI@@3VUnitType@2@B 00444930     BWAPI:UnitType.obj
 0003:00000934       ?Terran_Ghost@UnitTypes@BWAPI@@3VUnitType@2@B 00444934     BWAPI:UnitType.obj
 0003:00000938       ?Special_Wall_Missile_Trap@UnitTypes@BWAPI@@3VUnitType@2@B 00444938     BWAPI:UnitType.obj
 0003:0000093c       ?Zerg_Hatchery@UnitTypes@BWAPI@@3VUnitType@2@B 0044493c     BWAPI:UnitType.obj
 0003:00000940       ?Special_Protoss_Flag_Beacon@UnitTypes@BWAPI@@3VUnitType@2@B 00444940     BWAPI:UnitType.obj
 0003:00000944       ?Protoss_Scarab@UnitTypes@BWAPI@@3VUnitType@2@B 00444944     BWAPI:UnitType.obj
 0003:00000948       ?Terran_Valkyrie@UnitTypes@BWAPI@@3VUnitType@2@B 00444948     BWAPI:UnitType.obj
 0003:0000094c       ?Critter_Ursadon@UnitTypes@BWAPI@@3VUnitType@2@B 0044494c     BWAPI:UnitType.obj
 0003:00000950       ?Terran_Engineering_Bay@UnitTypes@BWAPI@@3VUnitType@2@B 00444950     BWAPI:UnitType.obj
 0003:00000954       ?Zerg_Spore_Colony@UnitTypes@BWAPI@@3VUnitType@2@B 00444954     BWAPI:UnitType.obj
 0003:00000958       ?Hero_Devouring_One@UnitTypes@BWAPI@@3VUnitType@2@B 00444958     BWAPI:UnitType.obj
 0003:0000095c       ?Terran_Physics_Lab@UnitTypes@BWAPI@@3VUnitType@2@B 0044495c     BWAPI:UnitType.obj
 0003:00000960       ?Zerg_Greater_Spire@UnitTypes@BWAPI@@3VUnitType@2@B 00444960     BWAPI:UnitType.obj
 0003:00000964       ?Terran_Bunker@UnitTypes@BWAPI@@3VUnitType@2@B 00444964     BWAPI:UnitType.obj
 0003:00000968       ?Special_Overmind_With_Shell@UnitTypes@BWAPI@@3VUnitType@2@B 00444968     BWAPI:UnitType.obj
 0003:0000096c       ?Protoss_Assimilator@UnitTypes@BWAPI@@3VUnitType@2@B 0044496c     BWAPI:UnitType.obj
 0003:00000970       ?Hero_Raszagal@UnitTypes@BWAPI@@3VUnitType@2@B 00444970     BWAPI:UnitType.obj
 0003:00000974       ?Terran_Missile_Turret@UnitTypes@BWAPI@@3VUnitType@2@B 00444974     BWAPI:UnitType.obj
 0003:00000978       ?Hero_Magellan@UnitTypes@BWAPI@@3VUnitType@2@B 00444978     BWAPI:UnitType.obj
 0003:0000097c       ?Protoss_Reaver@UnitTypes@BWAPI@@3VUnitType@2@B 0044497c     BWAPI:UnitType.obj
 0003:00000980       ?Special_Khaydarin_Crystal_Form@UnitTypes@BWAPI@@3VUnitType@2@B 00444980     BWAPI:UnitType.obj
 0003:00000984       ?Special_Right_Pit_Door@UnitTypes@BWAPI@@3VUnitType@2@B 00444984     BWAPI:UnitType.obj
 0003:00000988       ?Protoss_Carrier@UnitTypes@BWAPI@@3VUnitType@2@B 00444988     BWAPI:UnitType.obj
 0003:0000098c       ?Zerg_Sunken_Colony@UnitTypes@BWAPI@@3VUnitType@2@B 0044498c     BWAPI:UnitType.obj
 0003:00000990       ?Powerup_Terran_Gas_Tank_Type_1@UnitTypes@BWAPI@@3VUnitType@2@B 00444990     BWAPI:UnitType.obj
 0003:00000994       ?Powerup_Mineral_Cluster_Type_1@UnitTypes@BWAPI@@3VUnitType@2@B 00444994     BWAPI:UnitType.obj
 0003:00000998       ?Zerg_Creep_Colony@UnitTypes@BWAPI@@3VUnitType@2@B 00444998     BWAPI:UnitType.obj
 0003:0000099c       ?Factories@UnitTypes@BWAPI@@3VUnitType@2@B 0044499c     BWAPI:UnitType.obj
 0003:000009a0       ?Protoss_Templar_Archives@UnitTypes@BWAPI@@3VUnitType@2@B 004449a0     BWAPI:UnitType.obj
 0003:000009a4       ?Protoss_Observatory@UnitTypes@BWAPI@@3VUnitType@2@B 004449a4     BWAPI:UnitType.obj
 0003:000009a8       ?Protoss_Gateway@UnitTypes@BWAPI@@3VUnitType@2@B 004449a8     BWAPI:UnitType.obj
 0003:000009ac       ?Special_Pit_Door@UnitTypes@BWAPI@@3VUnitType@2@B 004449ac     BWAPI:UnitType.obj
 0003:000009b0       ?Powerup_Zerg_Gas_Sac_Type_1@UnitTypes@BWAPI@@3VUnitType@2@B 004449b0     BWAPI:UnitType.obj
 0003:000009b4       ?Zerg_Devourer@UnitTypes@BWAPI@@3VUnitType@2@B 004449b4     BWAPI:UnitType.obj
 0003:000009b8       ?Powerup_Data_Disk@UnitTypes@BWAPI@@3VUnitType@2@B 004449b8     BWAPI:UnitType.obj
 0003:000009bc       ?Zerg_Lair@UnitTypes@BWAPI@@3VUnitType@2@B 004449bc     BWAPI:UnitType.obj
 0003:000009c0       ?Special_Stasis_Cell_Prison@UnitTypes@BWAPI@@3VUnitType@2@B 004449c0     BWAPI:UnitType.obj
 0003:000009c4       ?Protoss_Dragoon@UnitTypes@BWAPI@@3VUnitType@2@B 004449c4     BWAPI:UnitType.obj
 0003:000009c8       ?Terran_Siege_Tank_Siege_Mode@UnitTypes@BWAPI@@3VUnitType@2@B 004449c8     BWAPI:UnitType.obj
 0003:000009cc       ?Zerg_Spawning_Pool@UnitTypes@BWAPI@@3VUnitType@2@B 004449cc     BWAPI:UnitType.obj
 0003:000009d0       ?Special_Floor_Hatch@UnitTypes@BWAPI@@3VUnitType@2@B 004449d0     BWAPI:UnitType.obj
 0003:000009d4       ?Zerg_Scourge@UnitTypes@BWAPI@@3VUnitType@2@B 004449d4     BWAPI:UnitType.obj
 0003:000009d8       ?Zerg_Ultralisk_Cavern@UnitTypes@BWAPI@@3VUnitType@2@B 004449d8     BWAPI:UnitType.obj
 0003:000009dc       ?Special_Floor_Gun_Trap@UnitTypes@BWAPI@@3VUnitType@2@B 004449dc     BWAPI:UnitType.obj
 0003:000009e0       ?Hero_Fenix_Dragoon@UnitTypes@BWAPI@@3VUnitType@2@B 004449e0     BWAPI:UnitType.obj
 0003:000009e4       ?Protoss_Robotics_Support_Bay@UnitTypes@BWAPI@@3VUnitType@2@B 004449e4     BWAPI:UnitType.obj
 0003:000009e8       ?Zerg_Hydralisk@UnitTypes@BWAPI@@3VUnitType@2@B 004449e8     BWAPI:UnitType.obj
 0003:000009ec       ?Zerg_Defiler@UnitTypes@BWAPI@@3VUnitType@2@B 004449ec     BWAPI:UnitType.obj
 0003:000009f0       ?Powerup_Protoss_Gas_Orb_Type_2@UnitTypes@BWAPI@@3VUnitType@2@B 004449f0     BWAPI:UnitType.obj
 0003:000009f4       ?Zerg_Queen@UnitTypes@BWAPI@@3VUnitType@2@B 004449f4     BWAPI:UnitType.obj
 0003:000009f8       ?Protoss_Robotics_Facility@UnitTypes@BWAPI@@3VUnitType@2@B 004449f8     BWAPI:UnitType.obj
 0003:000009fc       ?Critter_Rhynadon@UnitTypes@BWAPI@@3VUnitType@2@B 004449fc     BWAPI:UnitType.obj
 0003:00000a00       ?Special_Start_Location@UnitTypes@BWAPI@@3VUnitType@2@B 00444a00     BWAPI:UnitType.obj
 0003:00000a04       ?Zerg_Mutalisk@UnitTypes@BWAPI@@3VUnitType@2@B 00444a04     BWAPI:UnitType.obj
 0003:00000a08       ?Special_Independant_Starport@UnitTypes@BWAPI@@3VUnitType@2@B 00444a08     BWAPI:UnitType.obj
 0003:00000a0c       ?Special_Overmind_Cocoon@UnitTypes@BWAPI@@3VUnitType@2@B 00444a0c     BWAPI:UnitType.obj
 0003:00000a10       ?Special_Overmind@UnitTypes@BWAPI@@3VUnitType@2@B 00444a10     BWAPI:UnitType.obj
 0003:00000a14       ?Special_Wall_Flame_Trap@UnitTypes@BWAPI@@3VUnitType@2@B 00444a14     BWAPI:UnitType.obj
 0003:00000a18       ?unitTypeData@BWAPI@@3PAVUnitTypeInternal@1@A 00444a18     BWAPI:UnitType.obj
 0003:00012d08       ?unitTypeMap@BWAPI@@3V?$map@V?$basic_string@DU?$char_traits@D@std@@V?$allocator@D@2@@std@@VUnitType@BWAPI@@U?$less@V?$basic_string@DU?$char_traits@D@std@@V?$allocator@D@2@@std@@@2@V?$allocator@U?$pair@$$CBV?$basic_string@DU?$char_traits@D@std@@V?$allocator@D@2@@std@@VUnitType@BWAPI@@@std@@@2@@std@@A 00456d08     BWAPI:UnitType.obj
 0003:00012d28       ?macroTypeSet@BWAPI@@3V?$set@VUnitType@BWAPI@@U?$less@VUnitType@BWAPI@@@std@@V?$allocator@VUnitType@BWAPI@@@4@@std@@A 00456d28     BWAPI:UnitType.obj
 0003:00012d48       ?unitTypeSet@BWAPI@@3V?$set@VUnitType@BWAPI@@U?$less@VUnitType@BWAPI@@@std@@V?$allocator@VUnitType@BWAPI@@@4@@std@@A 00456d48     BWAPI:UnitType.obj
 0003:00012d68       ?Critter_Bengalaas@UnitTypes@BWAPI@@3VUnitType@2@B 00456d68     BWAPI:UnitType.obj
 0003:00012d6c       ?Hero_Gui_Montag@UnitTypes@BWAPI@@3VUnitType@2@B 00456d6c     BWAPI:UnitType.obj
 0003:00012d70       ?Hero_Tassadar@UnitTypes@BWAPI@@3VUnitType@2@B 00456d70     BWAPI:UnitType.obj
 0003:00012d74       ?Hero_Matriarch@UnitTypes@BWAPI@@3VUnitType@2@B 00456d74     BWAPI:UnitType.obj
 0003:00012d78       ?Hero_Gantrithor@UnitTypes@BWAPI@@3VUnitType@2@B 00456d78     BWAPI:UnitType.obj
 0003:00012d7c       ?Spell_Dark_Swarm@UnitTypes@BWAPI@@3VUnitType@2@B 00456d7c     BWAPI:UnitType.obj
 0003:00012d80       ?Hero_Arcturus_Mengsk@UnitTypes@BWAPI@@3VUnitType@2@B 00456d80     BWAPI:UnitType.obj
 0003:00012d84       ?Terran_Machine_Shop@UnitTypes@BWAPI@@3VUnitType@2@B 00456d84     BWAPI:UnitType.obj
 0003:00012d88       ?Protoss_Scout@UnitTypes@BWAPI@@3VUnitType@2@B 00456d88     BWAPI:UnitType.obj
 0003:00012d8c       ?Special_Crashed_Norad_II@UnitTypes@BWAPI@@3VUnitType@2@B 00456d8c     BWAPI:UnitType.obj
 0003:00012d90       ?Special_Right_Wall_Missile_Trap@UnitTypes@BWAPI@@3VUnitType@2@B 00456d90     BWAPI:UnitType.obj
 0003:00012d94       ?Terran_Siege_Tank_Tank_Mode@UnitTypes@BWAPI@@3VUnitType@2@B 00456d94     BWAPI:UnitType.obj
 0003:00012d98       ?Special_Map_Revealer@UnitTypes@BWAPI@@3VUnitType@2@B 00456d98     BWAPI:UnitType.obj
 0003:00012d9c       ?Hero_Edmund_Duke_Siege_Mode@UnitTypes@BWAPI@@3VUnitType@2@B 00456d9c     BWAPI:UnitType.obj
 0003:00012da0       ?Terran_Supply_Depot@UnitTypes@BWAPI@@3VUnitType@2@B 00456da0     BWAPI:UnitType.obj
 0003:00012da4       ?Hero_Norad_II@UnitTypes@BWAPI@@3VUnitType@2@B 00456da4     BWAPI:UnitType.obj
 0003:00012da8       ?Terran_Civilian@UnitTypes@BWAPI@@3VUnitType@2@B 00456da8     BWAPI:UnitType.obj
 0003:00012dac       ?Hero_Kukulza_Mutalisk@UnitTypes@BWAPI@@3VUnitType@2@B 00456dac     BWAPI:UnitType.obj
 0003:00012db0       ?Zerg_Broodling@UnitTypes@BWAPI@@3VUnitType@2@B 00456db0     BWAPI:UnitType.obj
 0003:00012db4       ?Hero_Jim_Raynor_Vulture@UnitTypes@BWAPI@@3VUnitType@2@B 00456db4     BWAPI:UnitType.obj
 0003:00012db8       ?Special_Power_Generator@UnitTypes@BWAPI@@3VUnitType@2@B 00456db8     BWAPI:UnitType.obj
 0003:00012dbc       ?Resource_Mineral_Field_Type_3@UnitTypes@BWAPI@@3VUnitType@2@B 00456dbc     BWAPI:UnitType.obj
 0003:00012dc0       ?Hero_Sarah_Kerrigan@UnitTypes@BWAPI@@3VUnitType@2@B 00456dc0     BWAPI:UnitType.obj
 0003:00012dc4       ?Zerg_Lurker@UnitTypes@BWAPI@@3VUnitType@2@B 00456dc4     BWAPI:UnitType.obj
 0003:00012dc8       ?Terran_Firebat@UnitTypes@BWAPI@@3VUnitType@2@B 00456dc8     BWAPI:UnitType.obj
 0003:00012dcc       ?Special_Protoss_Temple@UnitTypes@BWAPI@@3VUnitType@2@B 00456dcc     BWAPI:UnitType.obj
 0003:00012dd0       ?Hero_Aldaris@UnitTypes@BWAPI@@3VUnitType@2@B 00456dd0     BWAPI:UnitType.obj
 0003:00012dd4       ?Terran_Control_Tower@UnitTypes@BWAPI@@3VUnitType@2@B 00456dd4     BWAPI:UnitType.obj
 0003:00012dd8       ?Special_Protoss_Beacon@UnitTypes@BWAPI@@3VUnitType@2@B 00456dd8     BWAPI:UnitType.obj
 0003:00012ddc       ?Protoss_Dark_Templar@UnitTypes@BWAPI@@3VUnitType@2@B 00456ddc     BWAPI:UnitType.obj
 0003:00012de0       ?Zerg_Zergling@UnitTypes@BWAPI@@3VUnitType@2@B 00456de0     BWAPI:UnitType.obj
 0003:00012de4       ?Zerg_Overlord@UnitTypes@BWAPI@@3VUnitType@2@B 00456de4     BWAPI:UnitType.obj
 0003:00012de8       ?Terran_Vulture_Spider_Mine@UnitTypes@BWAPI@@3VUnitType@2@B 00456de8     BWAPI:UnitType.obj
 0003:00012dec       ?Protoss_Pylon@UnitTypes@BWAPI@@3VUnitType@2@B 00456dec     BWAPI:UnitType.obj
 0003:00012df0       ?Terran_Barracks@UnitTypes@BWAPI@@3VUnitType@2@B 00456df0     BWAPI:UnitType.obj
 0003:00012df4       ?Hero_Mojo@UnitTypes@BWAPI@@3VUnitType@2@B 00456df4     BWAPI:UnitType.obj
 0003:00012df8       ?Special_Upper_Level_Door@UnitTypes@BWAPI@@3VUnitType@2@B 00456df8     BWAPI:UnitType.obj
 0003:00012dfc       ?Protoss_Citadel_of_Adun@UnitTypes@BWAPI@@3VUnitType@2@B 00456dfc     BWAPI:UnitType.obj
 0003:00012e00       ?Special_Terran_Flag_Beacon@UnitTypes@BWAPI@@3VUnitType@2@B 00456e00     BWAPI:UnitType.obj
 0003:00012e04       ?Terran_Covert_Ops@UnitTypes@BWAPI@@3VUnitType@2@B 00456e04     BWAPI:UnitType.obj
 0003:00012e08       ?AllUnits@UnitTypes@BWAPI@@3VUnitType@2@B 00456e08     BWAPI:UnitType.obj
 0003:00012e0c       ?Protoss_Probe@UnitTypes@BWAPI@@3VUnitType@2@B 00456e0c     BWAPI:UnitType.obj
 0003:00012e10       ?Resource_Vespene_Geyser@UnitTypes@BWAPI@@3VUnitType@2@B 00456e10     BWAPI:UnitType.obj
 0003:00012e14       ?Zerg_Egg@UnitTypes@BWAPI@@3VUnitType@2@B 00456e14     BWAPI:UnitType.obj
 0003:00012e18       ?Special_Cargo_Ship@UnitTypes@BWAPI@@3VUnitType@2@B 00456e18     BWAPI:UnitType.obj
 0003:00012e1c       ?Hero_Kukulza_Guardian@UnitTypes@BWAPI@@3VUnitType@2@B 00456e1c     BWAPI:UnitType.obj
 0003:00012e20       ?Zerg_Defiler_Mound@UnitTypes@BWAPI@@3VUnitType@2@B 00456e20     BWAPI:UnitType.obj
 0003:00012e24       ?Spell_Scanner_Sweep@UnitTypes@BWAPI@@3VUnitType@2@B 00456e24     BWAPI:UnitType.obj
 0003:00012e28       ?Special_Psi_Disrupter@UnitTypes@BWAPI@@3VUnitType@2@B 00456e28     BWAPI:UnitType.obj
 0003:00012e2c       ?Protoss_Archon@UnitTypes@BWAPI@@3VUnitType@2@B 00456e2c     BWAPI:UnitType.obj
 0003:00012e30       ?Terran_Comsat_Station@UnitTypes@BWAPI@@3VUnitType@2@B 00456e30     BWAPI:UnitType.obj
 0003:00012e38       ?upgradeTypeData@BWAPI@@3PAVUpgradeTypeInternal@1@A 00456e38     BWAPI:UpgradeType.obj
 0003:000149c8       ?Ocular_Implants@UpgradeTypes@BWAPI@@3VUpgradeType@2@B 004589c8     BWAPI:UpgradeType.obj
 0003:000149cc       ?Unknown@UpgradeTypes@BWAPI@@3VUpgradeType@2@B 004589cc     BWAPI:UpgradeType.obj
 0003:000149d0       ?Gamete_Meiosis@UpgradeTypes@BWAPI@@3VUpgradeType@2@B 004589d0     BWAPI:UpgradeType.obj
 0003:000149d4       ?Charon_Boosters@UpgradeTypes@BWAPI@@3VUpgradeType@2@B 004589d4     BWAPI:UpgradeType.obj
 0003:000149d8       ?Ventral_Sacs@UpgradeTypes@BWAPI@@3VUpgradeType@2@B 004589d8     BWAPI:UpgradeType.obj
 0003:000149dc       ?None@UpgradeTypes@BWAPI@@3VUpgradeType@2@B 004589dc     BWAPI:UpgradeType.obj
 0003:000149e0       ?Zerg_Missile_Attacks@UpgradeTypes@BWAPI@@3VUpgradeType@2@B 004589e0     BWAPI:UpgradeType.obj
 0003:000149e4       ?Zerg_Flyer_Attacks@UpgradeTypes@BWAPI@@3VUpgradeType@2@B 004589e4     BWAPI:UpgradeType.obj
 0003:000149e8       ?Carrier_Capacity@UpgradeTypes@BWAPI@@3VUpgradeType@2@B 004589e8     BWAPI:UpgradeType.obj
 0003:000149ec       ?Zerg_Melee_Attacks@UpgradeTypes@BWAPI@@3VUpgradeType@2@B 004589ec     BWAPI:UpgradeType.obj
 0003:000149f0       ?Ion_Thrusters@UpgradeTypes@BWAPI@@3VUpgradeType@2@B 004589f0     BWAPI:UpgradeType.obj
 0003:000149f4       ?Terran_Ship_Plating@UpgradeTypes@BWAPI@@3VUpgradeType@2@B 004589f4     BWAPI:UpgradeType.obj
 0003:000149f8       ?Protoss_Air_Weapons@UpgradeTypes@BWAPI@@3VUpgradeType@2@B 004589f8     BWAPI:UpgradeType.obj
 0003:000149fc       ?Protoss_Ground_Weapons@UpgradeTypes@BWAPI@@3VUpgradeType@2@B 004589fc     BWAPI:UpgradeType.obj
 0003:00014a00       ?Antennae@UpgradeTypes@BWAPI@@3VUpgradeType@2@B 00458a00     BWAPI:UpgradeType.obj
 0003:00014a04       ?Moebius_Reactor@UpgradeTypes@BWAPI@@3VUpgradeType@2@B 00458a04     BWAPI:UpgradeType.obj
 0003:00014a08       ?Argus_Talisman@UpgradeTypes@BWAPI@@3VUpgradeType@2@B 00458a08     BWAPI:UpgradeType.obj
 0003:00014a0c       ?Sensor_Array@UpgradeTypes@BWAPI@@3VUpgradeType@2@B 00458a0c     BWAPI:UpgradeType.obj
 0003:00014a10       ?Singularity_Charge@UpgradeTypes@BWAPI@@3VUpgradeType@2@B 00458a10     BWAPI:UpgradeType.obj
 0003:00014a14       ?Scarab_Damage@UpgradeTypes@BWAPI@@3VUpgradeType@2@B 00458a14     BWAPI:UpgradeType.obj
 0003:00014a18       ?Titan_Reactor@UpgradeTypes@BWAPI@@3VUpgradeType@2@B 00458a18     BWAPI:UpgradeType.obj
 0003:00014a1c       ?Terran_Infantry_Weapons@UpgradeTypes@BWAPI@@3VUpgradeType@2@B 00458a1c     BWAPI:UpgradeType.obj
 0003:00014a20       ?Colossus_Reactor@UpgradeTypes@BWAPI@@3VUpgradeType@2@B 00458a20     BWAPI:UpgradeType.obj
 0003:00014a24       ?Caduceus_Reactor@UpgradeTypes@BWAPI@@3VUpgradeType@2@B 00458a24     BWAPI:UpgradeType.obj
 0003:00014a28       ?Adrenal_Glands@UpgradeTypes@BWAPI@@3VUpgradeType@2@B 00458a28     BWAPI:UpgradeType.obj
 0003:00014a2c       ?Protoss_Air_Armor@UpgradeTypes@BWAPI@@3VUpgradeType@2@B 00458a2c     BWAPI:UpgradeType.obj
 0003:00014a30       ?Metasynaptic_Node@UpgradeTypes@BWAPI@@3VUpgradeType@2@B 00458a30     BWAPI:UpgradeType.obj
 0003:00014a34       ?Protoss_Plasma_Shields@UpgradeTypes@BWAPI@@3VUpgradeType@2@B 00458a34     BWAPI:UpgradeType.obj
 0003:00014a38       ?Terran_Infantry_Armor@UpgradeTypes@BWAPI@@3VUpgradeType@2@B 00458a38     BWAPI:UpgradeType.obj
 0003:00014a3c       ?Grooved_Spines@UpgradeTypes@BWAPI@@3VUpgradeType@2@B 00458a3c     BWAPI:UpgradeType.obj
 0003:00014a40       ?Khaydarin_Amulet@UpgradeTypes@BWAPI@@3VUpgradeType@2@B 00458a40     BWAPI:UpgradeType.obj
 0003:00014a44       ?U_238_Shells@UpgradeTypes@BWAPI@@3VUpgradeType@2@B 00458a44     BWAPI:UpgradeType.obj
 0003:00014a48       ?Anabolic_Synthesis@UpgradeTypes@BWAPI@@3VUpgradeType@2@B 00458a48     BWAPI:UpgradeType.obj
 0003:00014a4c       ?Metabolic_Boost@UpgradeTypes@BWAPI@@3VUpgradeType@2@B 00458a4c     BWAPI:UpgradeType.obj
 0003:00014a50       ?Khaydarin_Core@UpgradeTypes@BWAPI@@3VUpgradeType@2@B 00458a50     BWAPI:UpgradeType.obj
 0003:00014a54       ?Leg_Enhancements@UpgradeTypes@BWAPI@@3VUpgradeType@2@B 00458a54     BWAPI:UpgradeType.obj
 0003:00014a58       ?upgradeTypeSet@BWAPI@@3V?$set@VUpgradeType@BWAPI@@U?$less@VUpgradeType@BWAPI@@@std@@V?$allocator@VUpgradeType@BWAPI@@@4@@std@@A 00458a58     BWAPI:UpgradeType.obj
 0003:00014a78       ?Zerg_Carapace@UpgradeTypes@BWAPI@@3VUpgradeType@2@B 00458a78     BWAPI:UpgradeType.obj
 0003:00014a7c       ?Argus_Jewel@UpgradeTypes@BWAPI@@3VUpgradeType@2@B 00458a7c     BWAPI:UpgradeType.obj
 0003:00014a80       ?Apollo_Reactor@UpgradeTypes@BWAPI@@3VUpgradeType@2@B 00458a80     BWAPI:UpgradeType.obj
 0003:00014a84       ?Protoss_Ground_Armor@UpgradeTypes@BWAPI@@3VUpgradeType@2@B 00458a84     BWAPI:UpgradeType.obj
 0003:00014a88       ?Apial_Sensors@UpgradeTypes@BWAPI@@3VUpgradeType@2@B 00458a88     BWAPI:UpgradeType.obj
 0003:00014a8c       ?Reaver_Capacity@UpgradeTypes@BWAPI@@3VUpgradeType@2@B 00458a8c     BWAPI:UpgradeType.obj
 0003:00014a90       ?Terran_Ship_Weapons@UpgradeTypes@BWAPI@@3VUpgradeType@2@B 00458a90     BWAPI:UpgradeType.obj
 0003:00014a94       ?Terran_Vehicle_Plating@UpgradeTypes@BWAPI@@3VUpgradeType@2@B 00458a94     BWAPI:UpgradeType.obj
 0003:00014a98       ?Pneumatized_Carapace@UpgradeTypes@BWAPI@@3VUpgradeType@2@B 00458a98     BWAPI:UpgradeType.obj
 0003:00014a9c       ?Chitinous_Plating@UpgradeTypes@BWAPI@@3VUpgradeType@2@B 00458a9c     BWAPI:UpgradeType.obj
 0003:00014aa0       ?Muscular_Augments@UpgradeTypes@BWAPI@@3VUpgradeType@2@B 00458aa0     BWAPI:UpgradeType.obj
 0003:00014aa4       ?Terran_Vehicle_Weapons@UpgradeTypes@BWAPI@@3VUpgradeType@2@B 00458aa4     BWAPI:UpgradeType.obj
 0003:00014aa8       ?upgradeTypeMap@BWAPI@@3V?$map@V?$basic_string@DU?$char_traits@D@std@@V?$allocator@D@2@@std@@VUpgradeType@BWAPI@@U?$less@V?$basic_string@DU?$char_traits@D@std@@V?$allocator@D@2@@std@@@2@V?$allocator@U?$pair@$$CBV?$basic_string@DU?$char_traits@D@std@@V?$allocator@D@2@@std@@VUpgradeType@BWAPI@@@std@@@2@@std@@A 00458aa8     BWAPI:UpgradeType.obj
 0003:00014ac8       ?Gravitic_Drive@UpgradeTypes@BWAPI@@3VUpgradeType@2@B 00458ac8     BWAPI:UpgradeType.obj
 0003:00014acc       ?Gravitic_Thrusters@UpgradeTypes@BWAPI@@3VUpgradeType@2@B 00458acc     BWAPI:UpgradeType.obj
 0003:00014ad0       ?Gravitic_Boosters@UpgradeTypes@BWAPI@@3VUpgradeType@2@B 00458ad0     BWAPI:UpgradeType.obj
 0003:00014ad4       ?Zerg_Flyer_Carapace@UpgradeTypes@BWAPI@@3VUpgradeType@2@B 00458ad4     BWAPI:UpgradeType.obj
 0003:00014ad8       ?techTypeSet@BWAPI@@3V?$set@VTechType@BWAPI@@U?$less@VTechType@BWAPI@@@std@@V?$allocator@VTechType@BWAPI@@@4@@std@@A 00458ad8     BWAPI:TechType.obj
 0003:00014af8       ?Unknown@TechTypes@BWAPI@@3VTechType@2@B 00458af8     BWAPI:TechType.obj
 0003:00014afc       ?Spawn_Broodlings@TechTypes@BWAPI@@3VTechType@2@B 00458afc     BWAPI:TechType.obj
 0003:00014b00       ?Irradiate@TechTypes@BWAPI@@3VTechType@2@B 00458b00     BWAPI:TechType.obj
 0003:00014b04       ?None@TechTypes@BWAPI@@3VTechType@2@B 00458b04     BWAPI:TechType.obj
 0003:00014b08       ?Consume@TechTypes@BWAPI@@3VTechType@2@B 00458b08     BWAPI:TechType.obj
 0003:00014b0c       ?Restoration@TechTypes@BWAPI@@3VTechType@2@B 00458b0c     BWAPI:TechType.obj
 0003:00014b10       ?Archon_Warp@TechTypes@BWAPI@@3VTechType@2@B 00458b10     BWAPI:TechType.obj
 0003:00014b14       ?Plague@TechTypes@BWAPI@@3VTechType@2@B 00458b14     BWAPI:TechType.obj
 0003:00014b18       ?Defensive_Matrix@TechTypes@BWAPI@@3VTechType@2@B 00458b18     BWAPI:TechType.obj
 0003:00014b1c       ?Dark_Swarm@TechTypes@BWAPI@@3VTechType@2@B 00458b1c     BWAPI:TechType.obj
 0003:00014b20       ?EMP_Shockwave@TechTypes@BWAPI@@3VTechType@2@B 00458b20     BWAPI:TechType.obj
 0003:00014b24       ?Nuclear_Strike@TechTypes@BWAPI@@3VTechType@2@B 00458b24     BWAPI:TechType.obj
 0003:00014b28       ?Optical_Flare@TechTypes@BWAPI@@3VTechType@2@B 00458b28     BWAPI:TechType.obj
 0003:00014b2c       ?Lockdown@TechTypes@BWAPI@@3VTechType@2@B 00458b2c     BWAPI:TechType.obj
 0003:00014b30       ?Lurker_Aspect@TechTypes@BWAPI@@3VTechType@2@B 00458b30     BWAPI:TechType.obj
 0003:00014b34       ?Stim_Packs@TechTypes@BWAPI@@3VTechType@2@B 00458b34     BWAPI:TechType.obj
 0003:00014b38       ?Tank_Siege_Mode@TechTypes@BWAPI@@3VTechType@2@B 00458b38     BWAPI:TechType.obj
 0003:00014b3c       ?Healing@TechTypes@BWAPI@@3VTechType@2@B 00458b3c     BWAPI:TechType.obj
 0003:00014b40       ?Spider_Mines@TechTypes@BWAPI@@3VTechType@2@B 00458b40     BWAPI:TechType.obj
 0003:00014b44       ?Burrowing@TechTypes@BWAPI@@3VTechType@2@B 00458b44     BWAPI:TechType.obj
 0003:00014b48       ?Yamato_Gun@TechTypes@BWAPI@@3VTechType@2@B 00458b48     BWAPI:TechType.obj
 0003:00014b4c       ?Recall@TechTypes@BWAPI@@3VTechType@2@B 00458b4c     BWAPI:TechType.obj
 0003:00014b50       ?Stasis_Field@TechTypes@BWAPI@@3VTechType@2@B 00458b50     BWAPI:TechType.obj
 0003:00014b54       ?Cloaking_Field@TechTypes@BWAPI@@3VTechType@2@B 00458b54     BWAPI:TechType.obj
 0003:00014b58       ?Dark_Archon_Meld@TechTypes@BWAPI@@3VTechType@2@B 00458b58     BWAPI:TechType.obj
 0003:00014b5c       ?Hallucination@TechTypes@BWAPI@@3VTechType@2@B 00458b5c     BWAPI:TechType.obj
 0003:00014b60       ?Personnel_Cloaking@TechTypes@BWAPI@@3VTechType@2@B 00458b60     BWAPI:TechType.obj
 0003:00014b64       ?Scanner_Sweep@TechTypes@BWAPI@@3VTechType@2@B 00458b64     BWAPI:TechType.obj
 0003:00014b68       ?Infestation@TechTypes@BWAPI@@3VTechType@2@B 00458b68     BWAPI:TechType.obj
 0003:00014b6c       ?Ensnare@TechTypes@BWAPI@@3VTechType@2@B 00458b6c     BWAPI:TechType.obj
 0003:00014b70       ?techTypeMap@BWAPI@@3V?$map@V?$basic_string@DU?$char_traits@D@std@@V?$allocator@D@2@@std@@VTechType@BWAPI@@U?$less@V?$basic_string@DU?$char_traits@D@std@@V?$allocator@D@2@@std@@@2@V?$allocator@U?$pair@$$CBV?$basic_string@DU?$char_traits@D@std@@V?$allocator@D@2@@std@@VTechType@BWAPI@@@std@@@2@@std@@A 00458b70     BWAPI:TechType.obj
 0003:00014b90       ?Disruption_Web@TechTypes@BWAPI@@3VTechType@2@B 00458b90     BWAPI:TechType.obj
 0003:00014b94       ?Psionic_Storm@TechTypes@BWAPI@@3VTechType@2@B 00458b94     BWAPI:TechType.obj
 0003:00014b98       ?Maelstrom@TechTypes@BWAPI@@3VTechType@2@B 00458b98     BWAPI:TechType.obj
 0003:00014b9c       ?Feedback@TechTypes@BWAPI@@3VTechType@2@B 00458b9c     BWAPI:TechType.obj
 0003:00014ba0       ?Mind_Control@TechTypes@BWAPI@@3VTechType@2@B 00458ba0     BWAPI:TechType.obj
 0003:00014ba4       ?Parasite@TechTypes@BWAPI@@3VTechType@2@B 00458ba4     BWAPI:TechType.obj
 0003:00014ba8       ?techTypeData@BWAPI@@3PAVTechTypeInternal@1@A 00458ba8     BWAPI:TechType.obj
 0003:00015e08       ?specialWeaponTypeSet@BWAPI@@3V?$set@VWeaponType@BWAPI@@U?$less@VWeaponType@BWAPI@@@std@@V?$allocator@VWeaponType@BWAPI@@@4@@std@@A 00459e08     BWAPI:WeaponType.obj
 0003:00015e28       ?weaponTypeMap@BWAPI@@3V?$map@V?$basic_string@DU?$char_traits@D@std@@V?$allocator@D@2@@std@@VWeaponType@BWAPI@@U?$less@V?$basic_string@DU?$char_traits@D@std@@V?$allocator@D@2@@std@@@2@V?$allocator@U?$pair@$$CBV?$basic_string@DU?$char_traits@D@std@@V?$allocator@D@2@@std@@VWeaponType@BWAPI@@@std@@@2@@std@@A 00459e28     BWAPI:WeaponType.obj
 0003:00015e48       ?weaponTypeData@BWAPI@@3PAVWeaponTypeInternal@1@A 00459e48     BWAPI:WeaponType.obj
 0003:00018fc8       ?weaponTypeSet@BWAPI@@3V?$set@VWeaponType@BWAPI@@U?$less@VWeaponType@BWAPI@@@std@@V?$allocator@VWeaponType@BWAPI@@@4@@std@@A 0045cfc8     BWAPI:WeaponType.obj
 0003:00018fe8       ?Unknown@WeaponTypes@BWAPI@@3VWeaponType@2@B 0045cfe8     BWAPI:WeaponType.obj
 0003:00018fec       ?Phase_Disruptor@WeaponTypes@BWAPI@@3VWeaponType@2@B 0045cfec     BWAPI:WeaponType.obj
 0003:00018ff0       ?Spawn_Broodlings@WeaponTypes@BWAPI@@3VWeaponType@2@B 0045cff0     BWAPI:WeaponType.obj
 0003:00018ff4       ?ATA_Laser_Battery_Hero@WeaponTypes@BWAPI@@3VWeaponType@2@B 0045cff4     BWAPI:WeaponType.obj
 0003:00018ff8       ?Acid_Spore_Kukulza@WeaponTypes@BWAPI@@3VWeaponType@2@B 0045cff8     BWAPI:WeaponType.obj
 0003:00018ffc       ?Warp_Blades_Zeratul@WeaponTypes@BWAPI@@3VWeaponType@2@B 0045cffc     BWAPI:WeaponType.obj
 0003:00019000       ?C_10_Canister_Rifle@WeaponTypes@BWAPI@@3VWeaponType@2@B 0045d000     BWAPI:WeaponType.obj
 0003:00019004       ?Irradiate@WeaponTypes@BWAPI@@3VWeaponType@2@B 0045d004     BWAPI:WeaponType.obj
 0003:00019008       ?Needle_Spines@WeaponTypes@BWAPI@@3VWeaponType@2@B 0045d008     BWAPI:WeaponType.obj
 0003:0001900c       ?Twin_Autocannons_Floor_Trap@WeaponTypes@BWAPI@@3VWeaponType@2@B 0045d00c     BWAPI:WeaponType.obj
 0003:00019010       ?Claws@WeaponTypes@BWAPI@@3VWeaponType@2@B 0045d010     BWAPI:WeaponType.obj
 0003:00019014       ?Pulse_Cannon@WeaponTypes@BWAPI@@3VWeaponType@2@B 0045d014     BWAPI:WeaponType.obj
 0003:00019018       ?None@WeaponTypes@BWAPI@@3VWeaponType@2@B 0045d018     BWAPI:WeaponType.obj
 0003:0001901c       ?Consume@WeaponTypes@BWAPI@@3VWeaponType@2@B 0045d01c     BWAPI:WeaponType.obj
 0003:00019020       ?C_10_Canister_Rifle_Alexei_Stukov@WeaponTypes@BWAPI@@3VWeaponType@2@B 0045d020     BWAPI:WeaponType.obj
 0003:00019024       ?Phase_Disruptor_Cannon@WeaponTypes@BWAPI@@3VWeaponType@2@B 0045d024     BWAPI:WeaponType.obj
 0003:00019028       ?Fusion_Cutter@WeaponTypes@BWAPI@@3VWeaponType@2@B 0045d028     BWAPI:WeaponType.obj
 0003:0001902c       ?Restoration@WeaponTypes@BWAPI@@3VWeaponType@2@B 0045d02c     BWAPI:WeaponType.obj
 0003:00019030       ?Claws_Infested_Kerrigan@WeaponTypes@BWAPI@@3VWeaponType@2@B 0045d030     BWAPI:WeaponType.obj
 0003:00019034       ?Plague@WeaponTypes@BWAPI@@3VWeaponType@2@B 0045d034     BWAPI:WeaponType.obj
 0003:00019038       ?STA_Photon_Cannon@WeaponTypes@BWAPI@@3VWeaponType@2@B 0045d038     BWAPI:WeaponType.obj
 0003:0001903c       ?Dark_Swarm@WeaponTypes@BWAPI@@3VWeaponType@2@B 0045d03c     BWAPI:WeaponType.obj
 0003:00019040       ?EMP_Shockwave@WeaponTypes@BWAPI@@3VWeaponType@2@B 0045d040     BWAPI:WeaponType.obj
 0003:00019044       ?Suicide_Infested_Terran@WeaponTypes@BWAPI@@3VWeaponType@2@B 0045d044     BWAPI:WeaponType.obj
 0003:00019048       ?ATA_Laser_Battery_Hyperion@WeaponTypes@BWAPI@@3VWeaponType@2@B 0045d048     BWAPI:WeaponType.obj
 0003:0001904c       ?Psionic_Shockwave_TZ_Archon@WeaponTypes@BWAPI@@3VWeaponType@2@B 0045d04c     BWAPI:WeaponType.obj
 0003:00019050       ?Arclite_Cannon@WeaponTypes@BWAPI@@3VWeaponType@2@B 0045d050     BWAPI:WeaponType.obj
 0003:00019054       ?Dual_Photon_Blasters_Mojo@WeaponTypes@BWAPI@@3VWeaponType@2@B 0045d054     BWAPI:WeaponType.obj
 0003:00019058       ?Hellfire_Missile_Pack_Floor_Trap@WeaponTypes@BWAPI@@3VWeaponType@2@B 0045d058     BWAPI:WeaponType.obj
 0003:0001905c       ?Arclite_Cannon_Edmund_Duke@WeaponTypes@BWAPI@@3VWeaponType@2@B 0045d05c     BWAPI:WeaponType.obj
 0003:00019060       ?Gauss_Rifle@WeaponTypes@BWAPI@@3VWeaponType@2@B 0045d060     BWAPI:WeaponType.obj
 0003:00019064       ?Hellfire_Missile_Pack_Wall_Trap@WeaponTypes@BWAPI@@3VWeaponType@2@B 0045d064     BWAPI:WeaponType.obj
 0003:00019068       ?Scarab@WeaponTypes@BWAPI@@3VWeaponType@2@B 0045d068     BWAPI:WeaponType.obj
 0003:0001906c       ?Arclite_Shock_Cannon_Edmund_Duke@WeaponTypes@BWAPI@@3VWeaponType@2@B 0045d06c     BWAPI:WeaponType.obj
 0003:00019070       ?Nuclear_Strike@WeaponTypes@BWAPI@@3VWeaponType@2@B 0045d070     BWAPI:WeaponType.obj
 0003:00019074       ?Longbolt_Missile@WeaponTypes@BWAPI@@3VWeaponType@2@B 0045d074     BWAPI:WeaponType.obj
 0003:00019078       ?Optical_Flare@WeaponTypes@BWAPI@@3VWeaponType@2@B 0045d078     BWAPI:WeaponType.obj
 0003:0001907c       ?Fragmentation_Grenade_Jim_Raynor@WeaponTypes@BWAPI@@3VWeaponType@2@B 0045d07c     BWAPI:WeaponType.obj
 0003:00019080       ?Lockdown@WeaponTypes@BWAPI@@3VWeaponType@2@B 0045d080     BWAPI:WeaponType.obj
 0003:00019084       ?Arclite_Shock_Cannon@WeaponTypes@BWAPI@@3VWeaponType@2@B 0045d084     BWAPI:WeaponType.obj
 0003:00019088       ?Flame_Thrower_Gui_Montag@WeaponTypes@BWAPI@@3VWeaponType@2@B 0045d088     BWAPI:WeaponType.obj
 0003:0001908c       ?Gauss_Rifle_Jim_Raynor@WeaponTypes@BWAPI@@3VWeaponType@2@B 0045d08c     BWAPI:WeaponType.obj
 0003:00019090       ?Subterranean_Spines@WeaponTypes@BWAPI@@3VWeaponType@2@B 0045d090     BWAPI:WeaponType.obj
 0003:00019094       ?Dual_Photon_Blasters@WeaponTypes@BWAPI@@3VWeaponType@2@B 0045d094     BWAPI:WeaponType.obj
 0003:00019098       ?Spider_Mines@WeaponTypes@BWAPI@@3VWeaponType@2@B 0045d098     BWAPI:WeaponType.obj
 0003:0001909c       ?Gemini_Missiles@WeaponTypes@BWAPI@@3VWeaponType@2@B 0045d09c     BWAPI:WeaponType.obj
 0003:000190a0       ?Glave_Wurm_Kukulza@WeaponTypes@BWAPI@@3VWeaponType@2@B 0045d0a0     BWAPI:WeaponType.obj
 0003:000190a4       ?Neutron_Flare@WeaponTypes@BWAPI@@3VWeaponType@2@B 0045d0a4     BWAPI:WeaponType.obj
 0003:000190a8       ?Burst_Lasers@WeaponTypes@BWAPI@@3VWeaponType@2@B 0045d0a8     BWAPI:WeaponType.obj
 0003:000190ac       ?Yamato_Gun@WeaponTypes@BWAPI@@3VWeaponType@2@B 0045d0ac     BWAPI:WeaponType.obj
 0003:000190b0       ?Claws_Devouring_One@WeaponTypes@BWAPI@@3VWeaponType@2@B 0045d0b0     BWAPI:WeaponType.obj
 0003:000190b4       ?Burst_Lasers_Tom_Kazansky@WeaponTypes@BWAPI@@3VWeaponType@2@B 0045d0b4     BWAPI:WeaponType.obj
 0003:000190b8       ?Spines@WeaponTypes@BWAPI@@3VWeaponType@2@B 0045d0b8     BWAPI:WeaponType.obj
 0003:000190bc       ?Gemini_Missiles_Tom_Kazansky@WeaponTypes@BWAPI@@3VWeaponType@2@B 0045d0bc     BWAPI:WeaponType.obj
 0003:000190c0       ?Acid_Spore@WeaponTypes@BWAPI@@3VWeaponType@2@B 0045d0c0     BWAPI:WeaponType.obj
 0003:000190c4       ?Stasis_Field@WeaponTypes@BWAPI@@3VWeaponType@2@B 0045d0c4     BWAPI:WeaponType.obj
 0003:000190c8       ?Anti_Matter_Missiles@WeaponTypes@BWAPI@@3VWeaponType@2@B 0045d0c8     BWAPI:WeaponType.obj
 0003:000190cc       ?STS_Photon_Cannon@WeaponTypes@BWAPI@@3VWeaponType@2@B 0045d0cc     BWAPI:WeaponType.obj
 0003:000190d0       ?ATS_Laser_Battery_Hyperion@WeaponTypes@BWAPI@@3VWeaponType@2@B 0045d0d0     BWAPI:WeaponType.obj
 0003:000190d4       ?ATA_Laser_Battery@WeaponTypes@BWAPI@@3VWeaponType@2@B 0045d0d4     BWAPI:WeaponType.obj
 0003:000190d8       ?Toxic_Spores@WeaponTypes@BWAPI@@3VWeaponType@2@B 0045d0d8     BWAPI:WeaponType.obj
 0003:000190dc       ?Warp_Blades@WeaponTypes@BWAPI@@3VWeaponType@2@B 0045d0dc     BWAPI:WeaponType.obj
 0003:000190e0       ?ATS_Laser_Battery_Hero@WeaponTypes@BWAPI@@3VWeaponType@2@B 0045d0e0     BWAPI:WeaponType.obj
 0003:000190e4       ?Needle_Spines_Hunter_Killer@WeaponTypes@BWAPI@@3VWeaponType@2@B 0045d0e4     BWAPI:WeaponType.obj
 0003:000190e8       ?Corrosive_Acid@WeaponTypes@BWAPI@@3VWeaponType@2@B 0045d0e8     BWAPI:WeaponType.obj
 0003:000190ec       ?C_10_Canister_Rifle_Infested_Duran@WeaponTypes@BWAPI@@3VWeaponType@2@B 0045d0ec     BWAPI:WeaponType.obj
 0003:000190f0       ?C_10_Canister_Rifle_Samir_Duran@WeaponTypes@BWAPI@@3VWeaponType@2@B 0045d0f0     BWAPI:WeaponType.obj
 0003:000190f4       ?C_10_Canister_Rifle_Sarah_Kerrigan@WeaponTypes@BWAPI@@3VWeaponType@2@B 0045d0f4     BWAPI:WeaponType.obj
 0003:000190f8       ?Subterranean_Tentacle@WeaponTypes@BWAPI@@3VWeaponType@2@B 0045d0f8     BWAPI:WeaponType.obj
 0003:000190fc       ?Kaiser_Blades_Torrasque@WeaponTypes@BWAPI@@3VWeaponType@2@B 0045d0fc     BWAPI:WeaponType.obj
 0003:00019100       ?Psi_Blades@WeaponTypes@BWAPI@@3VWeaponType@2@B 0045d100     BWAPI:WeaponType.obj
 0003:00019104       ?Psi_Assault@WeaponTypes@BWAPI@@3VWeaponType@2@B 0045d104     BWAPI:WeaponType.obj
 0003:00019108       ?Kaiser_Blades@WeaponTypes@BWAPI@@3VWeaponType@2@B 0045d108     BWAPI:WeaponType.obj
 0003:0001910c       ?Independant_Laser_Battery@WeaponTypes@BWAPI@@3VWeaponType@2@B 0045d10c     BWAPI:WeaponType.obj
 0003:00019110       ?Ensnare@WeaponTypes@BWAPI@@3VWeaponType@2@B 0045d110     BWAPI:WeaponType.obj
 0003:00019114       ?ATS_Laser_Battery@WeaponTypes@BWAPI@@3VWeaponType@2@B 0045d114     BWAPI:WeaponType.obj
 0003:00019118       ?Particle_Beam@WeaponTypes@BWAPI@@3VWeaponType@2@B 0045d118     BWAPI:WeaponType.obj
 0003:0001911c       ?Disruption_Web@WeaponTypes@BWAPI@@3VWeaponType@2@B 0045d11c     BWAPI:WeaponType.obj
 0003:00019120       ?Flame_Thrower_Wall_Trap@WeaponTypes@BWAPI@@3VWeaponType@2@B 0045d120     BWAPI:WeaponType.obj
 0003:00019124       ?Flame_Thrower@WeaponTypes@BWAPI@@3VWeaponType@2@B 0045d124     BWAPI:WeaponType.obj
 0003:00019128       ?Psionic_Storm@WeaponTypes@BWAPI@@3VWeaponType@2@B 0045d128     BWAPI:WeaponType.obj
 0003:0001912c       ?Anti_Matter_Missiles_Mojo@WeaponTypes@BWAPI@@3VWeaponType@2@B 0045d12c     BWAPI:WeaponType.obj
 0003:00019130       ?Dual_Photon_Blasters_Artanis@WeaponTypes@BWAPI@@3VWeaponType@2@B 0045d130     BWAPI:WeaponType.obj
 0003:00019134       ?Maelstrom@WeaponTypes@BWAPI@@3VWeaponType@2@B 0045d134     BWAPI:WeaponType.obj
 0003:00019138       ?normalWeaponTypeSet@BWAPI@@3V?$set@VWeaponType@BWAPI@@U?$less@VWeaponType@BWAPI@@@std@@V?$allocator@VWeaponType@BWAPI@@@4@@std@@A 0045d138     BWAPI:WeaponType.obj
 0003:00019158       ?Hellfire_Missile_Pack@WeaponTypes@BWAPI@@3VWeaponType@2@B 0045d158     BWAPI:WeaponType.obj
 0003:0001915c       ?Feedback@WeaponTypes@BWAPI@@3VWeaponType@2@B 0045d15c     BWAPI:WeaponType.obj
 0003:00019160       ?Twin_Autocannons_Alan_Schezar@WeaponTypes@BWAPI@@3VWeaponType@2@B 0045d160     BWAPI:WeaponType.obj
 0003:00019164       ?Glave_Wurm@WeaponTypes@BWAPI@@3VWeaponType@2@B 0045d164     BWAPI:WeaponType.obj
 0003:00019168       ?Mind_Control@WeaponTypes@BWAPI@@3VWeaponType@2@B 0045d168     BWAPI:WeaponType.obj
 0003:0001916c       ?Seeker_Spores@WeaponTypes@BWAPI@@3VWeaponType@2@B 0045d16c     BWAPI:WeaponType.obj
 0003:00019170       ?Psionic_Shockwave@WeaponTypes@BWAPI@@3VWeaponType@2@B 0045d170     BWAPI:WeaponType.obj
 0003:00019174       ?Phase_Disruptor_Fenix@WeaponTypes@BWAPI@@3VWeaponType@2@B 0045d174     BWAPI:WeaponType.obj
 0003:00019178       ?Warp_Blades_Hero@WeaponTypes@BWAPI@@3VWeaponType@2@B 0045d178     BWAPI:WeaponType.obj
 0003:0001917c       ?Psi_Blades_Fenix@WeaponTypes@BWAPI@@3VWeaponType@2@B 0045d17c     BWAPI:WeaponType.obj
 0003:00019180       ?Phase_Disruptor_Cannon_Danimoth@WeaponTypes@BWAPI@@3VWeaponType@2@B 0045d180     BWAPI:WeaponType.obj
 0003:00019184       ?Anti_Matter_Missiles_Artanis@WeaponTypes@BWAPI@@3VWeaponType@2@B 0045d184     BWAPI:WeaponType.obj
 0003:00019188       ?Twin_Autocannons@WeaponTypes@BWAPI@@3VWeaponType@2@B 0045d188     BWAPI:WeaponType.obj
 0003:0001918c       ?Fragmentation_Grenade@WeaponTypes@BWAPI@@3VWeaponType@2@B 0045d18c     BWAPI:WeaponType.obj
 0003:00019190       ?Suicide_Scourge@WeaponTypes@BWAPI@@3VWeaponType@2@B 0045d190     BWAPI:WeaponType.obj
 0003:00019194       ?Parasite@WeaponTypes@BWAPI@@3VWeaponType@2@B 0045d194     BWAPI:WeaponType.obj
 0003:00019198       ?Halo_Rockets@WeaponTypes@BWAPI@@3VWeaponType@2@B 0045d198     BWAPI:WeaponType.obj
 0003:0001919c       ?Hellfire_Missile_Pack_Alan_Schezar@WeaponTypes@BWAPI@@3VWeaponType@2@B 0045d19c     BWAPI:WeaponType.obj
 0003:000191a0       ?unitSizeTypeName@BWAPI@@3PAV?$basic_string@DU?$char_traits@D@std@@V?$allocator@D@2@@std@@A 0045d1a0     BWAPI:UnitSizeType.obj
 0003:00019248       ?Unknown@UnitSizeTypes@BWAPI@@3VUnitSizeType@2@B 0045d248     BWAPI:UnitSizeType.obj
 0003:0001924c       ?None@UnitSizeTypes@BWAPI@@3VUnitSizeType@2@B 0045d24c     BWAPI:UnitSizeType.obj
 0003:00019250       ?Small@UnitSizeTypes@BWAPI@@3VUnitSizeType@2@B 0045d250     BWAPI:UnitSizeType.obj
 0003:00019254       ?Large@UnitSizeTypes@BWAPI@@3VUnitSizeType@2@B 0045d254     BWAPI:UnitSizeType.obj
 0003:00019258       ?unitSizeTypeSet@BWAPI@@3V?$set@VUnitSizeType@BWAPI@@U?$less@VUnitSizeType@BWAPI@@@std@@V?$allocator@VUnitSizeType@BWAPI@@@4@@std@@A 0045d258     BWAPI:UnitSizeType.obj
 0003:00019278       ?unitSizeTypeMap@BWAPI@@3V?$map@V?$basic_string@DU?$char_traits@D@std@@V?$allocator@D@2@@std@@VUnitSizeType@BWAPI@@U?$less@V?$basic_string@DU?$char_traits@D@std@@V?$allocator@D@2@@std@@@2@V?$allocator@U?$pair@$$CBV?$basic_string@DU?$char_traits@D@std@@V?$allocator@D@2@@std@@VUnitSizeType@BWAPI@@@std@@@2@@std@@A 0045d278     BWAPI:UnitSizeType.obj
 0003:00019298       ?Medium@UnitSizeTypes@BWAPI@@3VUnitSizeType@2@B 0045d298     BWAPI:UnitSizeType.obj
 0003:0001929c       ?Independent@UnitSizeTypes@BWAPI@@3VUnitSizeType@2@B 0045d29c     BWAPI:UnitSizeType.obj
 0003:000192a0       ?orderMap@BWAPI@@3V?$map@V?$basic_string@DU?$char_traits@D@std@@V?$allocator@D@2@@std@@VOrder@BWAPI@@U?$less@V?$basic_string@DU?$char_traits@D@std@@V?$allocator@D@2@@std@@@2@V?$allocator@U?$pair@$$CBV?$basic_string@DU?$char_traits@D@std@@V?$allocator@D@2@@std@@VOrder@BWAPI@@@std@@@2@@std@@A 0045d2a0     BWAPI:Order.obj
 0003:000192c0       ?orderSet@BWAPI@@3V?$set@VOrder@BWAPI@@U?$less@VOrder@BWAPI@@@std@@V?$allocator@VOrder@BWAPI@@@4@@std@@A 0045d2c0     BWAPI:Order.obj
 0003:000192e0       ?RightClickAction@Orders@BWAPI@@3VOrder@2@B 0045d2e0     BWAPI:Order.obj
 0003:000192e4       ?Unknown@Orders@BWAPI@@3VOrder@2@B 0045d2e4     BWAPI:Order.obj
 0003:000192e8       ?AIPatrol@Orders@BWAPI@@3VOrder@2@B 0045d2e8     BWAPI:Order.obj
 0003:000192ec       ?PickupIdle@Orders@BWAPI@@3VOrder@2@B 0045d2ec     BWAPI:Order.obj
 0003:000192f0       ?CastMindControl@Orders@BWAPI@@3VOrder@2@B 0045d2f0     BWAPI:Order.obj
 0003:000192f4       ?Nothing3@Orders@BWAPI@@3VOrder@2@B 0045d2f4     BWAPI:Order.obj
 0003:000192f8       ?CloseDoor@Orders@BWAPI@@3VOrder@2@B 0045d2f8     BWAPI:Order.obj
 0003:000192fc       ?ShieldBattery@Orders@BWAPI@@3VOrder@2@B 0045d2fc     BWAPI:Order.obj
 0003:00019300       ?SpreadCreep@Orders@BWAPI@@3VOrder@2@B 0045d300     BWAPI:Order.obj
 0003:00019304       ?CloakNearbyUnits@Orders@BWAPI@@3VOrder@2@B 0045d304     BWAPI:Order.obj
 0003:00019308       ?FireYamatoGun@Orders@BWAPI@@3VOrder@2@B 0045d308     BWAPI:Order.obj
 0003:0001930c       ?GuardianAspect@Orders@BWAPI@@3VOrder@2@B 0045d30c     BWAPI:Order.obj
 0003:00019310       ?MedicHeal1@Orders@BWAPI@@3VOrder@2@B 0045d310     BWAPI:Order.obj
 0003:00019314       ?Enabledoodad@Orders@BWAPI@@3VOrder@2@B 0045d314     BWAPI:Order.obj
 0003:00019318       ?None@Orders@BWAPI@@3VOrder@2@B 0045d318     BWAPI:Order.obj
 0003:0001931c       ?PlayerGuard@Orders@BWAPI@@3VOrder@2@B 0045d31c     BWAPI:Order.obj
 0003:00019320       ?WaitForMinerals@Orders@BWAPI@@3VOrder@2@B 0045d320     BWAPI:Order.obj
 0003:00019324       ?CastRecall@Orders@BWAPI@@3VOrder@2@B 0045d324     BWAPI:Order.obj
 0003:00019328       ?AttackMove@Orders@BWAPI@@3VOrder@2@B 0045d328     BWAPI:Order.obj
 0003:0001932c       ?ReturnMinerals@Orders@BWAPI@@3VOrder@2@B 0045d32c     BWAPI:Order.obj
 0003:00019330       ?CastPlague@Orders@BWAPI@@3VOrder@2@B 0045d330     BWAPI:Order.obj
 0003:00019334       ?InitCreepGrowth@Orders@BWAPI@@3VOrder@2@B 0045d334     BWAPI:Order.obj
 0003:00019338       ?Move@Orders@BWAPI@@3VOrder@2@B 0045d338     BWAPI:Order.obj
 0003:0001933c       ?NukeLaunch@Orders@BWAPI@@3VOrder@2@B 0045d33c     BWAPI:Order.obj
 0003:00019340       ?PickupBunker@Orders@BWAPI@@3VOrder@2@B 0045d340     BWAPI:Order.obj
 0003:00019344       ?DarkArchonMeld@Orders@BWAPI@@3VOrder@2@B 0045d344     BWAPI:Order.obj
 0003:00019348       ?CastStasisField@Orders@BWAPI@@3VOrder@2@B 0045d348     BWAPI:Order.obj
 0003:0001934c       ?Stop@Orders@BWAPI@@3VOrder@2@B 0045d34c     BWAPI:Order.obj
 0003:00019350       ?Fatal@Orders@BWAPI@@3VOrder@2@B 0045d350     BWAPI:Order.obj
 0003:00019354       ?PlaceAddon@Orders@BWAPI@@3VOrder@2@B 0045d354     BWAPI:Order.obj
 0003:00019358       ?CastDarkSwarm@Orders@BWAPI@@3VOrder@2@B 0045d358     BWAPI:Order.obj
 0003:0001935c       ?ComputerAI@Orders@BWAPI@@3VOrder@2@B 0045d35c     BWAPI:Order.obj
 0003:00019360       ?SelfDestrucing@Orders@BWAPI@@3VOrder@2@B 0045d360     BWAPI:Order.obj
 0003:00019364       ?PowerupIdle@Orders@BWAPI@@3VOrder@2@B 0045d364     BWAPI:Order.obj
 0003:00019368       ?Medic@Orders@BWAPI@@3VOrder@2@B 0045d368     BWAPI:Order.obj
 0003:0001936c       ?BuildingLiftOff@Orders@BWAPI@@3VOrder@2@B 0045d36c     BWAPI:Order.obj
 0003:00019370       ?RechargeShieldsUnit@Orders@BWAPI@@3VOrder@2@B 0045d370     BWAPI:Order.obj
 0003:00019374       ?RescuePassive@Orders@BWAPI@@3VOrder@2@B 0045d374     BWAPI:Order.obj
 0003:00019378       ?NukeWait@Orders@BWAPI@@3VOrder@2@B 0045d378     BWAPI:Order.obj
 0003:0001937c       ?Harvest3@Orders@BWAPI@@3VOrder@2@B 0045d37c     BWAPI:Order.obj
 0003:00019380       ?StoppingCreepGrowth@Orders@BWAPI@@3VOrder@2@B 0045d380     BWAPI:Order.obj
 0003:00019384       ?ReturnGas@Orders@BWAPI@@3VOrder@2@B 0045d384     BWAPI:Order.obj
 0003:00019388       ?ZergBirth@Orders@BWAPI@@3VOrder@2@B 0045d388     BWAPI:Order.obj
 0003:0001938c       ?IncompleteBuilding@Orders@BWAPI@@3VOrder@2@B 0045d38c     BWAPI:Order.obj
 0003:00019390       ?EnterTransport@Orders@BWAPI@@3VOrder@2@B 0045d390     BWAPI:Order.obj
 0003:00019394       ?BuildProtoss2@Orders@BWAPI@@3VOrder@2@B 0045d394     BWAPI:Order.obj
 0003:00019398       ?ZergBuildingMorph@Orders@BWAPI@@3VOrder@2@B 0045d398     BWAPI:Order.obj
 0003:0001939c       ?CastNuclearStrike@Orders@BWAPI@@3VOrder@2@B 0045d39c     BWAPI:Order.obj
 0003:000193a0       ?TeleporttoLocation@Orders@BWAPI@@3VOrder@2@B 0045d3a0     BWAPI:Order.obj
 0003:000193a4       ?HoldPosition@Orders@BWAPI@@3VOrder@2@B 0045d3a4     BWAPI:Order.obj
 0003:000193a8       ?Train@Orders@BWAPI@@3VOrder@2@B 0045d3a8     BWAPI:Order.obj
 0003:000193ac       ?Nothing@Orders@BWAPI@@3VOrder@2@B 0045d3ac     BWAPI:Order.obj
 0003:000193b0       ?Patrol@Orders@BWAPI@@3VOrder@2@B 0045d3b0     BWAPI:Order.obj
 0003:000193b4       ?CastOpticalFlare@Orders@BWAPI@@3VOrder@2@B 0045d3b4     BWAPI:Order.obj
 0003:000193b8       ?RallyPointTile@Orders@BWAPI@@3VOrder@2@B 0045d3b8     BWAPI:Order.obj
 0003:000193bc       ?ArchonWarp@Orders@BWAPI@@3VOrder@2@B 0045d3bc     BWAPI:Order.obj
 0003:000193c0       ?InterceptorReturn@Orders@BWAPI@@3VOrder@2@B 0045d3c0     BWAPI:Order.obj
 0003:000193c4       ?CastLockdown@Orders@BWAPI@@3VOrder@2@B 0045d3c4     BWAPI:Order.obj
 0003:000193c8       ?CastIrradiate@Orders@BWAPI@@3VOrder@2@B 0045d3c8     BWAPI:Order.obj
 0003:000193cc       ?HideTrap@Orders@BWAPI@@3VOrder@2@B 0045d3cc     BWAPI:Order.obj
 0003:000193d0       ?PickupTransport@Orders@BWAPI@@3VOrder@2@B 0045d3d0     BWAPI:Order.obj
 0003:000193d4       ?UnusedPowerup@Orders@BWAPI@@3VOrder@2@B 0045d3d4     BWAPI:Order.obj
 0003:000193d8       ?CastEMPShockwave@Orders@BWAPI@@3VOrder@2@B 0045d3d8     BWAPI:Order.obj
 0003:000193dc       ?CastInfestation@Orders@BWAPI@@3VOrder@2@B 0045d3dc     BWAPI:Order.obj
 0003:000193e0       ?Carrier@Orders@BWAPI@@3VOrder@2@B 0045d3e0     BWAPI:Order.obj
 0003:000193e4       ?Harvest4@Orders@BWAPI@@3VOrder@2@B 0045d3e4     BWAPI:Order.obj
 0003:000193e8       ?InfestedCommandCenter@Orders@BWAPI@@3VOrder@2@B 0045d3e8     BWAPI:Order.obj
 0003:000193ec       ?InfestingCommandCenter@Orders@BWAPI@@3VOrder@2@B 0045d3ec     BWAPI:Order.obj
 0003:000193f0       ?Harvest1@Orders@BWAPI@@3VOrder@2@B 0045d3f0     BWAPI:Order.obj
 0003:000193f4       ?Scanner@Orders@BWAPI@@3VOrder@2@B 0045d3f4     BWAPI:Order.obj
 0003:000193f8       ?CastDefensiveMatrix@Orders@BWAPI@@3VOrder@2@B 0045d3f8     BWAPI:Order.obj
 0003:000193fc       ?JunkYardDog@Orders@BWAPI@@3VOrder@2@B 0045d3fc     BWAPI:Order.obj
 0003:00019400       ?UnusedNothing@Orders@BWAPI@@3VOrder@2@B 0045d400     BWAPI:Order.obj
 0003:00019404       ?CompletingArchonsummon@Orders@BWAPI@@3VOrder@2@B 0045d404     BWAPI:Order.obj
 0003:00019408       ?InterceptorAttack@Orders@BWAPI@@3VOrder@2@B 0045d408     BWAPI:Order.obj
 0003:0001940c       ?CastParasite@Orders@BWAPI@@3VOrder@2@B 0045d40c     BWAPI:Order.obj
 0003:00019410       ?Burrowing@Orders@BWAPI@@3VOrder@2@B 0045d410     BWAPI:Order.obj
 0003:00019414       ?RallyPointUnit@Orders@BWAPI@@3VOrder@2@B 0045d414     BWAPI:Order.obj
 0003:00019418       ?Disabledoodad@Orders@BWAPI@@3VOrder@2@B 0045d418     BWAPI:Order.obj
 0003:0001941c       ?Warpin@Orders@BWAPI@@3VOrder@2@B 0045d41c     BWAPI:Order.obj
 0003:00019420       ?CastSpawnBroodlings@Orders@BWAPI@@3VOrder@2@B 0045d420     BWAPI:Order.obj
 0003:00019424       ?MoveUnload@Orders@BWAPI@@3VOrder@2@B 0045d424     BWAPI:Order.obj
 0003:00019428       ?Burrowed@Orders@BWAPI@@3VOrder@2@B 0045d428     BWAPI:Order.obj
 0003:0001942c       ?OpenDoor@Orders@BWAPI@@3VOrder@2@B 0045d42c     BWAPI:Order.obj
 0003:00019430       ?Critter@Orders@BWAPI@@3VOrder@2@B 0045d430     BWAPI:Order.obj
 0003:00019434       ?NukeTrain@Orders@BWAPI@@3VOrder@2@B 0045d434     BWAPI:Order.obj
 0003:00019438       ?Larva@Orders@BWAPI@@3VOrder@2@B 0045d438     BWAPI:Order.obj
 0003:0001943c       ?Interrupted@Orders@BWAPI@@3VOrder@2@B 0045d43c     BWAPI:Order.obj
 0003:00019440       ?RevealTrap@Orders@BWAPI@@3VOrder@2@B 0045d440     BWAPI:Order.obj
 0003:00019444       ?CastDisruptionWeb@Orders@BWAPI@@3VOrder@2@B 0045d444     BWAPI:Order.obj
 0003:00019448       ?SpawningLarva@Orders@BWAPI@@3VOrder@2@B 0045d448     BWAPI:Order.obj
 0003:0001944c       ?HarassMove@Orders@BWAPI@@3VOrder@2@B 0045d44c     BWAPI:Order.obj
 0003:00019450       ?ComputerReturn@Orders@BWAPI@@3VOrder@2@B 0045d450     BWAPI:Order.obj
 0003:00019454       ?BuildNydusExit@Orders@BWAPI@@3VOrder@2@B 0045d454     BWAPI:Order.obj
 0003:00019458       ?MedicHeal2@Orders@BWAPI@@3VOrder@2@B 0045d458     BWAPI:Order.obj
 0003:0001945c       ?MoveToMinerals@Orders@BWAPI@@3VOrder@2@B 0045d45c     BWAPI:Order.obj
 0003:00019460       ?Sieging@Orders@BWAPI@@3VOrder@2@B 0045d460     BWAPI:Order.obj
 0003:00019464       ?CastConsume@Orders@BWAPI@@3VOrder@2@B 0045d464     BWAPI:Order.obj
 0003:00019468       ?GuardPost@Orders@BWAPI@@3VOrder@2@B 0045d468     BWAPI:Order.obj
 0003:0001946c       ?ConstructingBuilding@Orders@BWAPI@@3VOrder@2@B 0045d46c     BWAPI:Order.obj
 0003:00019470       ?Neutral@Orders@BWAPI@@3VOrder@2@B 0045d470     BWAPI:Order.obj
 0003:00019474       ?TurretGuard@Orders@BWAPI@@3VOrder@2@B 0045d474     BWAPI:Order.obj
 0003:00019478       ?VultureMine@Orders@BWAPI@@3VOrder@2@B 0045d478     BWAPI:Order.obj
 0003:0001947c       ?CTFCOPStarted@Orders@BWAPI@@3VOrder@2@B 0045d47c     BWAPI:Order.obj
 0003:00019480       ?Hover@Orders@BWAPI@@3VOrder@2@B 0045d480     BWAPI:Order.obj
 0003:00019484       ?CastMaelstrom@Orders@BWAPI@@3VOrder@2@B 0045d484     BWAPI:Order.obj
 0003:00019488       ?ScarabAttack@Orders@BWAPI@@3VOrder@2@B 0045d488     BWAPI:Order.obj
 0003:0001948c       ?BuildingLand@Orders@BWAPI@@3VOrder@2@B 0045d48c     BWAPI:Order.obj
 0003:00019490       ?Unburrowing@Orders@BWAPI@@3VOrder@2@B 0045d490     BWAPI:Order.obj
 0003:00019494       ?HiddenGun@Orders@BWAPI@@3VOrder@2@B 0045d494     BWAPI:Order.obj
 0003:00019498       ?DroneLiftOff@Orders@BWAPI@@3VOrder@2@B 0045d498     BWAPI:Order.obj
 0003:0001949c       ?CastHallucination@Orders@BWAPI@@3VOrder@2@B 0045d49c     BWAPI:Order.obj
 0003:000194a0       ?LiftingOff@Orders@BWAPI@@3VOrder@2@B 0045d4a0     BWAPI:Order.obj
 0003:000194a4       ?NukeTrack@Orders@BWAPI@@3VOrder@2@B 0045d4a4     BWAPI:Order.obj
 0003:000194a8       ?WaitForGas@Orders@BWAPI@@3VOrder@2@B 0045d4a8     BWAPI:Order.obj
 0003:000194ac       ?HealMove@Orders@BWAPI@@3VOrder@2@B 0045d4ac     BWAPI:Order.obj
 0003:000194b0       ?PlaceMine@Orders@BWAPI@@3VOrder@2@B 0045d4b0     BWAPI:Order.obj
 0003:000194b4       ?Harvest2@Orders@BWAPI@@3VOrder@2@B 0045d4b4     BWAPI:Order.obj
 0003:000194b8       ?EnterNydusCanal@Orders@BWAPI@@3VOrder@2@B 0045d4b8     BWAPI:Order.obj
 0003:000194bc       ?NukePaint@Orders@BWAPI@@3VOrder@2@B 0045d4bc     BWAPI:Order.obj
 0003:000194c0       ?Decloak@Orders@BWAPI@@3VOrder@2@B 0045d4c0     BWAPI:Order.obj
 0003:000194c4       ?CTFCOPInit@Orders@BWAPI@@3VOrder@2@B 0045d4c4     BWAPI:Order.obj
 0003:000194c8       ?orderName@BWAPI@@3PAV?$basic_string@DU?$char_traits@D@std@@V?$allocator@D@2@@std@@A 0045d4c8     BWAPI:Order.obj
 0003:0001a9ac       ?MiningMinerals@Orders@BWAPI@@3VOrder@2@B 0045e9ac     BWAPI:Order.obj
 0003:0001a9b0       ?MoveToGas@Orders@BWAPI@@3VOrder@2@B 0045e9b0     BWAPI:Order.obj
 0003:0001a9b4       ?CTFCOP2@Orders@BWAPI@@3VOrder@2@B 0045e9b4     BWAPI:Order.obj
 0003:0001a9b8       ?Guard@Orders@BWAPI@@3VOrder@2@B 0045e9b8     BWAPI:Order.obj
 0003:0001a9bc       ?PlaceBuilding@Orders@BWAPI@@3VOrder@2@B 0045e9bc     BWAPI:Order.obj
 0003:0001a9c0       ?Hallucination2@Orders@BWAPI@@3VOrder@2@B 0045e9c0     BWAPI:Order.obj
 0003:0001a9c4       ?Unsieging@Orders@BWAPI@@3VOrder@2@B 0045e9c4     BWAPI:Order.obj
 0003:0001a9c8       ?Unload@Orders@BWAPI@@3VOrder@2@B 0045e9c8     BWAPI:Order.obj
 0003:0001a9cc       ?Follow@Orders@BWAPI@@3VOrder@2@B 0045e9cc     BWAPI:Order.obj
 0003:0001a9d0       ?BuildAddon@Orders@BWAPI@@3VOrder@2@B 0045e9d0     BWAPI:Order.obj
 0003:0001a9d4       ?Upgrade@Orders@BWAPI@@3VOrder@2@B 0045e9d4     BWAPI:Order.obj
 0003:0001a9d8       ?CastPsionicStorm@Orders@BWAPI@@3VOrder@2@B 0045e9d8     BWAPI:Order.obj
 0003:0001a9dc       ?ResetCollision@Orders@BWAPI@@3VOrder@2@B 0045e9dc     BWAPI:Order.obj
 0003:0001a9e0       ?RechargeShieldsBattery@Orders@BWAPI@@3VOrder@2@B 0045e9e0     BWAPI:Order.obj
 0003:0001a9e4       ?AttackTile@Orders@BWAPI@@3VOrder@2@B 0045e9e4     BWAPI:Order.obj
 0003:0001a9e8       ?HarvestGas@Orders@BWAPI@@3VOrder@2@B 0045e9e8     BWAPI:Order.obj
 0003:0001a9ec       ?CastScannerSweep@Orders@BWAPI@@3VOrder@2@B 0045e9ec     BWAPI:Order.obj
 0003:0001a9f0       ?Reaver@Orders@BWAPI@@3VOrder@2@B 0045e9f0     BWAPI:Order.obj
 0003:0001a9f4       ?TowerGuard@Orders@BWAPI@@3VOrder@2@B 0045e9f4     BWAPI:Order.obj
 0003:0001a9f8       ?ReaverCarrierMove@Orders@BWAPI@@3VOrder@2@B 0045e9f8     BWAPI:Order.obj
 0003:0001a9fc       ?Die@Orders@BWAPI@@3VOrder@2@B 0045e9fc     BWAPI:Order.obj
 0003:0001aa00       ?NukeUnit@Orders@BWAPI@@3VOrder@2@B 0045ea00     BWAPI:Order.obj
 0003:0001aa04       ?CastFeedback@Orders@BWAPI@@3VOrder@2@B 0045ea04     BWAPI:Order.obj
 0003:0001aa08       ?Repair@Orders@BWAPI@@3VOrder@2@B 0045ea08     BWAPI:Order.obj
 0003:0001aa0c       ?BunkerGuard@Orders@BWAPI@@3VOrder@2@B 0045ea0c     BWAPI:Order.obj
 0003:0001aa10       ?ResearchTech@Orders@BWAPI@@3VOrder@2@B 0045ea10     BWAPI:Order.obj
 0003:0001aa14       ?CarrierIgnore2@Orders@BWAPI@@3VOrder@2@B 0045ea14     BWAPI:Order.obj
 0003:0001aa18       ?CastEnsnare@Orders@BWAPI@@3VOrder@2@B 0045ea18     BWAPI:Order.obj
 0003:0001aa1c       ?AtkMoveEP@Orders@BWAPI@@3VOrder@2@B 0045ea1c     BWAPI:Order.obj
 0003:0001aa20       ?AttackUnit@Orders@BWAPI@@3VOrder@2@B 0045ea20     BWAPI:Order.obj
 0003:0001aa24       ?TrainFighter@Orders@BWAPI@@3VOrder@2@B 0045ea24     BWAPI:Order.obj
 0003:0001aa28       ?CastRestoration@Orders@BWAPI@@3VOrder@2@B 0045ea28     BWAPI:Order.obj
 0003:0001aa2c       ?Cloak@Orders@BWAPI@@3VOrder@2@B 0045ea2c     BWAPI:Order.obj
 0003:0001aa30       ?Pickup4@Orders@BWAPI@@3VOrder@2@B 0045ea30     BWAPI:Order.obj
 0003:0001aa34       ?ZergUnitMorph@Orders@BWAPI@@3VOrder@2@B 0045ea34     BWAPI:Order.obj
 0003:0001aa38       ?Greed@GameTypes@BWAPI@@3VGameType@2@B 0045ea38     BWAPI:GameType.obj
 0003:0001aa3c       ?Unknown@GameTypes@BWAPI@@3VGameType@2@B 0045ea3c     BWAPI:GameType.obj
 0003:0001aa40       ?None@GameTypes@BWAPI@@3VGameType@2@B 0045ea40     BWAPI:GameType.obj
 0003:0001aa44       ?Melee@GameTypes@BWAPI@@3VGameType@2@B 0045ea44     BWAPI:GameType.obj
 0003:0001aa48       ?Sudden_Death@GameTypes@BWAPI@@3VGameType@2@B 0045ea48     BWAPI:GameType.obj
 0003:0001aa4c       ?Team_Melee@GameTypes@BWAPI@@3VGameType@2@B 0045ea4c     BWAPI:GameType.obj
 0003:0001aa50       ?Free_For_All@GameTypes@BWAPI@@3VGameType@2@B 0045ea50     BWAPI:GameType.obj
 0003:0001aa54       ?Team_Free_For_All@GameTypes@BWAPI@@3VGameType@2@B 0045ea54     BWAPI:GameType.obj
 0003:0001aa58       ?Team_Capture_The_Flag@GameTypes@BWAPI@@3VGameType@2@B 0045ea58     BWAPI:GameType.obj
 0003:0001aa5c       ?Slaughter@GameTypes@BWAPI@@3VGameType@2@B 0045ea5c     BWAPI:GameType.obj
 0003:0001aa60       ?Top_vs_Bottom@GameTypes@BWAPI@@3VGameType@2@B 0045ea60     BWAPI:GameType.obj
 0003:0001aa64       ?Ladder@GameTypes@BWAPI@@3VGameType@2@B 0045ea64     BWAPI:GameType.obj
 0003:0001aa68       ?Pro_Gamer_League@GameTypes@BWAPI@@3VGameType@2@B 0045ea68     BWAPI:GameType.obj
 0003:0001aa6c       ?Capture_The_Flag@GameTypes@BWAPI@@3VGameType@2@B 0045ea6c     BWAPI:GameType.obj
 0003:0001aa70       ?gameTypeMap@BWAPI@@3V?$map@V?$basic_string@DU?$char_traits@D@std@@V?$allocator@D@2@@std@@VGameType@BWAPI@@U?$less@V?$basic_string@DU?$char_traits@D@std@@V?$allocator@D@2@@std@@@2@V?$allocator@U?$pair@$$CBV?$basic_string@DU?$char_traits@D@std@@V?$allocator@D@2@@std@@VGameType@BWAPI@@@std@@@2@@std@@A 0045ea70     BWAPI:GameType.obj
 0003:0001aa90       ?gameTypeSet@BWAPI@@3V?$set@VGameType@BWAPI@@U?$less@VGameType@BWAPI@@@std@@V?$allocator@VGameType@BWAPI@@@4@@std@@A 0045ea90     BWAPI:GameType.obj
 0003:0001aab0       ?gameTypeName@BWAPI@@3PAV?$basic_string@DU?$char_traits@D@std@@V?$allocator@D@2@@std@@A 0045eab0     BWAPI:GameType.obj
 0003:0001ae84       ?Use_Map_Settings@GameTypes@BWAPI@@3VGameType@2@B 0045ee84     BWAPI:GameType.obj
 0003:0001ae88       ?One_on_One@GameTypes@BWAPI@@3VGameType@2@B 0045ee88     BWAPI:GameType.obj
 0003:0001ae90       ?closest@Colors@BWAPI@@3PAY1EA@EA@EA 0045ee90     BWAPI:Color.obj
 0003:0005ae90       ?rgbInitialized@BWAPI@@3_NA 0049ee90     BWAPI:Color.obj
 0003:0005ae94       ?Grey@Colors@BWAPI@@3VColor@2@B 0049ee94     BWAPI:Color.obj
 0003:0005ae98       ?Purple@Colors@BWAPI@@3VColor@2@B 0049ee98     BWAPI:Color.obj
 0003:0005ae9c       ?Black@Colors@BWAPI@@3VColor@2@B 0049ee9c     BWAPI:Color.obj
 0003:0005aea0       ?Teal@Colors@BWAPI@@3VColor@2@B 0049eea0     BWAPI:Color.obj
 0003:0005aea4       ?Orange@Colors@BWAPI@@3VColor@2@B 0049eea4     BWAPI:Color.obj
 0003:0005aea8       ?Green@Colors@BWAPI@@3VColor@2@B 0049eea8     BWAPI:Color.obj
 0003:0005aeac       ?Cyan@Colors@BWAPI@@3VColor@2@B 0049eeac     BWAPI:Color.obj
 0003:0005aeb0       ?Brown@Colors@BWAPI@@3VColor@2@B 0049eeb0     BWAPI:Color.obj
 0003:0005aeb4       ?Yellow@Colors@BWAPI@@3VColor@2@B 0049eeb4     BWAPI:Color.obj
 0003:0005aeb8       ?Blue@Colors@BWAPI@@3VColor@2@B 0049eeb8     BWAPI:Color.obj
 0003:0005aebc       ?Red@Colors@BWAPI@@3VColor@2@B 0049eebc     BWAPI:Color.obj
 0003:0005aec0       ?White@Colors@BWAPI@@3VColor@2@B 0049eec0     BWAPI:Color.obj
 0003:0005aec8       ?Unknown@Errors@BWAPI@@3VError@2@B 0049eec8     BWAPI:Error.obj
 0003:0005aecc       ?Insufficient_Supply@Errors@BWAPI@@3VError@2@B 0049eecc     BWAPI:Error.obj
 0003:0005aed0       ?None@Errors@BWAPI@@3VError@2@B 0049eed0     BWAPI:Error.obj
 0003:0005aed4       ?Incompatible_TechType@Errors@BWAPI@@3VError@2@B 0049eed4     BWAPI:Error.obj
 0003:0005aed8       ?Invalid_Tile_Position@Errors@BWAPI@@3VError@2@B 0049eed8     BWAPI:Error.obj
 0003:0005aedc       ?Unit_Not_Visible@Errors@BWAPI@@3VError@2@B 0049eedc     BWAPI:Error.obj
 0003:0005aee0       ?Already_Researched@Errors@BWAPI@@3VError@2@B 0049eee0     BWAPI:Error.obj
 0003:0005aee4       ?Unreachable_Location@Errors@BWAPI@@3VError@2@B 0049eee4     BWAPI:Error.obj
 0003:0005aee8       ?Unit_Does_Not_Exist@Errors@BWAPI@@3VError@2@B 0049eee8     BWAPI:Error.obj
 0003:0005aeec       ?Insufficient_Space@Errors@BWAPI@@3VError@2@B 0049eeec     BWAPI:Error.obj
 0003:0005aef0       ?Insufficient_Minerals@Errors@BWAPI@@3VError@2@B 0049eef0     BWAPI:Error.obj
 0003:0005aef4       ?Currently_Upgrading@Errors@BWAPI@@3VError@2@B 0049eef4     BWAPI:Error.obj
 0003:0005aef8       ?Invalid_Parameter@Errors@BWAPI@@3VError@2@B 0049eef8     BWAPI:Error.obj
 0003:0005aefc       ?Incompatible_UnitType@Errors@BWAPI@@3VError@2@B 0049eefc     BWAPI:Error.obj
 0003:0005af00       ?Access_Denied@Errors@BWAPI@@3VError@2@B 0049ef00     BWAPI:Error.obj
 0003:0005af04       ?Unable_To_Hit@Errors@BWAPI@@3VError@2@B 0049ef04     BWAPI:Error.obj
 0003:0005af08       ?Insufficient_Ammo@Errors@BWAPI@@3VError@2@B 0049ef08     BWAPI:Error.obj
 0003:0005af0c       ?Unit_Busy@Errors@BWAPI@@3VError@2@B 0049ef0c     BWAPI:Error.obj
 0003:0005af10       ?File_Not_Found@Errors@BWAPI@@3VError@2@B 0049ef10     BWAPI:Error.obj
 0003:0005af14       ?Fully_Upgraded@Errors@BWAPI@@3VError@2@B 0049ef14     BWAPI:Error.obj
 0003:0005af18       ?Unbuildable_Location@Errors@BWAPI@@3VError@2@B 0049ef18     BWAPI:Error.obj
 0003:0005af1c       ?Out_Of_Range@Errors@BWAPI@@3VError@2@B 0049ef1c     BWAPI:Error.obj
 0003:0005af20       ?errorName@BWAPI@@3PAV?$basic_string@DU?$char_traits@D@std@@V?$allocator@D@2@@std@@A 0049ef20     BWAPI:Error.obj
 0003:0005b230       ?errorSet@BWAPI@@3V?$set@VError@BWAPI@@U?$less@VError@BWAPI@@@std@@V?$allocator@VError@BWAPI@@@4@@std@@A 0049f230     BWAPI:Error.obj
 0003:0005b250       ?errorMap@BWAPI@@3V?$map@V?$basic_string@DU?$char_traits@D@std@@V?$allocator@D@2@@std@@VError@BWAPI@@U?$less@V?$basic_string@DU?$char_traits@D@std@@V?$allocator@D@2@@std@@@2@V?$allocator@U?$pair@$$CBV?$basic_string@DU?$char_traits@D@std@@V?$allocator@D@2@@std@@VError@BWAPI@@@std@@@2@@std@@A 0049f250     BWAPI:Error.obj
 0003:0005b270       ?Insufficient_Energy@Errors@BWAPI@@3VError@2@B 0049f270     BWAPI:Error.obj
 0003:0005b274       ?Currently_Researching@Errors@BWAPI@@3VError@2@B 0049f274     BWAPI:Error.obj
 0003:0005b278       ?Insufficient_Gas@Errors@BWAPI@@3VError@2@B 0049f278     BWAPI:Error.obj
 0003:0005b27c       ?Incompatible_State@Errors@BWAPI@@3VError@2@B 0049f27c     BWAPI:Error.obj
 0003:0005b280       ?Insufficient_Tech@Errors@BWAPI@@3VError@2@B 0049f280     BWAPI:Error.obj
 0003:0005b284       ?Unit_Not_Owned@Errors@BWAPI@@3VError@2@B 0049f284     BWAPI:Error.obj
 0003:0005b288       ?bulletTypeName@BWAPI@@3PAV?$basic_string@DU?$char_traits@D@std@@V?$allocator@D@2@@std@@A 0049f288     BWAPI:BulletType.obj
 0003:0005c99c       ?bulletTypeSet@BWAPI@@3V?$set@VBulletType@BWAPI@@U?$less@VBulletType@BWAPI@@@std@@V?$allocator@VBulletType@BWAPI@@@4@@std@@A 004a099c     BWAPI:BulletType.obj
 0003:0005c9bc       ?Gauss_Rifle_Hit@BulletTypes@BWAPI@@3VBulletType@2@B 004a09bc     BWAPI:BulletType.obj
 0003:0005c9c0       ?Unknown@BulletTypes@BWAPI@@3VBulletType@2@B 004a09c0     BWAPI:BulletType.obj
 0003:0005c9c4       ?Phase_Disruptor@BulletTypes@BWAPI@@3VBulletType@2@B 004a09c4     BWAPI:BulletType.obj
 0003:0005c9c8       ?EMP_Missile@BulletTypes@BWAPI@@3VBulletType@2@B 004a09c8     BWAPI:BulletType.obj
 0003:0005c9cc       ?Optical_Flare_Grenade@BulletTypes@BWAPI@@3VBulletType@2@B 004a09cc     BWAPI:BulletType.obj
 0003:0005c9d0       ?Anti_Matter_Missile@BulletTypes@BWAPI@@3VBulletType@2@B 004a09d0     BWAPI:BulletType.obj
 0003:0005c9d4       ?Pulse_Cannon@BulletTypes@BWAPI@@3VBulletType@2@B 004a09d4     BWAPI:BulletType.obj
 0003:0005c9d8       ?None@BulletTypes@BWAPI@@3VBulletType@2@B 004a09d8     BWAPI:BulletType.obj
 0003:0005c9dc       ?Consume@BulletTypes@BWAPI@@3VBulletType@2@B 004a09dc     BWAPI:BulletType.obj
 0003:0005c9e0       ?Melee@BulletTypes@BWAPI@@3VBulletType@2@B 004a09e0     BWAPI:BulletType.obj
 0003:0005c9e4       ?Arclite_Shock_Cannon_Hit@BulletTypes@BWAPI@@3VBulletType@2@B 004a09e4     BWAPI:BulletType.obj
 0003:0005c9e8       ?Sunken_Colony_Tentacle@BulletTypes@BWAPI@@3VBulletType@2@B 004a09e8     BWAPI:BulletType.obj
 0003:0005c9ec       ?Longbolt_Missile@BulletTypes@BWAPI@@3VBulletType@2@B 004a09ec     BWAPI:BulletType.obj
 0003:0005c9f0       ?Queen_Spell_Carrier@BulletTypes@BWAPI@@3VBulletType@2@B 004a09f0     BWAPI:BulletType.obj
 0003:0005c9f4       ?Subterranean_Spines@BulletTypes@BWAPI@@3VBulletType@2@B 004a09f4     BWAPI:BulletType.obj
 0003:0005c9f8       ?Gemini_Missiles@BulletTypes@BWAPI@@3VBulletType@2@B 004a09f8     BWAPI:BulletType.obj
 0003:0005c9fc       ?Neutron_Flare@BulletTypes@BWAPI@@3VBulletType@2@B 004a09fc     BWAPI:BulletType.obj
 0003:0005ca00       ?Burst_Lasers@BulletTypes@BWAPI@@3VBulletType@2@B 004a0a00     BWAPI:BulletType.obj
 0003:0005ca04       ?Particle_Beam_Hit@BulletTypes@BWAPI@@3VBulletType@2@B 004a0a04     BWAPI:BulletType.obj
 0003:0005ca08       ?Yamato_Gun@BulletTypes@BWAPI@@3VBulletType@2@B 004a0a08     BWAPI:BulletType.obj
 0003:0005ca0c       ?Acid_Spore@BulletTypes@BWAPI@@3VBulletType@2@B 004a0a0c     BWAPI:BulletType.obj
 0003:0005ca10       ?Dual_Photon_Blasters_Hit@BulletTypes@BWAPI@@3VBulletType@2@B 004a0a10     BWAPI:BulletType.obj
 0003:0005ca14       ?Psionic_Shockwave_Hit@BulletTypes@BWAPI@@3VBulletType@2@B 004a0a14     BWAPI:BulletType.obj
 0003:0005ca18       ?Needle_Spine_Hit@BulletTypes@BWAPI@@3VBulletType@2@B 004a0a18     BWAPI:BulletType.obj
 0003:0005ca1c       ?C_10_Canister_Rifle_Hit@BulletTypes@BWAPI@@3VBulletType@2@B 004a0a1c     BWAPI:BulletType.obj
 0003:0005ca20       ?ATS_ATA_Laser_Battery@BulletTypes@BWAPI@@3VBulletType@2@B 004a0a20     BWAPI:BulletType.obj
 0003:0005ca24       ?Ensnare@BulletTypes@BWAPI@@3VBulletType@2@B 004a0a24     BWAPI:BulletType.obj
 0003:0005ca28       ?STA_STS_Cannon_Overlay@BulletTypes@BWAPI@@3VBulletType@2@B 004a0a28     BWAPI:BulletType.obj
 0003:0005ca2c       ?Invisible@BulletTypes@BWAPI@@3VBulletType@2@B 004a0a2c     BWAPI:BulletType.obj
 0003:0005ca30       ?Fusion_Cutter_Hit@BulletTypes@BWAPI@@3VBulletType@2@B 004a0a30     BWAPI:BulletType.obj
 0003:0005ca34       ?bulletTypeMap@BWAPI@@3V?$map@V?$basic_string@DU?$char_traits@D@std@@V?$allocator@D@2@@std@@VBulletType@BWAPI@@U?$less@V?$basic_string@DU?$char_traits@D@std@@V?$allocator@D@2@@std@@@2@V?$allocator@U?$pair@$$CBV?$basic_string@DU?$char_traits@D@std@@V?$allocator@D@2@@std@@VBulletType@BWAPI@@@std@@@2@@std@@A 004a0a34     BWAPI:BulletType.obj
 0003:0005ca54       ?Psionic_Storm@BulletTypes@BWAPI@@3VBulletType@2@B 004a0a54     BWAPI:BulletType.obj
 0003:0005ca58       ?Glave_Wurm@BulletTypes@BWAPI@@3VBulletType@2@B 004a0a58     BWAPI:BulletType.obj
 0003:0005ca5c       ?Seeker_Spores@BulletTypes@BWAPI@@3VBulletType@2@B 004a0a5c     BWAPI:BulletType.obj
 0003:0005ca60       ?Plague_Cloud@BulletTypes@BWAPI@@3VBulletType@2@B 004a0a60     BWAPI:BulletType.obj
 0003:0005ca64       ?Fragmentation_Grenade@BulletTypes@BWAPI@@3VBulletType@2@B 004a0a64     BWAPI:BulletType.obj
 0003:0005ca68       ?Corrosive_Acid_Shot@BulletTypes@BWAPI@@3VBulletType@2@B 004a0a68     BWAPI:BulletType.obj
 0003:0005ca6c       ?Halo_Rockets@BulletTypes@BWAPI@@3VBulletType@2@B 004a0a6c     BWAPI:BulletType.obj
 0003:0005ca70       ?Unknown@UnitCommandTypes@BWAPI@@3VUnitCommandType@2@B 004a0a70     BWAPI:UnitCommandType.obj
 0003:0005ca74       ?Use_Tech_Position@UnitCommandTypes@BWAPI@@3VUnitCommandType@2@B 004a0a74     BWAPI:UnitCommandType.obj
 0003:0005ca78       ?Morph@UnitCommandTypes@BWAPI@@3VUnitCommandType@2@B 004a0a78     BWAPI:UnitCommandType.obj
 0003:0005ca7c       ?None@UnitCommandTypes@BWAPI@@3VUnitCommandType@2@B 004a0a7c     BWAPI:UnitCommandType.obj
 0003:0005ca80       ?Move@UnitCommandTypes@BWAPI@@3VUnitCommandType@2@B 004a0a80     BWAPI:UnitCommandType.obj
 0003:0005ca84       ?Stop@UnitCommandTypes@BWAPI@@3VUnitCommandType@2@B 004a0a84     BWAPI:UnitCommandType.obj
 0003:0005ca88       ?Return_Cargo@UnitCommandTypes@BWAPI@@3VUnitCommandType@2@B 004a0a88     BWAPI:UnitCommandType.obj
 0003:0005ca8c       ?Unburrow@UnitCommandTypes@BWAPI@@3VUnitCommandType@2@B 004a0a8c     BWAPI:UnitCommandType.obj
 0003:0005ca90       ?Siege@UnitCommandTypes@BWAPI@@3VUnitCommandType@2@B 004a0a90     BWAPI:UnitCommandType.obj
 0003:0005ca94       ?Unsiege@UnitCommandTypes@BWAPI@@3VUnitCommandType@2@B 004a0a94     BWAPI:UnitCommandType.obj
 0003:0005ca98       ?Attack_Move@UnitCommandTypes@BWAPI@@3VUnitCommandType@2@B 004a0a98     BWAPI:UnitCommandType.obj
 0003:0005ca9c       ?Use_Tech_Unit@UnitCommandTypes@BWAPI@@3VUnitCommandType@2@B 004a0a9c     BWAPI:UnitCommandType.obj
 0003:0005caa0       ?Cancel_Construction@UnitCommandTypes@BWAPI@@3VUnitCommandType@2@B 004a0aa0     BWAPI:UnitCommandType.obj
 0003:0005caa4       ?Lift@UnitCommandTypes@BWAPI@@3VUnitCommandType@2@B 004a0aa4     BWAPI:UnitCommandType.obj
 0003:0005caa8       ?Train@UnitCommandTypes@BWAPI@@3VUnitCommandType@2@B 004a0aa8     BWAPI:UnitCommandType.obj
 0003:0005caac       ?Patrol@UnitCommandTypes@BWAPI@@3VUnitCommandType@2@B 004a0aac     BWAPI:UnitCommandType.obj
 0003:0005cab0       ?Hold_Position@UnitCommandTypes@BWAPI@@3VUnitCommandType@2@B 004a0ab0     BWAPI:UnitCommandType.obj
 0003:0005cab4       ?Burrow@UnitCommandTypes@BWAPI@@3VUnitCommandType@2@B 004a0ab4     BWAPI:UnitCommandType.obj
 0003:0005cab8       ?Place_COP@UnitCommandTypes@BWAPI@@3VUnitCommandType@2@B 004a0ab8     BWAPI:UnitCommandType.obj
 0003:0005cabc       ?Unload_All_Position@UnitCommandTypes@BWAPI@@3VUnitCommandType@2@B 004a0abc     BWAPI:UnitCommandType.obj
 0003:0005cac0       ?Cancel_Morph@UnitCommandTypes@BWAPI@@3VUnitCommandType@2@B 004a0ac0     BWAPI:UnitCommandType.obj
 0003:0005cac4       ?Cancel_Research@UnitCommandTypes@BWAPI@@3VUnitCommandType@2@B 004a0ac4     BWAPI:UnitCommandType.obj
 0003:0005cac8       ?Right_Click_Unit@UnitCommandTypes@BWAPI@@3VUnitCommandType@2@B 004a0ac8     BWAPI:UnitCommandType.obj
 0003:0005cacc       ?Land@UnitCommandTypes@BWAPI@@3VUnitCommandType@2@B 004a0acc     BWAPI:UnitCommandType.obj
 0003:0005cad0       ?Build_Addon@UnitCommandTypes@BWAPI@@3VUnitCommandType@2@B 004a0ad0     BWAPI:UnitCommandType.obj
 0003:0005cad4       ?Attack_Unit@UnitCommandTypes@BWAPI@@3VUnitCommandType@2@B 004a0ad4     BWAPI:UnitCommandType.obj
 0003:0005cad8       ?Gather@UnitCommandTypes@BWAPI@@3VUnitCommandType@2@B 004a0ad8     BWAPI:UnitCommandType.obj
 0003:0005cadc       ?Unload_All@UnitCommandTypes@BWAPI@@3VUnitCommandType@2@B 004a0adc     BWAPI:UnitCommandType.obj
 0003:0005cae0       ?Research@UnitCommandTypes@BWAPI@@3VUnitCommandType@2@B 004a0ae0     BWAPI:UnitCommandType.obj
 0003:0005cae4       ?Decloak@UnitCommandTypes@BWAPI@@3VUnitCommandType@2@B 004a0ae4     BWAPI:UnitCommandType.obj
 0003:0005cae8       ?unitCommandTypeMap@BWAPI@@3V?$map@V?$basic_string@DU?$char_traits@D@std@@V?$allocator@D@2@@std@@VUnitCommandType@BWAPI@@U?$less@V?$basic_string@DU?$char_traits@D@std@@V?$allocator@D@2@@std@@@2@V?$allocator@U?$pair@$$CBV?$basic_string@DU?$char_traits@D@std@@V?$allocator@D@2@@std@@VUnitCommandType@BWAPI@@@std@@@2@@std@@A 004a0ae8     BWAPI:UnitCommandType.obj
 0003:0005cb08       ?unitCommandTypeName@BWAPI@@3PAV?$basic_string@DU?$char_traits@D@std@@V?$allocator@D@2@@std@@A 004a0b08     BWAPI:UnitCommandType.obj
 0003:0005d010       ?unitCommandTypeSet@BWAPI@@3V?$set@VUnitCommandType@BWAPI@@U?$less@VUnitCommandType@BWAPI@@@std@@V?$allocator@VUnitCommandType@BWAPI@@@4@@std@@A 004a1010     BWAPI:UnitCommandType.obj
 0003:0005d030       ?Cancel_Upgrade@UnitCommandTypes@BWAPI@@3VUnitCommandType@2@B 004a1030     BWAPI:UnitCommandType.obj
 0003:0005d034       ?Unload@UnitCommandTypes@BWAPI@@3VUnitCommandType@2@B 004a1034     BWAPI:UnitCommandType.obj
 0003:0005d038       ?Follow@UnitCommandTypes@BWAPI@@3VUnitCommandType@2@B 004a1038     BWAPI:UnitCommandType.obj
 0003:0005d03c       ?Use_Tech@UnitCommandTypes@BWAPI@@3VUnitCommandType@2@B 004a103c     BWAPI:UnitCommandType.obj
 0003:0005d040       ?Right_Click_Position@UnitCommandTypes@BWAPI@@3VUnitCommandType@2@B 004a1040     BWAPI:UnitCommandType.obj
 0003:0005d044       ?Build@UnitCommandTypes@BWAPI@@3VUnitCommandType@2@B 004a1044     BWAPI:UnitCommandType.obj
 0003:0005d048       ?Upgrade@UnitCommandTypes@BWAPI@@3VUnitCommandType@2@B 004a1048     BWAPI:UnitCommandType.obj
 0003:0005d04c       ?Set_Rally_Position@UnitCommandTypes@BWAPI@@3VUnitCommandType@2@B 004a104c     BWAPI:UnitCommandType.obj
 0003:0005d050       ?Set_Rally_Unit@UnitCommandTypes@BWAPI@@3VUnitCommandType@2@B 004a1050     BWAPI:UnitCommandType.obj
 0003:0005d054       ?Cancel_Train_Slot@UnitCommandTypes@BWAPI@@3VUnitCommandType@2@B 004a1054     BWAPI:UnitCommandType.obj
 0003:0005d058       ?Cancel_Addon@UnitCommandTypes@BWAPI@@3VUnitCommandType@2@B 004a1058     BWAPI:UnitCommandType.obj
 0003:0005d05c       ?Repair@UnitCommandTypes@BWAPI@@3VUnitCommandType@2@B 004a105c     BWAPI:UnitCommandType.obj
 0003:0005d060       ?Halt_Construction@UnitCommandTypes@BWAPI@@3VUnitCommandType@2@B 004a1060     BWAPI:UnitCommandType.obj
 0003:0005d064       ?Load@UnitCommandTypes@BWAPI@@3VUnitCommandType@2@B 004a1064     BWAPI:UnitCommandType.obj
 0003:0005d068       ?Cloak@UnitCommandTypes@BWAPI@@3VUnitCommandType@2@B 004a1068     BWAPI:UnitCommandType.obj
 0003:0005d06c       ?Cancel_Train@UnitCommandTypes@BWAPI@@3VUnitCommandType@2@B 004a106c     BWAPI:UnitCommandType.obj
 0003:0005d070       ?playerTypeMap@BWAPI@@3V?$map@V?$basic_string@DU?$char_traits@D@std@@V?$allocator@D@2@@std@@VPlayerType@BWAPI@@U?$less@V?$basic_string@DU?$char_traits@D@std@@V?$allocator@D@2@@std@@@2@V?$allocator@U?$pair@$$CBV?$basic_string@DU?$char_traits@D@std@@V?$allocator@D@2@@std@@VPlayerType@BWAPI@@@std@@@2@@std@@A 004a1070     BWAPI:PlayerType.obj
 0003:0005d090       ?playerTypeName@BWAPI@@3PAV?$basic_string@DU?$char_traits@D@std@@V?$allocator@D@2@@std@@A 004a1090     BWAPI:PlayerType.obj
 0003:0005d1fc       ?Unknown@PlayerTypes@BWAPI@@3VPlayerType@2@B 004a11fc     BWAPI:PlayerType.obj
 0003:0005d200       ?Computer@PlayerTypes@BWAPI@@3VPlayerType@2@B 004a1200     BWAPI:PlayerType.obj
 0003:0005d204       ?None@PlayerTypes@BWAPI@@3VPlayerType@2@B 004a1204     BWAPI:PlayerType.obj
 0003:0005d208       ?PlayerLeft@PlayerTypes@BWAPI@@3VPlayerType@2@B 004a1208     BWAPI:PlayerType.obj
 0003:0005d20c       ?ComputerLeft@PlayerTypes@BWAPI@@3VPlayerType@2@B 004a120c     BWAPI:PlayerType.obj
 0003:0005d210       ?RescuePassive@PlayerTypes@BWAPI@@3VPlayerType@2@B 004a1210     BWAPI:PlayerType.obj
 0003:0005d214       ?Closed@PlayerTypes@BWAPI@@3VPlayerType@2@B 004a1214     BWAPI:PlayerType.obj
 0003:0005d218       ?Neutral@PlayerTypes@BWAPI@@3VPlayerType@2@B 004a1218     BWAPI:PlayerType.obj
 0003:0005d21c       ?playerTypeSet@BWAPI@@3V?$set@VPlayerType@BWAPI@@U?$less@VPlayerType@BWAPI@@@std@@V?$allocator@VPlayerType@BWAPI@@@4@@std@@A 004a121c     BWAPI:PlayerType.obj
 0003:0005d23c       ?EitherPreferHuman@PlayerTypes@BWAPI@@3VPlayerType@2@B 004a123c     BWAPI:PlayerType.obj
 0003:0005d240       ?Player@PlayerTypes@BWAPI@@3VPlayerType@2@B 004a1240     BWAPI:PlayerType.obj
 0003:0005d244       ?EitherPreferComputer@PlayerTypes@BWAPI@@3VPlayerType@2@B 004a1244     BWAPI:PlayerType.obj
 0003:0005d248       ?explosionTypeSet@BWAPI@@3V?$set@VExplosionType@BWAPI@@U?$less@VExplosionType@BWAPI@@@std@@V?$allocator@VExplosionType@BWAPI@@@4@@std@@A 004a1248     BWAPI:ExplosionType.obj
 0003:0005d268       ?explosionTypeName@BWAPI@@3PAV?$basic_string@DU?$char_traits@D@std@@V?$allocator@D@2@@std@@A 004a1268     BWAPI:ExplosionType.obj
 0003:0005d540       ?explosionTypeMap@BWAPI@@3V?$map@V?$basic_string@DU?$char_traits@D@std@@V?$allocator@D@2@@std@@VExplosionType@BWAPI@@U?$less@V?$basic_string@DU?$char_traits@D@std@@V?$allocator@D@2@@std@@@2@V?$allocator@U?$pair@$$CBV?$basic_string@DU?$char_traits@D@std@@V?$allocator@D@2@@std@@VExplosionType@BWAPI@@@std@@@2@@std@@A 004a1540     BWAPI:ExplosionType.obj
 0003:0005d560       ?Unknown@ExplosionTypes@BWAPI@@3VExplosionType@2@B 004a1560     BWAPI:ExplosionType.obj
 0003:0005d564       ?Irradiate@ExplosionTypes@BWAPI@@3VExplosionType@2@B 004a1564     BWAPI:ExplosionType.obj
 0003:0005d568       ?None@ExplosionTypes@BWAPI@@3VExplosionType@2@B 004a1568     BWAPI:ExplosionType.obj
 0003:0005d56c       ?Consume@ExplosionTypes@BWAPI@@3VExplosionType@2@B 004a156c     BWAPI:ExplosionType.obj
 0003:0005d570       ?Restoration@ExplosionTypes@BWAPI@@3VExplosionType@2@B 004a1570     BWAPI:ExplosionType.obj
 0003:0005d574       ?Plague@ExplosionTypes@BWAPI@@3VExplosionType@2@B 004a1574     BWAPI:ExplosionType.obj
 0003:0005d578       ?Enemy_Splash@ExplosionTypes@BWAPI@@3VExplosionType@2@B 004a1578     BWAPI:ExplosionType.obj
 0003:0005d57c       ?Dark_Swarm@ExplosionTypes@BWAPI@@3VExplosionType@2@B 004a157c     BWAPI:ExplosionType.obj
 0003:0005d580       ?EMP_Shockwave@ExplosionTypes@BWAPI@@3VExplosionType@2@B 004a1580     BWAPI:ExplosionType.obj
 0003:0005d584       ?Normal@ExplosionTypes@BWAPI@@3VExplosionType@2@B 004a1584     BWAPI:ExplosionType.obj
 0003:0005d588       ?Broodlings@ExplosionTypes@BWAPI@@3VExplosionType@2@B 004a1588     BWAPI:ExplosionType.obj
 0003:0005d58c       ?Optical_Flare@ExplosionTypes@BWAPI@@3VExplosionType@2@B 004a158c     BWAPI:ExplosionType.obj
 0003:0005d590       ?Lockdown@ExplosionTypes@BWAPI@@3VExplosionType@2@B 004a1590     BWAPI:ExplosionType.obj
 0003:0005d594       ?Yamato_Gun@ExplosionTypes@BWAPI@@3VExplosionType@2@B 004a1594     BWAPI:ExplosionType.obj
 0003:0005d598       ?Air_Splash@ExplosionTypes@BWAPI@@3VExplosionType@2@B 004a1598     BWAPI:ExplosionType.obj
 0003:0005d59c       ?Nuclear_Missile@ExplosionTypes@BWAPI@@3VExplosionType@2@B 004a159c     BWAPI:ExplosionType.obj
 0003:0005d5a0       ?Stasis_Field@ExplosionTypes@BWAPI@@3VExplosionType@2@B 004a15a0     BWAPI:ExplosionType.obj
 0003:0005d5a4       ?Radial_Splash@ExplosionTypes@BWAPI@@3VExplosionType@2@B 004a15a4     BWAPI:ExplosionType.obj
 0003:0005d5a8       ?Corrosive_Acid@ExplosionTypes@BWAPI@@3VExplosionType@2@B 004a15a8     BWAPI:ExplosionType.obj
 0003:0005d5ac       ?Ensnare@ExplosionTypes@BWAPI@@3VExplosionType@2@B 004a15ac     BWAPI:ExplosionType.obj
 0003:0005d5b0       ?Disruption_Web@ExplosionTypes@BWAPI@@3VExplosionType@2@B 004a15b0     BWAPI:ExplosionType.obj
 0003:0005d5b4       ?Maelstrom@ExplosionTypes@BWAPI@@3VExplosionType@2@B 004a15b4     BWAPI:ExplosionType.obj
 0003:0005d5b8       ?Feedback@ExplosionTypes@BWAPI@@3VExplosionType@2@B 004a15b8     BWAPI:ExplosionType.obj
 0003:0005d5bc       ?Mind_Control@ExplosionTypes@BWAPI@@3VExplosionType@2@B 004a15bc     BWAPI:ExplosionType.obj
 0003:0005d5c0       ?Parasite@ExplosionTypes@BWAPI@@3VExplosionType@2@B 004a15c0     BWAPI:ExplosionType.obj
 0003:0005d5c8       ?Unknown@DamageTypes@BWAPI@@3VDamageType@2@B 004a15c8     BWAPI:DamageType.obj
 0003:0005d5cc       ?None@DamageTypes@BWAPI@@3VDamageType@2@B 004a15cc     BWAPI:DamageType.obj
 0003:0005d5d0       ?Explosive@DamageTypes@BWAPI@@3VDamageType@2@B 004a15d0     BWAPI:DamageType.obj
 0003:0005d5d4       ?Normal@DamageTypes@BWAPI@@3VDamageType@2@B 004a15d4     BWAPI:DamageType.obj
 0003:0005d5d8       ?Ignore_Armor@DamageTypes@BWAPI@@3VDamageType@2@B 004a15d8     BWAPI:DamageType.obj
 0003:0005d5dc       ?Concussive@DamageTypes@BWAPI@@3VDamageType@2@B 004a15dc     BWAPI:DamageType.obj
 0003:0005d5e0       ?damageTypeName@BWAPI@@3PAV?$basic_string@DU?$char_traits@D@std@@V?$allocator@D@2@@std@@A 004a15e0     BWAPI:DamageType.obj
 0003:0005d6a4       ?damageTypeMap@BWAPI@@3V?$map@V?$basic_string@DU?$char_traits@D@std@@V?$allocator@D@2@@std@@VDamageType@BWAPI@@U?$less@V?$basic_string@DU?$char_traits@D@std@@V?$allocator@D@2@@std@@@2@V?$allocator@U?$pair@$$CBV?$basic_string@DU?$char_traits@D@std@@V?$allocator@D@2@@std@@VDamageType@BWAPI@@@std@@@2@@std@@A 004a16a4     BWAPI:DamageType.obj
 0003:0005d6c4       ?damageTypeSet@BWAPI@@3V?$set@VDamageType@BWAPI@@U?$less@VDamageType@BWAPI@@@std@@V?$allocator@VDamageType@BWAPI@@@4@@std@@A 004a16c4     BWAPI:DamageType.obj
 0003:0005d6e4       ?Independent@DamageTypes@BWAPI@@3VDamageType@2@B 004a16e4     BWAPI:DamageType.obj
 0003:0005da2c       __forceCRTManifestRTM      004a1a2c     MSVCRT:crtmanifestrtm.obj
 0003:0005da30       __dowildcard               004a1a30     MSVCRT:wildcard.obj
 0003:0005da34       __newmode                  004a1a34     MSVCRT:_newmode.obj
 0003:0005da38       __commode                  004a1a38     MSVCRT:xncommod.obj
 0003:0005da3c       __fmode                    004a1a3c     MSVCRT:xtxtmode.obj
 0003:0006965c       ___sse2_available          004ad65c     <common>
 0003:00069660       __adjust_fdiv              004ad660     <common>
 0003:00069664       ___native_startup_state    004ad664     <common>
 0003:00069668       ___native_startup_lock     004ad668     <common>
 0003:0006966c       ___dyn_tls_init_callback   004ad66c     <common>
 0003:00069670       ___onexitend               004ad670     <common>
 0003:00069674       ___onexitbegin             004ad674     <common>

 entry point at        0001:0002d10e

 Static symbols

 0001:000086b3       __catch$?search@DFBBStarcraftSearch@BuildOrderSearch@@UAE?AVSearchResults@2@XZ$0 004096b3 f i  CIL library: CIL module
 0001:0000b983       __catch$??0?$_Tree@V?$_Tmap_traits@VUnitType@BWAPI@@HU?$less@VUnitType@BWAPI@@@std@@V?$allocator@U?$pair@$$CBVUnitType@BWAPI@@H@std@@@4@$0A@@std@@@std@@QAE@ABV01@@Z$0 0040c983 f i  CIL library: CIL module
 0001:0000bb3e       __catch$??0?$vector@VStarcraftSearchConstraint@BuildOrderSearch@@V?$allocator@VStarcraftSearchConstraint@BuildOrderSearch@@@std@@@std@@QAE@ABV01@@Z$0 0040cb3e f i  CIL library: CIL module
 0001:0000bd67       __catch$??0?$vector@U?$pair@HH@std@@V?$allocator@U?$pair@HH@std@@@2@@std@@QAE@ABV01@@Z$0 0040cd67 f i  CIL library: CIL module
 0001:0000c5a1       __catch$??0?$vector@V?$vector@_NV?$allocator@_N@std@@@std@@V?$allocator@V?$vector@_NV?$allocator@_N@std@@@std@@@2@@std@@QAE@ABV01@@Z$0 0040d5a1 f i  CIL library: CIL module
 0001:0000ccbb       __catch$?_Construct_n@?$vector@VBitSet@BuildOrderSearch@@V?$allocator@VBitSet@BuildOrderSearch@@@std@@@std@@QAEXIABVBitSet@BuildOrderSearch@@@Z$0 0040dcbb f i  CIL library: CIL module
 0001:0000d1f0       __catch$?_Insert_n@?$vector@VStarcraftAction@BuildOrderSearch@@V?$allocator@VStarcraftAction@BuildOrderSearch@@@std@@@std@@IAEXV?$_Vector_const_iterator@VStarcraftAction@BuildOrderSearch@@V?$allocator@VStarcraftAction@BuildOrderSearch@@@std@@@2@IABVStarcraftAction@BuildOrderSearch@@@Z$0 0040e1f0 f i  CIL library: CIL module
 0001:0000d2f4       __catch$?_Insert_n@?$vector@VStarcraftAction@BuildOrderSearch@@V?$allocator@VStarcraftAction@BuildOrderSearch@@@std@@@std@@IAEXV?$_Vector_const_iterator@VStarcraftAction@BuildOrderSearch@@V?$allocator@VStarcraftAction@BuildOrderSearch@@@std@@@2@IABVStarcraftAction@BuildOrderSearch@@@Z$2 0040e2f4 f i  CIL library: CIL module
 0001:0000d533       __catch$?_Insert_n@?$vector@VMacroAction@BuildOrderSearch@@V?$allocator@VMacroAction@BuildOrderSearch@@@std@@@std@@IAEXV?$_Vector_const_iterator@VMacroAction@BuildOrderSearch@@V?$allocator@VMacroAction@BuildOrderSearch@@@std@@@2@IABVMacroAction@BuildOrderSearch@@@Z$0 0040e533 f i  CIL library: CIL module
 0001:0000d5f3       __catch$?_Insert_n@?$vector@VMacroAction@BuildOrderSearch@@V?$allocator@VMacroAction@BuildOrderSearch@@@std@@@std@@IAEXV?$_Vector_const_iterator@VMacroAction@BuildOrderSearch@@V?$allocator@VMacroAction@BuildOrderSearch@@@std@@@2@IABVMacroAction@BuildOrderSearch@@@Z$2 0040e5f3 f i  CIL library: CIL module
 0001:0000d716       __catch$?_Construct_n@?$vector@V?$vector@_NV?$allocator@_N@std@@@std@@V?$allocator@V?$vector@_NV?$allocator@_N@std@@@std@@@2@@std@@QAEXIABV?$vector@_NV?$allocator@_N@std@@@2@@Z$0 0040e716 f i  CIL library: CIL module
 0001:0000d94d       __catch$?_Copy@?$_Tree@V?$_Tmap_traits@VUnitType@BWAPI@@HU?$less@VUnitType@BWAPI@@@std@@V?$allocator@U?$pair@$$CBVUnitType@BWAPI@@H@std@@@4@$0A@@std@@@std@@IAEPAU_Node@?$_Tree_nod@V?$_Tmap_traits@VUnitType@BWAPI@@HU?$less@VUnitType@BWAPI@@@std@@V?$allocator@U?$pair@$$CBVUnitType@BWAPI@@H@std@@@4@$0A@@std@@@2@PAU342@0@Z$0 0040e94d f i  CIL library: CIL module
 0001:0000dc51       __catch$?_Insert_n@?$vector@U?$pair@HH@std@@V?$allocator@U?$pair@HH@std@@@2@@std@@IAEXV?$_Vector_const_iterator@U?$pair@HH@std@@V?$allocator@U?$pair@HH@std@@@2@@2@IABU?$pair@HH@2@@Z$0 0040ec51 f i  CIL library: CIL module
 0001:0000dc5d       __catch$?_Insert_n@?$vector@U?$pair@HH@std@@V?$allocator@U?$pair@HH@std@@@2@@std@@IAEXV?$_Vector_const_iterator@U?$pair@HH@std@@V?$allocator@U?$pair@HH@std@@@2@@2@IABU?$pair@HH@2@@Z$2 0040ec5d f i  CIL library: CIL module
 0001:0000e383       __catch$?_Insert_n@?$vector@VStarcraftState@BuildOrderSearch@@V?$allocator@VStarcraftState@BuildOrderSearch@@@std@@@std@@IAEXV?$_Vector_const_iterator@VStarcraftState@BuildOrderSearch@@V?$allocator@VStarcraftState@BuildOrderSearch@@@std@@@2@IABVStarcraftState@BuildOrderSearch@@@Z$0 0040f383 f i  CIL library: CIL module
 0001:0000e491       __catch$?_Insert_n@?$vector@VStarcraftState@BuildOrderSearch@@V?$allocator@VStarcraftState@BuildOrderSearch@@@std@@@std@@IAEXV?$_Vector_const_iterator@VStarcraftState@BuildOrderSearch@@V?$allocator@VStarcraftState@BuildOrderSearch@@@std@@@2@IABVStarcraftState@BuildOrderSearch@@@Z$2 0040f491 f i  CIL library: CIL module
 0001:0000faa2       __catch$??$?6U?$char_traits@D@std@@@std@@YAAAV?$basic_ostream@DU?$char_traits@D@std@@@0@AAV10@PBD@Z$0 00410aa2 f i  CIL library: CIL module
 0001:0000fbd6       __catch$??$?6U?$char_traits@D@std@@@std@@YAAAV?$basic_ostream@DU?$char_traits@D@std@@@0@AAV10@D@Z$0 00410bd6 f i  CIL library: CIL module
 0001:00010178       __catch$??$_Uninit_fill_n@PAVStarcraftAction@BuildOrderSearch@@IV12@V?$allocator@VStarcraftAction@BuildOrderSearch@@@std@@@std@@YAXPAVStarcraftAction@BuildOrderSearch@@IABV12@AAV?$allocator@VStarcraftAction@BuildOrderSearch@@@0@U_Nonscalar_ptr_iterator_tag@0@U_Range_checked_iterator_tag@0@@Z$0 00411178 f i  CIL library: CIL module
 0001:0001021e       __catch$??$_Uninit_fill_n@PAVMacroAction@BuildOrderSearch@@IV12@V?$allocator@VMacroAction@BuildOrderSearch@@@std@@@std@@YAXPAVMacroAction@BuildOrderSearch@@IABV12@AAV?$allocator@VMacroAction@BuildOrderSearch@@@0@U_Nonscalar_ptr_iterator_tag@0@U_Range_checked_iterator_tag@0@@Z$0 0041121e f i  CIL library: CIL module
 0001:000102b3       __catch$??$_Uninit_fill_n@PAVStarcraftState@BuildOrderSearch@@IV12@V?$allocator@VStarcraftState@BuildOrderSearch@@@std@@@std@@YAXPAVStarcraftState@BuildOrderSearch@@IABV12@AAV?$allocator@VStarcraftState@BuildOrderSearch@@@0@U_Nonscalar_ptr_iterator_tag@0@U_Range_checked_iterator_tag@0@@Z$0 004112b3 f i  CIL library: CIL module
 0001:00010405       __catch$??$_Uninit_fill_n@PAV?$vector@_NV?$allocator@_N@std@@@std@@IV12@V?$allocator@V?$vector@_NV?$allocator@_N@std@@@std@@@2@@std@@YAXPAV?$vector@_NV?$allocator@_N@std@@@0@IABV10@AAV?$allocator@V?$vector@_NV?$allocator@_N@std@@@std@@@0@U_Nonscalar_ptr_iterator_tag@0@U_Range_checked_iterator_tag@0@@Z$0 00411405 f i  CIL library: CIL module
 0001:000107e5       __catch$??$_Uninit_copy@PBV?$vector@_NV?$allocator@_N@std@@@std@@PAV12@V?$allocator@V?$vector@_NV?$allocator@_N@std@@@std@@@2@@std@@YAPAV?$vector@_NV?$allocator@_N@std@@@0@PBV10@0PAV10@AAV?$allocator@V?$vector@_NV?$allocator@_N@std@@@std@@@0@U_Nonscalar_ptr_iterator_tag@0@U_Range_checked_iterator_tag@0@@Z$0 004117e5 f i  CIL library: CIL module
 0001:000107e5       __catch$??$_Uninit_copy@PAV?$vector@_NV?$allocator@_N@std@@@std@@PAV12@V?$allocator@V?$vector@_NV?$allocator@_N@std@@@std@@@2@@std@@YAPAV?$vector@_NV?$allocator@_N@std@@@0@PAV10@00AAV?$allocator@V?$vector@_NV?$allocator@_N@std@@@std@@@0@U_Nonscalar_ptr_iterator_tag@0@U_Range_checked_iterator_tag@0@@Z$0 004117e5 f i  CIL library: CIL module
 0001:00010e75       __catch$??$_Uninit_copy@PAVStarcraftAction@BuildOrderSearch@@PAV12@V?$allocator@VStarcraftAction@BuildOrderSearch@@@std@@@std@@YAPAVStarcraftAction@BuildOrderSearch@@PAV12@00AAV?$allocator@VStarcraftAction@BuildOrderSearch@@@0@U_Nonscalar_ptr_iterator_tag@0@U_Range_checked_iterator_tag@0@@Z$0 00411e75 f i  CIL library: CIL module
 0001:00010f1d       __catch$??$_Uninit_copy@PAVMacroAction@BuildOrderSearch@@PAV12@V?$allocator@VMacroAction@BuildOrderSearch@@@std@@@std@@YAPAVMacroAction@BuildOrderSearch@@PAV12@00AAV?$allocator@VMacroAction@BuildOrderSearch@@@0@U_Nonscalar_ptr_iterator_tag@0@U_Range_checked_iterator_tag@0@@Z$0 00411f1d f i  CIL library: CIL module
 0001:00010fb6       __catch$??$_Uninit_copy@PAVStarcraftState@BuildOrderSearch@@PAV12@V?$allocator@VStarcraftState@BuildOrderSearch@@@std@@@std@@YAPAVStarcraftState@BuildOrderSearch@@PAV12@00AAV?$allocator@VStarcraftState@BuildOrderSearch@@@0@U_Nonscalar_ptr_iterator_tag@0@U_Range_checked_iterator_tag@0@@Z$0 00411fb6 f i  CIL library: CIL module
 0001:0002b007       __catch$?_Buynode@?$_Tree@V?$_Tmap_traits@V?$basic_string@DU?$char_traits@D@std@@V?$allocator@D@2@@std@@VPlayerType@BWAPI@@U?$less@V?$basic_string@DU?$char_traits@D@std@@V?$allocator@D@2@@std@@@2@V?$allocator@U?$pair@$$CBV?$basic_string@DU?$char_traits@D@std@@V?$allocator@D@2@@std@@VPlayerType@BWAPI@@@std@@@2@$0A@@std@@@std@@IAEPAU_Node@?$_Tree_nod@V?$_Tmap_traits@V?$basic_string@DU?$char_traits@D@std@@V?$allocator@D@2@@std@@VPlayerType@BWAPI@@U?$less@V?$basic_string@DU?$char_traits@D@std@@V?$allocator@D@2@@std@@@2@V?$allocator@U?$pair@$$CBV?$basic_string@DU?$char_traits@D@std@@V?$allocator@D@2@@std@@VPlayerType@BWAPI@@@std@@@2@$0A@@std@@@2@PAU342@00ABU?$pair@$$CBV?$basic_string@DU?$char_traits@D@std@@V?$allocator@D@2@@std@@VPlayerType@BWAPI@@@2@D@Z$0 0042c007 f i BWAPI:UnitCommandType.obj
 0001:0002b007       __catch$?_Buynode@?$_Tree@V?$_Tmap_traits@V?$basic_string@DU?$char_traits@D@std@@V?$allocator@D@2@@std@@VUnitCommandType@BWAPI@@U?$less@V?$basic_string@DU?$char_traits@D@std@@V?$allocator@D@2@@std@@@2@V?$allocator@U?$pair@$$CBV?$basic_string@DU?$char_traits@D@std@@V?$allocator@D@2@@std@@VUnitCommandType@BWAPI@@@std@@@2@$0A@@std@@@std@@IAEPAU_Node@?$_Tree_nod@V?$_Tmap_traits@V?$basic_string@DU?$char_traits@D@std@@V?$allocator@D@2@@std@@VUnitCommandType@BWAPI@@U?$less@V?$basic_string@DU?$char_traits@D@std@@V?$allocator@D@2@@std@@@2@V?$allocator@U?$pair@$$CBV?$basic_string@DU?$char_traits@D@std@@V?$allocator@D@2@@std@@VUnitCommandType@BWAPI@@@std@@@2@$0A@@std@@@2@PAU342@00ABU?$pair@$$CBV?$basic_string@DU?$char_traits@D@std@@V?$allocator@D@2@@std@@VUnitCommandType@BWAPI@@@2@D@Z$0 0042c007 f i BWAPI:UnitCommandType.obj
 0001:0002b007       __catch$?_Buynode@?$_Tree@V?$_Tmap_traits@V?$basic_string@DU?$char_traits@D@std@@V?$allocator@D@2@@std@@VUpgradeType@BWAPI@@U?$less@V?$basic_string@DU?$char_traits@D@std@@V?$allocator@D@2@@std@@@2@V?$allocator@U?$pair@$$CBV?$basic_string@DU?$char_traits@D@std@@V?$allocator@D@2@@std@@VUpgradeType@BWAPI@@@std@@@2@$0A@@std@@@std@@IAEPAU_Node@?$_Tree_nod@V?$_Tmap_traits@V?$basic_string@DU?$char_traits@D@std@@V?$allocator@D@2@@std@@VUpgradeType@BWAPI@@U?$less@V?$basic_string@DU?$char_traits@D@std@@V?$allocator@D@2@@std@@@2@V?$allocator@U?$pair@$$CBV?$basic_string@DU?$char_traits@D@std@@V?$allocator@D@2@@std@@VUpgradeType@BWAPI@@@std@@@2@$0A@@std@@@2@PAU342@00ABU?$pair@$$CBV?$basic_string@DU?$char_traits@D@std@@V?$allocator@D@2@@std@@VUpgradeType@BWAPI@@@2@D@Z$0 0042c007 f i BWAPI:UnitCommandType.obj
 0001:0002b007       __catch$?_Buynode@?$_Tree@V?$_Tmap_traits@V?$basic_string@DU?$char_traits@D@std@@V?$allocator@D@2@@std@@VExplosionType@BWAPI@@U?$less@V?$basic_string@DU?$char_traits@D@std@@V?$allocator@D@2@@std@@@2@V?$allocator@U?$pair@$$CBV?$basic_string@DU?$char_traits@D@std@@V?$allocator@D@2@@std@@VExplosionType@BWAPI@@@std@@@2@$0A@@std@@@std@@IAEPAU_Node@?$_Tree_nod@V?$_Tmap_traits@V?$basic_string@DU?$char_traits@D@std@@V?$allocator@D@2@@std@@VExplosionType@BWAPI@@U?$less@V?$basic_string@DU?$char_traits@D@std@@V?$allocator@D@2@@std@@@2@V?$allocator@U?$pair@$$CBV?$basic_string@DU?$char_traits@D@std@@V?$allocator@D@2@@std@@VExplosionType@BWAPI@@@std@@@2@$0A@@std@@@2@PAU342@00ABU?$pair@$$CBV?$basic_string@DU?$char_traits@D@std@@V?$allocator@D@2@@std@@VExplosionType@BWAPI@@@2@D@Z$0 0042c007 f i BWAPI:UnitCommandType.obj
 0001:0002b007       __catch$?_Buynode@?$_Tree@V?$_Tmap_traits@V?$basic_string@DU?$char_traits@D@std@@V?$allocator@D@2@@std@@VUnitSizeType@BWAPI@@U?$less@V?$basic_string@DU?$char_traits@D@std@@V?$allocator@D@2@@std@@@2@V?$allocator@U?$pair@$$CBV?$basic_string@DU?$char_traits@D@std@@V?$allocator@D@2@@std@@VUnitSizeType@BWAPI@@@std@@@2@$0A@@std@@@std@@IAEPAU_Node@?$_Tree_nod@V?$_Tmap_traits@V?$basic_string@DU?$char_traits@D@std@@V?$allocator@D@2@@std@@VUnitSizeType@BWAPI@@U?$less@V?$basic_string@DU?$char_traits@D@std@@V?$allocator@D@2@@std@@@2@V?$allocator@U?$pair@$$CBV?$basic_string@DU?$char_traits@D@std@@V?$allocator@D@2@@std@@VUnitSizeType@BWAPI@@@std@@@2@$0A@@std@@@2@PAU342@00ABU?$pair@$$CBV?$basic_string@DU?$char_traits@D@std@@V?$allocator@D@2@@std@@VUnitSizeType@BWAPI@@@2@D@Z$0 0042c007 f i BWAPI:UnitCommandType.obj
 0001:0002b007       __catch$?_Buynode@?$_Tree@V?$_Tmap_traits@V?$basic_string@DU?$char_traits@D@std@@V?$allocator@D@2@@std@@VError@BWAPI@@U?$less@V?$basic_string@DU?$char_traits@D@std@@V?$allocator@D@2@@std@@@2@V?$allocator@U?$pair@$$CBV?$basic_string@DU?$char_traits@D@std@@V?$allocator@D@2@@std@@VError@BWAPI@@@std@@@2@$0A@@std@@@std@@IAEPAU_Node@?$_Tree_nod@V?$_Tmap_traits@V?$basic_string@DU?$char_traits@D@std@@V?$allocator@D@2@@std@@VError@BWAPI@@U?$less@V?$basic_string@DU?$char_traits@D@std@@V?$allocator@D@2@@std@@@2@V?$allocator@U?$pair@$$CBV?$basic_string@DU?$char_traits@D@std@@V?$allocator@D@2@@std@@VError@BWAPI@@@std@@@2@$0A@@std@@@2@PAU342@00ABU?$pair@$$CBV?$basic_string@DU?$char_traits@D@std@@V?$allocator@D@2@@std@@VError@BWAPI@@@2@D@Z$0 0042c007 f i BWAPI:UnitCommandType.obj
 0001:0002b007       __catch$?_Buynode@?$_Tree@V?$_Tmap_traits@V?$basic_string@DU?$char_traits@D@std@@V?$allocator@D@2@@std@@VWeaponType@BWAPI@@U?$less@V?$basic_string@DU?$char_traits@D@std@@V?$allocator@D@2@@std@@@2@V?$allocator@U?$pair@$$CBV?$basic_string@DU?$char_traits@D@std@@V?$allocator@D@2@@std@@VWeaponType@BWAPI@@@std@@@2@$0A@@std@@@std@@IAEPAU_Node@?$_Tree_nod@V?$_Tmap_traits@V?$basic_string@DU?$char_traits@D@std@@V?$allocator@D@2@@std@@VWeaponType@BWAPI@@U?$less@V?$basic_string@DU?$char_traits@D@std@@V?$allocator@D@2@@std@@@2@V?$allocator@U?$pair@$$CBV?$basic_string@DU?$char_traits@D@std@@V?$allocator@D@2@@std@@VWeaponType@BWAPI@@@std@@@2@$0A@@std@@@2@PAU342@00ABU?$pair@$$CBV?$basic_string@DU?$char_traits@D@std@@V?$allocator@D@2@@std@@VWeaponType@BWAPI@@@2@D@Z$0 0042c007 f i BWAPI:UnitCommandType.obj
 0001:0002b007       __catch$?_Buynode@?$_Tree@V?$_Tmap_traits@V?$basic_string@DU?$char_traits@D@std@@V?$allocator@D@2@@std@@VOrder@BWAPI@@U?$less@V?$basic_string@DU?$char_traits@D@std@@V?$allocator@D@2@@std@@@2@V?$allocator@U?$pair@$$CBV?$basic_string@DU?$char_traits@D@std@@V?$allocator@D@2@@std@@VOrder@BWAPI@@@std@@@2@$0A@@std@@@std@@IAEPAU_Node@?$_Tree_nod@V?$_Tmap_traits@V?$basic_string@DU?$char_traits@D@std@@V?$allocator@D@2@@std@@VOrder@BWAPI@@U?$less@V?$basic_string@DU?$char_traits@D@std@@V?$allocator@D@2@@std@@@2@V?$allocator@U?$pair@$$CBV?$basic_string@DU?$char_traits@D@std@@V?$allocator@D@2@@std@@VOrder@BWAPI@@@std@@@2@$0A@@std@@@2@PAU342@00ABU?$pair@$$CBV?$basic_string@DU?$char_traits@D@std@@V?$allocator@D@2@@std@@VOrder@BWAPI@@@2@D@Z$0 0042c007 f i BWAPI:UnitCommandType.obj
 0001:0002b007       __catch$?_Buynode@?$_Tree@V?$_Tmap_traits@V?$basic_string@DU?$char_traits@D@std@@V?$allocator@D@2@@std@@VGameType@BWAPI@@U?$less@V?$basic_string@DU?$char_traits@D@std@@V?$allocator@D@2@@std@@@2@V?$allocator@U?$pair@$$CBV?$basic_string@DU?$char_traits@D@std@@V?$allocator@D@2@@std@@VGameType@BWAPI@@@std@@@2@$0A@@std@@@std@@IAEPAU_Node@?$_Tree_nod@V?$_Tmap_traits@V?$basic_string@DU?$char_traits@D@std@@V?$allocator@D@2@@std@@VGameType@BWAPI@@U?$less@V?$basic_string@DU?$char_traits@D@std@@V?$allocator@D@2@@std@@@2@V?$allocator@U?$pair@$$CBV?$basic_string@DU?$char_traits@D@std@@V?$allocator@D@2@@std@@VGameType@BWAPI@@@std@@@2@$0A@@std@@@2@PAU342@00ABU?$pair@$$CBV?$basic_string@DU?$char_traits@D@std@@V?$allocator@D@2@@std@@VGameType@BWAPI@@@2@D@Z$0 0042c007 f i BWAPI:UnitCommandType.obj
 0001:0002b007       __catch$?_Buynode@?$_Tree@V?$_Tmap_traits@V?$basic_string@DU?$char_traits@D@std@@V?$allocator@D@2@@std@@VDamageType@BWAPI@@U?$less@V?$basic_string@DU?$char_traits@D@std@@V?$allocator@D@2@@std@@@2@V?$allocator@U?$pair@$$CBV?$basic_string@DU?$char_traits@D@std@@V?$allocator@D@2@@std@@VDamageType@BWAPI@@@std@@@2@$0A@@std@@@std@@IAEPAU_Node@?$_Tree_nod@V?$_Tmap_traits@V?$basic_string@DU?$char_traits@D@std@@V?$allocator@D@2@@std@@VDamageType@BWAPI@@U?$less@V?$basic_string@DU?$char_traits@D@std@@V?$allocator@D@2@@std@@@2@V?$allocator@U?$pair@$$CBV?$basic_string@DU?$char_traits@D@std@@V?$allocator@D@2@@std@@VDamageType@BWAPI@@@std@@@2@$0A@@std@@@2@PAU342@00ABU?$pair@$$CBV?$basic_string@DU?$char_traits@D@std@@V?$allocator@D@2@@std@@VDamageType@BWAPI@@@2@D@Z$0 0042c007 f i BWAPI:UnitCommandType.obj
 0001:0002b007       __catch$?_Buynode@?$_Tree@V?$_Tmap_traits@V?$basic_string@DU?$char_traits@D@std@@V?$allocator@D@2@@std@@VRace@BWAPI@@U?$less@V?$basic_string@DU?$char_traits@D@std@@V?$allocator@D@2@@std@@@2@V?$allocator@U?$pair@$$CBV?$basic_string@DU?$char_traits@D@std@@V?$allocator@D@2@@std@@VRace@BWAPI@@@std@@@2@$0A@@std@@@std@@IAEPAU_Node@?$_Tree_nod@V?$_Tmap_traits@V?$basic_string@DU?$char_traits@D@std@@V?$allocator@D@2@@std@@VRace@BWAPI@@U?$less@V?$basic_string@DU?$char_traits@D@std@@V?$allocator@D@2@@std@@@2@V?$allocator@U?$pair@$$CBV?$basic_string@DU?$char_traits@D@std@@V?$allocator@D@2@@std@@VRace@BWAPI@@@std@@@2@$0A@@std@@@2@PAU342@00ABU?$pair@$$CBV?$basic_string@DU?$char_traits@D@std@@V?$allocator@D@2@@std@@VRace@BWAPI@@@2@D@Z$0 0042c007 f i BWAPI:UnitCommandType.obj
 0001:0002b007       __catch$?_Buynode@?$_Tree@V?$_Tmap_traits@V?$basic_string@DU?$char_traits@D@std@@V?$allocator@D@2@@std@@VTechType@BWAPI@@U?$less@V?$basic_string@DU?$char_traits@D@std@@V?$allocator@D@2@@std@@@2@V?$allocator@U?$pair@$$CBV?$basic_string@DU?$char_traits@D@std@@V?$allocator@D@2@@std@@VTechType@BWAPI@@@std@@@2@$0A@@std@@@std@@IAEPAU_Node@?$_Tree_nod@V?$_Tmap_traits@V?$basic_string@DU?$char_traits@D@std@@V?$allocator@D@2@@std@@VTechType@BWAPI@@U?$less@V?$basic_string@DU?$char_traits@D@std@@V?$allocator@D@2@@std@@@2@V?$allocator@U?$pair@$$CBV?$basic_string@DU?$char_traits@D@std@@V?$allocator@D@2@@std@@VTechType@BWAPI@@@std@@@2@$0A@@std@@@2@PAU342@00ABU?$pair@$$CBV?$basic_string@DU?$char_traits@D@std@@V?$allocator@D@2@@std@@VTechType@BWAPI@@@2@D@Z$0 0042c007 f i BWAPI:UnitCommandType.obj
 0001:0002b007       __catch$?_Buynode@?$_Tree@V?$_Tmap_traits@V?$basic_string@DU?$char_traits@D@std@@V?$allocator@D@2@@std@@VBulletType@BWAPI@@U?$less@V?$basic_string@DU?$char_traits@D@std@@V?$allocator@D@2@@std@@@2@V?$allocator@U?$pair@$$CBV?$basic_string@DU?$char_traits@D@std@@V?$allocator@D@2@@std@@VBulletType@BWAPI@@@std@@@2@$0A@@std@@@std@@IAEPAU_Node@?$_Tree_nod@V?$_Tmap_traits@V?$basic_string@DU?$char_traits@D@std@@V?$allocator@D@2@@std@@VBulletType@BWAPI@@U?$less@V?$basic_string@DU?$char_traits@D@std@@V?$allocator@D@2@@std@@@2@V?$allocator@U?$pair@$$CBV?$basic_string@DU?$char_traits@D@std@@V?$allocator@D@2@@std@@VBulletType@BWAPI@@@std@@@2@$0A@@std@@@2@PAU342@00ABU?$pair@$$CBV?$basic_string@DU?$char_traits@D@std@@V?$allocator@D@2@@std@@VBulletType@BWAPI@@@2@D@Z$0 0042c007 f i BWAPI:UnitCommandType.obj
 0001:0002b007       __catch$?_Buynode@?$_Tree@V?$_Tmap_traits@V?$basic_string@DU?$char_traits@D@std@@V?$allocator@D@2@@std@@VUnitType@BWAPI@@U?$less@V?$basic_string@DU?$char_traits@D@std@@V?$allocator@D@2@@std@@@2@V?$allocator@U?$pair@$$CBV?$basic_string@DU?$char_traits@D@std@@V?$allocator@D@2@@std@@VUnitType@BWAPI@@@std@@@2@$0A@@std@@@std@@IAEPAU_Node@?$_Tree_nod@V?$_Tmap_traits@V?$basic_string@DU?$char_traits@D@std@@V?$allocator@D@2@@std@@VUnitType@BWAPI@@U?$less@V?$basic_string@DU?$char_traits@D@std@@V?$allocator@D@2@@std@@@2@V?$allocator@U?$pair@$$CBV?$basic_string@DU?$char_traits@D@std@@V?$allocator@D@2@@std@@VUnitType@BWAPI@@@std@@@2@$0A@@std@@@2@PAU342@00ABU?$pair@$$CBV?$basic_string@DU?$char_traits@D@std@@V?$allocator@D@2@@std@@VUnitType@BWAPI@@@2@D@Z$0 0042c007 f i BWAPI:UnitCommandType.obj
 0001:0002ce6c       _pre_cpp_init              0042de6c f   MSVCRT:crtexe.obj
 0001:0002ceb7       ___tmainCRTStartup         0042deb7 f   MSVCRT:crtexe.obj
 0001:0002d02d       _pre_c_init                0042e02d f   MSVCRT:crtexe.obj
 0001:0002d72b       _has_osfxsr_set            0042e72b f   MSVCRT:cpu_disp.obj
 0001:0002d7f0       __unwindfunclet$?init@UnitTypes@BWAPI@@YAXXZ$0 0042e7f0 f   BWAPI:UnitType.obj
 0001:0002d7fc       __unwindfunclet$?init@UnitTypes@BWAPI@@YAXXZ$2 0042e7fc f   BWAPI:UnitType.obj
 0001:0002d804       __unwindfunclet$?init@UnitTypes@BWAPI@@YAXXZ$3 0042e804 f   BWAPI:UnitType.obj
 0001:0002d80f       __unwindfunclet$?init@UnitTypes@BWAPI@@YAXXZ$4 0042e80f f   BWAPI:UnitType.obj
 0001:0002d81b       __unwindfunclet$?init@UnitTypes@BWAPI@@YAXXZ$6 0042e81b f   BWAPI:UnitType.obj
 0001:0002d823       __unwindfunclet$?init@UnitTypes@BWAPI@@YAXXZ$7 0042e823 f   BWAPI:UnitType.obj
 0001:0002d82e       __ehhandler$?init@UnitTypes@BWAPI@@YAXXZ 0042e82e f   BWAPI:UnitType.obj
 0001:0002d840       __unwindfunclet$??1UnitTypeInternal@BWAPI@@QAE@XZ$0 0042e840 f   BWAPI:UnitType.obj
 0001:0002d849       __unwindfunclet$??1UnitTypeInternal@BWAPI@@QAE@XZ$1 0042e849 f   BWAPI:UnitType.obj
 0001:0002d854       __unwindfunclet$??1UnitTypeInternal@BWAPI@@QAE@XZ$2 0042e854 f   BWAPI:UnitType.obj
 0001:0002d85f       __ehhandler$??1UnitTypeInternal@BWAPI@@QAE@XZ 0042e85f f   BWAPI:UnitType.obj
 0001:0002d870       __unwindfunclet$??0?$_Tree@V?$_Tmap_traits@VUnitType@BWAPI@@HU?$less@VUnitType@BWAPI@@@std@@V?$allocator@U?$pair@$$CBVUnitType@BWAPI@@H@std@@@4@$0A@@std@@@std@@QAE@ABU?$less@VUnitType@BWAPI@@@1@ABV?$allocator@U?$pair@$$CBVUnitType@BWAPI@@H@std@@@1@@Z$0 0042e870 f   BWAPI:UnitType.obj
 0001:0002d878       __ehhandler$??0?$_Tree@V?$_Tmap_traits@VUnitType@BWAPI@@HU?$less@VUnitType@BWAPI@@@std@@V?$allocator@U?$pair@$$CBVUnitType@BWAPI@@H@std@@@4@$0A@@std@@@std@@QAE@ABU?$less@VUnitType@BWAPI@@@1@ABV?$allocator@U?$pair@$$CBVUnitType@BWAPI@@H@std@@@1@@Z 0042e878 f   BWAPI:UnitType.obj
 0001:0002d890       __unwindfunclet$??0UnitTypeInternal@BWAPI@@QAE@XZ$0 0042e890 f   BWAPI:UnitType.obj
 0001:0002d899       __unwindfunclet$??0UnitTypeInternal@BWAPI@@QAE@XZ$1 0042e899 f   BWAPI:UnitType.obj
 0001:0002d8a4       __unwindfunclet$??0UnitTypeInternal@BWAPI@@QAE@XZ$2 0042e8a4 f   BWAPI:UnitType.obj
 0001:0002d8af       __unwindfunclet$??0UnitTypeInternal@BWAPI@@QAE@XZ$3 0042e8af f   BWAPI:UnitType.obj
 0001:0002d8ba       __ehhandler$??0UnitTypeInternal@BWAPI@@QAE@XZ 0042e8ba f   BWAPI:UnitType.obj
 0001:0002d8d0       __unwindfunclet$??0UpgradeTypeInternal@BWAPI@@QAE@XZ$0 0042e8d0 f   BWAPI:UpgradeType.obj
 0001:0002d8d9       __unwindfunclet$??0UpgradeTypeInternal@BWAPI@@QAE@XZ$1 0042e8d9 f   BWAPI:UpgradeType.obj
 0001:0002d8e4       __ehhandler$??0UpgradeTypeInternal@BWAPI@@QAE@XZ 0042e8e4 f   BWAPI:UpgradeType.obj
 0001:0002d8f0       __unwindfunclet$??1UpgradeTypeInternal@BWAPI@@QAE@XZ$0 0042e8f0 f   BWAPI:TechType.obj
 0001:0002d8f0       __unwindfunclet$??0RaceInternal@BWAPI@@QAE@XZ$0 0042e8f0 f   BWAPI:TechType.obj
 0001:0002d8f0       __unwindfunclet$??0WeaponTypeInternal@BWAPI@@QAE@XZ$0 0042e8f0 f   BWAPI:TechType.obj
 0001:0002d8f0       __unwindfunclet$??1TechTypeInternal@BWAPI@@QAE@XZ$0 0042e8f0 f   BWAPI:TechType.obj
 0001:0002d8f9       __ehhandler$??0RaceInternal@BWAPI@@QAE@XZ 0042e8f9 f   BWAPI:TechType.obj
 0001:0002d8f9       __ehhandler$??1TechTypeInternal@BWAPI@@QAE@XZ 0042e8f9 f   BWAPI:TechType.obj
 0001:0002d8f9       __ehhandler$??0WeaponTypeInternal@BWAPI@@QAE@XZ 0042e8f9 f   BWAPI:TechType.obj
 0001:0002d8f9       __ehhandler$??1UpgradeTypeInternal@BWAPI@@QAE@XZ 0042e8f9 f   BWAPI:TechType.obj
 0001:0002d910       __unwindfunclet$??0?$_Tree@V?$_Tset_traits@VBulletType@BWAPI@@U?$less@VBulletType@BWAPI@@@std@@V?$allocator@VBulletType@BWAPI@@@4@$0A@@std@@@std@@QAE@ABU?$less@VBulletType@BWAPI@@@1@ABV?$allocator@VBulletType@BWAPI@@@1@@Z$0 0042e910 f   BWAPI:TechType.obj
 0001:0002d910       __unwindfunclet$??0?$_Tree@V?$_Tset_traits@VUnitSizeType@BWAPI@@U?$less@VUnitSizeType@BWAPI@@@std@@V?$allocator@VUnitSizeType@BWAPI@@@4@$0A@@std@@@std@@QAE@ABU?$less@VUnitSizeType@BWAPI@@@1@ABV?$allocator@VUnitSizeType@BWAPI@@@1@@Z$0 0042e910 f   BWAPI:TechType.obj
 0001:0002d910       __unwindfunclet$??0?$_Tree@V?$_Tset_traits@VUnitType@BWAPI@@U?$less@VUnitType@BWAPI@@@std@@V?$allocator@VUnitType@BWAPI@@@4@$0A@@std@@@std@@QAE@ABU?$less@VUnitType@BWAPI@@@1@ABV?$allocator@VUnitType@BWAPI@@@1@@Z$0 0042e910 f   BWAPI:TechType.obj
 0001:0002d910       __unwindfunclet$??0?$_Tree@V?$_Tmap_traits@V?$basic_string@DU?$char_traits@D@std@@V?$allocator@D@2@@std@@VUnitSizeType@BWAPI@@U?$less@V?$basic_string@DU?$char_traits@D@std@@V?$allocator@D@2@@std@@@2@V?$allocator@U?$pair@$$CBV?$basic_string@DU?$char_traits@D@std@@V?$allocator@D@2@@std@@VUnitSizeType@BWAPI@@@std@@@2@$0A@@std@@@std@@QAE@ABU?$less@V?$basic_string@DU?$char_traits@D@std@@V?$allocator@D@2@@std@@@1@ABV?$allocator@U?$pair@$$CBV?$basic_string@DU?$char_traits@D@std@@V?$allocator@D@2@@std@@VUnitSizeType@BWAPI@@@std@@@1@@Z$0 0042e910 f   BWAPI:TechType.obj
 0001:0002d910       __unwindfunclet$??0?$_Tree@V?$_Tmap_traits@V?$basic_string@DU?$char_traits@D@std@@V?$allocator@D@2@@std@@VBulletType@BWAPI@@U?$less@V?$basic_string@DU?$char_traits@D@std@@V?$allocator@D@2@@std@@@2@V?$allocator@U?$pair@$$CBV?$basic_string@DU?$char_traits@D@std@@V?$allocator@D@2@@std@@VBulletType@BWAPI@@@std@@@2@$0A@@std@@@std@@QAE@ABU?$less@V?$basic_string@DU?$char_traits@D@std@@V?$allocator@D@2@@std@@@1@ABV?$allocator@U?$pair@$$CBV?$basic_string@DU?$char_traits@D@std@@V?$allocator@D@2@@std@@VBulletType@BWAPI@@@std@@@1@@Z$0 0042e910 f   BWAPI:TechType.obj
 0001:0002d910       __unwindfunclet$??0?$_Tree@V?$_Tmap_traits@V?$basic_string@DU?$char_traits@D@std@@V?$allocator@D@2@@std@@VUnitType@BWAPI@@U?$less@V?$basic_string@DU?$char_traits@D@std@@V?$allocator@D@2@@std@@@2@V?$allocator@U?$pair@$$CBV?$basic_string@DU?$char_traits@D@std@@V?$allocator@D@2@@std@@VUnitType@BWAPI@@@std@@@2@$0A@@std@@@std@@QAE@ABU?$less@V?$basic_string@DU?$char_traits@D@std@@V?$allocator@D@2@@std@@@1@ABV?$allocator@U?$pair@$$CBV?$basic_string@DU?$char_traits@D@std@@V?$allocator@D@2@@std@@VUnitType@BWAPI@@@std@@@1@@Z$0 0042e910 f   BWAPI:TechType.obj
 0001:0002d910       __unwindfunclet$??0?$_Tree@V?$_Tmap_traits@V?$basic_string@DU?$char_traits@D@std@@V?$allocator@D@2@@std@@VError@BWAPI@@U?$less@V?$basic_string@DU?$char_traits@D@std@@V?$allocator@D@2@@std@@@2@V?$allocator@U?$pair@$$CBV?$basic_string@DU?$char_traits@D@std@@V?$allocator@D@2@@std@@VError@BWAPI@@@std@@@2@$0A@@std@@@std@@QAE@ABU?$less@V?$basic_string@DU?$char_traits@D@std@@V?$allocator@D@2@@std@@@1@ABV?$allocator@U?$pair@$$CBV?$basic_string@DU?$char_traits@D@std@@V?$allocator@D@2@@std@@VError@BWAPI@@@std@@@1@@Z$0 0042e910 f   BWAPI:TechType.obj
 0001:0002d910       __unwindfunclet$??0?$_Tree@V?$_Tset_traits@VUpgradeType@BWAPI@@U?$less@VUpgradeType@BWAPI@@@std@@V?$allocator@VUpgradeType@BWAPI@@@4@$0A@@std@@@std@@QAE@ABU?$less@VUpgradeType@BWAPI@@@1@ABV?$allocator@VUpgradeType@BWAPI@@@1@@Z$0 0042e910 f   BWAPI:TechType.obj
 0001:0002d910       __unwindfunclet$??0?$_Tree@V?$_Tset_traits@VPlayerType@BWAPI@@U?$less@VPlayerType@BWAPI@@@std@@V?$allocator@VPlayerType@BWAPI@@@4@$0A@@std@@@std@@QAE@ABU?$less@VPlayerType@BWAPI@@@1@ABV?$allocator@VPlayerType@BWAPI@@@1@@Z$0 0042e910 f   BWAPI:TechType.obj
 0001:0002d910       __unwindfunclet$??0?$_Tree@V?$_Tmap_traits@V?$basic_string@DU?$char_traits@D@std@@V?$allocator@D@2@@std@@VWeaponType@BWAPI@@U?$less@V?$basic_string@DU?$char_traits@D@std@@V?$allocator@D@2@@std@@@2@V?$allocator@U?$pair@$$CBV?$basic_string@DU?$char_traits@D@std@@V?$allocator@D@2@@std@@VWeaponType@BWAPI@@@std@@@2@$0A@@std@@@std@@QAE@ABU?$less@V?$basic_string@DU?$char_traits@D@std@@V?$allocator@D@2@@std@@@1@ABV?$allocator@U?$pair@$$CBV?$basic_string@DU?$char_traits@D@std@@V?$allocator@D@2@@std@@VWeaponType@BWAPI@@@std@@@1@@Z$0 0042e910 f   BWAPI:TechType.obj
 0001:0002d910       __unwindfunclet$??0?$_Tree@V?$_Tset_traits@VTechType@BWAPI@@U?$less@VTechType@BWAPI@@@std@@V?$allocator@VTechType@BWAPI@@@4@$0A@@std@@@std@@QAE@ABU?$less@VTechType@BWAPI@@@1@ABV?$allocator@VTechType@BWAPI@@@1@@Z$0 0042e910 f   BWAPI:TechType.obj
 0001:0002d910       __unwindfunclet$??0?$_Tree@V?$_Tmap_traits@V?$basic_string@DU?$char_traits@D@std@@V?$allocator@D@2@@std@@VOrder@BWAPI@@U?$less@V?$basic_string@DU?$char_traits@D@std@@V?$allocator@D@2@@std@@@2@V?$allocator@U?$pair@$$CBV?$basic_string@DU?$char_traits@D@std@@V?$allocator@D@2@@std@@VOrder@BWAPI@@@std@@@2@$0A@@std@@@std@@QAE@ABU?$less@V?$basic_string@DU?$char_traits@D@std@@V?$allocator@D@2@@std@@@1@ABV?$allocator@U?$pair@$$CBV?$basic_string@DU?$char_traits@D@std@@V?$allocator@D@2@@std@@VOrder@BWAPI@@@std@@@1@@Z$0 0042e910 f   BWAPI:TechType.obj
 0001:0002d910       __unwindfunclet$??0?$_Tree@V?$_Tset_traits@VRace@BWAPI@@U?$less@VRace@BWAPI@@@std@@V?$allocator@VRace@BWAPI@@@4@$0A@@std@@@std@@QAE@ABU?$less@VRace@BWAPI@@@1@ABV?$allocator@VRace@BWAPI@@@1@@Z$0 0042e910 f   BWAPI:TechType.obj
 0001:0002d910       __unwindfunclet$??0?$_Tree@V?$_Tset_traits@VUnitCommandType@BWAPI@@U?$less@VUnitCommandType@BWAPI@@@std@@V?$allocator@VUnitCommandType@BWAPI@@@4@$0A@@std@@@std@@QAE@ABU?$less@VUnitCommandType@BWAPI@@@1@ABV?$allocator@VUnitCommandType@BWAPI@@@1@@Z$0 0042e910 f   BWAPI:TechType.obj
 0001:0002d910       __unwindfunclet$??0?$_Tree@V?$_Tmap_traits@V?$basic_string@DU?$char_traits@D@std@@V?$allocator@D@2@@std@@VRace@BWAPI@@U?$less@V?$basic_string@DU?$char_traits@D@std@@V?$allocator@D@2@@std@@@2@V?$allocator@U?$pair@$$CBV?$basic_string@DU?$char_traits@D@std@@V?$allocator@D@2@@std@@VRace@BWAPI@@@std@@@2@$0A@@std@@@std@@QAE@ABU?$less@V?$basic_string@DU?$char_traits@D@std@@V?$allocator@D@2@@std@@@1@ABV?$allocator@U?$pair@$$CBV?$basic_string@DU?$char_traits@D@std@@V?$allocator@D@2@@std@@VRace@BWAPI@@@std@@@1@@Z$0 0042e910 f   BWAPI:TechType.obj
 0001:0002d910       __unwindfunclet$??0?$_Tree@V?$_Tmap_traits@V?$basic_string@DU?$char_traits@D@std@@V?$allocator@D@2@@std@@VGameType@BWAPI@@U?$less@V?$basic_string@DU?$char_traits@D@std@@V?$allocator@D@2@@std@@@2@V?$allocator@U?$pair@$$CBV?$basic_string@DU?$char_traits@D@std@@V?$allocator@D@2@@std@@VGameType@BWAPI@@@std@@@2@$0A@@std@@@std@@QAE@ABU?$less@V?$basic_string@DU?$char_traits@D@std@@V?$allocator@D@2@@std@@@1@ABV?$allocator@U?$pair@$$CBV?$basic_string@DU?$char_traits@D@std@@V?$allocator@D@2@@std@@VGameType@BWAPI@@@std@@@1@@Z$0 0042e910 f   BWAPI:TechType.obj
 0001:0002d910       __unwindfunclet$??0?$_Tree@V?$_Tset_traits@VGameType@BWAPI@@U?$less@VGameType@BWAPI@@@std@@V?$allocator@VGameType@BWAPI@@@4@$0A@@std@@@std@@QAE@ABU?$less@VGameType@BWAPI@@@1@ABV?$allocator@VGameType@BWAPI@@@1@@Z$0 0042e910 f   BWAPI:TechType.obj
 0001:0002d910       __unwindfunclet$??0?$_Tree@V?$_Tmap_traits@V?$basic_string@DU?$char_traits@D@std@@V?$allocator@D@2@@std@@VUnitCommandType@BWAPI@@U?$less@V?$basic_string@DU?$char_traits@D@std@@V?$allocator@D@2@@std@@@2@V?$allocator@U?$pair@$$CBV?$basic_string@DU?$char_traits@D@std@@V?$allocator@D@2@@std@@VUnitCommandType@BWAPI@@@std@@@2@$0A@@std@@@std@@QAE@ABU?$less@V?$basic_string@DU?$char_traits@D@std@@V?$allocator@D@2@@std@@@1@ABV?$allocator@U?$pair@$$CBV?$basic_string@DU?$char_traits@D@std@@V?$allocator@D@2@@std@@VUnitCommandType@BWAPI@@@std@@@1@@Z$0 0042e910 f   BWAPI:TechType.obj
 0001:0002d910       __unwindfunclet$??0?$_Tree@V?$_Tmap_traits@V?$basic_string@DU?$char_traits@D@std@@V?$allocator@D@2@@std@@VExplosionType@BWAPI@@U?$less@V?$basic_string@DU?$char_traits@D@std@@V?$allocator@D@2@@std@@@2@V?$allocator@U?$pair@$$CBV?$basic_string@DU?$char_traits@D@std@@V?$allocator@D@2@@std@@VExplosionType@BWAPI@@@std@@@2@$0A@@std@@@std@@QAE@ABU?$less@V?$basic_string@DU?$char_traits@D@std@@V?$allocator@D@2@@std@@@1@ABV?$allocator@U?$pair@$$CBV?$basic_string@DU?$char_traits@D@std@@V?$allocator@D@2@@std@@VExplosionType@BWAPI@@@std@@@1@@Z$0 0042e910 f   BWAPI:TechType.obj
 0001:0002d910       __unwindfunclet$??0?$_Tree@V?$_Tmap_traits@V?$basic_string@DU?$char_traits@D@std@@V?$allocator@D@2@@std@@VPlayerType@BWAPI@@U?$less@V?$basic_string@DU?$char_traits@D@std@@V?$allocator@D@2@@std@@@2@V?$allocator@U?$pair@$$CBV?$basic_string@DU?$char_traits@D@std@@V?$allocator@D@2@@std@@VPlayerType@BWAPI@@@std@@@2@$0A@@std@@@std@@QAE@ABU?$less@V?$basic_string@DU?$char_traits@D@std@@V?$allocator@D@2@@std@@@1@ABV?$allocator@U?$pair@$$CBV?$basic_string@DU?$char_traits@D@std@@V?$allocator@D@2@@std@@VPlayerType@BWAPI@@@std@@@1@@Z$0 0042e910 f   BWAPI:TechType.obj
 0001:0002d910       __unwindfunclet$??0?$_Tree@V?$_Tmap_traits@V?$basic_string@DU?$char_traits@D@std@@V?$allocator@D@2@@std@@VDamageType@BWAPI@@U?$less@V?$basic_string@DU?$char_traits@D@std@@V?$allocator@D@2@@std@@@2@V?$allocator@U?$pair@$$CBV?$basic_string@DU?$char_traits@D@std@@V?$allocator@D@2@@std@@VDamageType@BWAPI@@@std@@@2@$0A@@std@@@std@@QAE@ABU?$less@V?$basic_string@DU?$char_traits@D@std@@V?$allocator@D@2@@std@@@1@ABV?$allocator@U?$pair@$$CBV?$basic_string@DU?$char_traits@D@std@@V?$allocator@D@2@@std@@VDamageType@BWAPI@@@std@@@1@@Z$0 0042e910 f   BWAPI:TechType.obj
 0001:0002d910       __unwindfunclet$??0?$_Tree@V?$_Tset_traits@VWeaponType@BWAPI@@U?$less@VWeaponType@BWAPI@@@std@@V?$allocator@VWeaponType@BWAPI@@@4@$0A@@std@@@std@@QAE@ABU?$less@VWeaponType@BWAPI@@@1@ABV?$allocator@VWeaponType@BWAPI@@@1@@Z$0 0042e910 f   BWAPI:TechType.obj
 0001:0002d910       __unwindfunclet$??0?$_Tree@V?$_Tset_traits@VDamageType@BWAPI@@U?$less@VDamageType@BWAPI@@@std@@V?$allocator@VDamageType@BWAPI@@@4@$0A@@std@@@std@@QAE@ABU?$less@VDamageType@BWAPI@@@1@ABV?$allocator@VDamageType@BWAPI@@@1@@Z$0 0042e910 f   BWAPI:TechType.obj
 0001:0002d910       __unwindfunclet$??0?$_Tree@V?$_Tset_traits@VExplosionType@BWAPI@@U?$less@VExplosionType@BWAPI@@@std@@V?$allocator@VExplosionType@BWAPI@@@4@$0A@@std@@@std@@QAE@ABU?$less@VExplosionType@BWAPI@@@1@ABV?$allocator@VExplosionType@BWAPI@@@1@@Z$0 0042e910 f   BWAPI:TechType.obj
 0001:0002d910       __unwindfunclet$??0?$_Tree@V?$_Tset_traits@VOrder@BWAPI@@U?$less@VOrder@BWAPI@@@std@@V?$allocator@VOrder@BWAPI@@@4@$0A@@std@@@std@@QAE@ABU?$less@VOrder@BWAPI@@@1@ABV?$allocator@VOrder@BWAPI@@@1@@Z$0 0042e910 f   BWAPI:TechType.obj
 0001:0002d910       __unwindfunclet$??0?$_Tree@V?$_Tmap_traits@V?$basic_string@DU?$char_traits@D@std@@V?$allocator@D@2@@std@@VTechType@BWAPI@@U?$less@V?$basic_string@DU?$char_traits@D@std@@V?$allocator@D@2@@std@@@2@V?$allocator@U?$pair@$$CBV?$basic_string@DU?$char_traits@D@std@@V?$allocator@D@2@@std@@VTechType@BWAPI@@@std@@@2@$0A@@std@@@std@@QAE@ABU?$less@V?$basic_string@DU?$char_traits@D@std@@V?$allocator@D@2@@std@@@1@ABV?$allocator@U?$pair@$$CBV?$basic_string@DU?$char_traits@D@std@@V?$allocator@D@2@@std@@VTechType@BWAPI@@@std@@@1@@Z$0 0042e910 f   BWAPI:TechType.obj
 0001:0002d910       __unwindfunclet$??0?$_Tree@V?$_Tset_traits@VError@BWAPI@@U?$less@VError@BWAPI@@@std@@V?$allocator@VError@BWAPI@@@4@$0A@@std@@@std@@QAE@ABU?$less@VError@BWAPI@@@1@ABV?$allocator@VError@BWAPI@@@1@@Z$0 0042e910 f   BWAPI:TechType.obj
 0001:0002d910       __unwindfunclet$??0?$_Tree@V?$_Tmap_traits@V?$basic_string@DU?$char_traits@D@std@@V?$allocator@D@2@@std@@VUpgradeType@BWAPI@@U?$less@V?$basic_string@DU?$char_traits@D@std@@V?$allocator@D@2@@std@@@2@V?$allocator@U?$pair@$$CBV?$basic_string@DU?$char_traits@D@std@@V?$allocator@D@2@@std@@VUpgradeType@BWAPI@@@std@@@2@$0A@@std@@@std@@QAE@ABU?$less@V?$basic_string@DU?$char_traits@D@std@@V?$allocator@D@2@@std@@@1@ABV?$allocator@U?$pair@$$CBV?$basic_string@DU?$char_traits@D@std@@V?$allocator@D@2@@std@@VUpgradeType@BWAPI@@@std@@@1@@Z$0 0042e910 f   BWAPI:TechType.obj
 0001:0002d918       __ehhandler$??0?$_Tree@V?$_Tmap_traits@V?$basic_string@DU?$char_traits@D@std@@V?$allocator@D@2@@std@@VUpgradeType@BWAPI@@U?$less@V?$basic_string@DU?$char_traits@D@std@@V?$allocator@D@2@@std@@@2@V?$allocator@U?$pair@$$CBV?$basic_string@DU?$char_traits@D@std@@V?$allocator@D@2@@std@@VUpgradeType@BWAPI@@@std@@@2@$0A@@std@@@std@@QAE@ABU?$less@V?$basic_string@DU?$char_traits@D@std@@V?$allocator@D@2@@std@@@1@ABV?$allocator@U?$pair@$$CBV?$basic_string@DU?$char_traits@D@std@@V?$allocator@D@2@@std@@VUpgradeType@BWAPI@@@std@@@1@@Z 0042e918 f   BWAPI:TechType.obj
 0001:0002d918       __ehhandler$??0?$_Tree@V?$_Tmap_traits@V?$basic_string@DU?$char_traits@D@std@@V?$allocator@D@2@@std@@VDamageType@BWAPI@@U?$less@V?$basic_string@DU?$char_traits@D@std@@V?$allocator@D@2@@std@@@2@V?$allocator@U?$pair@$$CBV?$basic_string@DU?$char_traits@D@std@@V?$allocator@D@2@@std@@VDamageType@BWAPI@@@std@@@2@$0A@@std@@@std@@QAE@ABU?$less@V?$basic_string@DU?$char_traits@D@std@@V?$allocator@D@2@@std@@@1@ABV?$allocator@U?$pair@$$CBV?$basic_string@DU?$char_traits@D@std@@V?$allocator@D@2@@std@@VDamageType@BWAPI@@@std@@@1@@Z 0042e918 f   BWAPI:TechType.obj
 0001:0002d918       __ehhandler$??0?$_Tree@V?$_Tmap_traits@V?$basic_string@DU?$char_traits@D@std@@V?$allocator@D@2@@std@@VPlayerType@BWAPI@@U?$less@V?$basic_string@DU?$char_traits@D@std@@V?$allocator@D@2@@std@@@2@V?$allocator@U?$pair@$$CBV?$basic_string@DU?$char_traits@D@std@@V?$allocator@D@2@@std@@VPlayerType@BWAPI@@@std@@@2@$0A@@std@@@std@@QAE@ABU?$less@V?$basic_string@DU?$char_traits@D@std@@V?$allocator@D@2@@std@@@1@ABV?$allocator@U?$pair@$$CBV?$basic_string@DU?$char_traits@D@std@@V?$allocator@D@2@@std@@VPlayerType@BWAPI@@@std@@@1@@Z 0042e918 f   BWAPI:TechType.obj
 0001:0002d918       __ehhandler$??0?$_Tree@V?$_Tmap_traits@V?$basic_string@DU?$char_traits@D@std@@V?$allocator@D@2@@std@@VUnitCommandType@BWAPI@@U?$less@V?$basic_string@DU?$char_traits@D@std@@V?$allocator@D@2@@std@@@2@V?$allocator@U?$pair@$$CBV?$basic_string@DU?$char_traits@D@std@@V?$allocator@D@2@@std@@VUnitCommandType@BWAPI@@@std@@@2@$0A@@std@@@std@@QAE@ABU?$less@V?$basic_string@DU?$char_traits@D@std@@V?$allocator@D@2@@std@@@1@ABV?$allocator@U?$pair@$$CBV?$basic_string@DU?$char_traits@D@std@@V?$allocator@D@2@@std@@VUnitCommandType@BWAPI@@@std@@@1@@Z 0042e918 f   BWAPI:TechType.obj
 0001:0002d918       __ehhandler$??0?$_Tree@V?$_Tmap_traits@V?$basic_string@DU?$char_traits@D@std@@V?$allocator@D@2@@std@@VRace@BWAPI@@U?$less@V?$basic_string@DU?$char_traits@D@std@@V?$allocator@D@2@@std@@@2@V?$allocator@U?$pair@$$CBV?$basic_string@DU?$char_traits@D@std@@V?$allocator@D@2@@std@@VRace@BWAPI@@@std@@@2@$0A@@std@@@std@@QAE@ABU?$less@V?$basic_string@DU?$char_traits@D@std@@V?$allocator@D@2@@std@@@1@ABV?$allocator@U?$pair@$$CBV?$basic_string@DU?$char_traits@D@std@@V?$allocator@D@2@@std@@VRace@BWAPI@@@std@@@1@@Z 0042e918 f   BWAPI:TechType.obj
 0001:0002d918       __ehhandler$??0?$_Tree@V?$_Tset_traits@VUnitCommandType@BWAPI@@U?$less@VUnitCommandType@BWAPI@@@std@@V?$allocator@VUnitCommandType@BWAPI@@@4@$0A@@std@@@std@@QAE@ABU?$less@VUnitCommandType@BWAPI@@@1@ABV?$allocator@VUnitCommandType@BWAPI@@@1@@Z 0042e918 f   BWAPI:TechType.obj
 0001:0002d918       __ehhandler$??0?$_Tree@V?$_Tset_traits@VRace@BWAPI@@U?$less@VRace@BWAPI@@@std@@V?$allocator@VRace@BWAPI@@@4@$0A@@std@@@std@@QAE@ABU?$less@VRace@BWAPI@@@1@ABV?$allocator@VRace@BWAPI@@@1@@Z 0042e918 f   BWAPI:TechType.obj
 0001:0002d918       __ehhandler$??0?$_Tree@V?$_Tset_traits@VError@BWAPI@@U?$less@VError@BWAPI@@@std@@V?$allocator@VError@BWAPI@@@4@$0A@@std@@@std@@QAE@ABU?$less@VError@BWAPI@@@1@ABV?$allocator@VError@BWAPI@@@1@@Z 0042e918 f   BWAPI:TechType.obj
 0001:0002d918       __ehhandler$??0?$_Tree@V?$_Tset_traits@VTechType@BWAPI@@U?$less@VTechType@BWAPI@@@std@@V?$allocator@VTechType@BWAPI@@@4@$0A@@std@@@std@@QAE@ABU?$less@VTechType@BWAPI@@@1@ABV?$allocator@VTechType@BWAPI@@@1@@Z 0042e918 f   BWAPI:TechType.obj
 0001:0002d918       __ehhandler$??0?$_Tree@V?$_Tmap_traits@V?$basic_string@DU?$char_traits@D@std@@V?$allocator@D@2@@std@@VError@BWAPI@@U?$less@V?$basic_string@DU?$char_traits@D@std@@V?$allocator@D@2@@std@@@2@V?$allocator@U?$pair@$$CBV?$basic_string@DU?$char_traits@D@std@@V?$allocator@D@2@@std@@VError@BWAPI@@@std@@@2@$0A@@std@@@std@@QAE@ABU?$less@V?$basic_string@DU?$char_traits@D@std@@V?$allocator@D@2@@std@@@1@ABV?$allocator@U?$pair@$$CBV?$basic_string@DU?$char_traits@D@std@@V?$allocator@D@2@@std@@VError@BWAPI@@@std@@@1@@Z 0042e918 f   BWAPI:TechType.obj
 0001:0002d918       __ehhandler$??0?$_Tree@V?$_Tset_traits@VUpgradeType@BWAPI@@U?$less@VUpgradeType@BWAPI@@@std@@V?$allocator@VUpgradeType@BWAPI@@@4@$0A@@std@@@std@@QAE@ABU?$less@VUpgradeType@BWAPI@@@1@ABV?$allocator@VUpgradeType@BWAPI@@@1@@Z 0042e918 f   BWAPI:TechType.obj
 0001:0002d918       __ehhandler$??0?$_Tree@V?$_Tmap_traits@V?$basic_string@DU?$char_traits@D@std@@V?$allocator@D@2@@std@@VUnitType@BWAPI@@U?$less@V?$basic_string@DU?$char_traits@D@std@@V?$allocator@D@2@@std@@@2@V?$allocator@U?$pair@$$CBV?$basic_string@DU?$char_traits@D@std@@V?$allocator@D@2@@std@@VUnitType@BWAPI@@@std@@@2@$0A@@std@@@std@@QAE@ABU?$less@V?$basic_string@DU?$char_traits@D@std@@V?$allocator@D@2@@std@@@1@ABV?$allocator@U?$pair@$$CBV?$basic_string@DU?$char_traits@D@std@@V?$allocator@D@2@@std@@VUnitType@BWAPI@@@std@@@1@@Z 0042e918 f   BWAPI:TechType.obj
 0001:0002d918       __ehhandler$??0?$_Tree@V?$_Tmap_traits@V?$basic_string@DU?$char_traits@D@std@@V?$allocator@D@2@@std@@VBulletType@BWAPI@@U?$less@V?$basic_string@DU?$char_traits@D@std@@V?$allocator@D@2@@std@@@2@V?$allocator@U?$pair@$$CBV?$basic_string@DU?$char_traits@D@std@@V?$allocator@D@2@@std@@VBulletType@BWAPI@@@std@@@2@$0A@@std@@@std@@QAE@ABU?$less@V?$basic_string@DU?$char_traits@D@std@@V?$allocator@D@2@@std@@@1@ABV?$allocator@U?$pair@$$CBV?$basic_string@DU?$char_traits@D@std@@V?$allocator@D@2@@std@@VBulletType@BWAPI@@@std@@@1@@Z 0042e918 f   BWAPI:TechType.obj
 0001:0002d918       __ehhandler$??0?$_Tree@V?$_Tset_traits@VOrder@BWAPI@@U?$less@VOrder@BWAPI@@@std@@V?$allocator@VOrder@BWAPI@@@4@$0A@@std@@@std@@QAE@ABU?$less@VOrder@BWAPI@@@1@ABV?$allocator@VOrder@BWAPI@@@1@@Z 0042e918 f   BWAPI:TechType.obj
 0001:0002d918       __ehhandler$??0?$_Tree@V?$_Tset_traits@VPlayerType@BWAPI@@U?$less@VPlayerType@BWAPI@@@std@@V?$allocator@VPlayerType@BWAPI@@@4@$0A@@std@@@std@@QAE@ABU?$less@VPlayerType@BWAPI@@@1@ABV?$allocator@VPlayerType@BWAPI@@@1@@Z 0042e918 f   BWAPI:TechType.obj
 0001:0002d918       __ehhandler$??0?$_Tree@V?$_Tmap_traits@V?$basic_string@DU?$char_traits@D@std@@V?$allocator@D@2@@std@@VUnitSizeType@BWAPI@@U?$less@V?$basic_string@DU?$char_traits@D@std@@V?$allocator@D@2@@std@@@2@V?$allocator@U?$pair@$$CBV?$basic_string@DU?$char_traits@D@std@@V?$allocator@D@2@@std@@VUnitSizeType@BWAPI@@@std@@@2@$0A@@std@@@std@@QAE@ABU?$less@V?$basic_string@DU?$char_traits@D@std@@V?$allocator@D@2@@std@@@1@ABV?$allocator@U?$pair@$$CBV?$basic_string@DU?$char_traits@D@std@@V?$allocator@D@2@@std@@VUnitSizeType@BWAPI@@@std@@@1@@Z 0042e918 f   BWAPI:TechType.obj
 0001:0002d918       __ehhandler$??0?$_Tree@V?$_Tset_traits@VUnitType@BWAPI@@U?$less@VUnitType@BWAPI@@@std@@V?$allocator@VUnitType@BWAPI@@@4@$0A@@std@@@std@@QAE@ABU?$less@VUnitType@BWAPI@@@1@ABV?$allocator@VUnitType@BWAPI@@@1@@Z 0042e918 f   BWAPI:TechType.obj
 0001:0002d918       __ehhandler$??0?$_Tree@V?$_Tset_traits@VUnitSizeType@BWAPI@@U?$less@VUnitSizeType@BWAPI@@@std@@V?$allocator@VUnitSizeType@BWAPI@@@4@$0A@@std@@@std@@QAE@ABU?$less@VUnitSizeType@BWAPI@@@1@ABV?$allocator@VUnitSizeType@BWAPI@@@1@@Z 0042e918 f   BWAPI:TechType.obj
 0001:0002d918       __ehhandler$??0?$_Tree@V?$_Tmap_traits@V?$basic_string@DU?$char_traits@D@std@@V?$allocator@D@2@@std@@VExplosionType@BWAPI@@U?$less@V?$basic_string@DU?$char_traits@D@std@@V?$allocator@D@2@@std@@@2@V?$allocator@U?$pair@$$CBV?$basic_string@DU?$char_traits@D@std@@V?$allocator@D@2@@std@@VExplosionType@BWAPI@@@std@@@2@$0A@@std@@@std@@QAE@ABU?$less@V?$basic_string@DU?$char_traits@D@std@@V?$allocator@D@2@@std@@@1@ABV?$allocator@U?$pair@$$CBV?$basic_string@DU?$char_traits@D@std@@V?$allocator@D@2@@std@@VExplosionType@BWAPI@@@std@@@1@@Z 0042e918 f   BWAPI:TechType.obj
